
C:/Users/Steven/Desktop/ECE243-Final-Project/FinalProject.axf:     file format elf32-littlearm


Disassembly of section .text:

00000000 <__cs3_interrupt_vector>:
       0:	18 f0 9f e5 18 f0 9f e5 18 f0 9f e5 18 f0 9f e5     ................
      10:	18 f0 9f e5 18 f0 9f e5 18 f0 9f e5 18 f0 9f e5     ................
      20:	40 00 00 00 fc 10 00 00 00 11 00 00 04 11 00 00     @...............
      30:	08 11 00 00 f8 10 00 00 0c 11 00 00 10 11 00 00     ................

00000040 <__cs3_reset>:
      40:	ea000026 	b	e0 <__cs3_start_asm_sim>

00000044 <__cs3_start_c>:
      44:	e59f608c 	ldr	r6, [pc, #140]	; d8 <__cs3_start_c+0x94>
      48:	e3560000 	cmp	r6, #0
      4c:	e92d4080 	push	{r7, lr}
      50:	e2466001 	sub	r6, r6, #1
      54:	0a00001e 	beq	d4 <__cs3_start_c+0x90>
      58:	e59f507c 	ldr	r5, [pc, #124]	; dc <__cs3_start_c+0x98>
      5c:	e3a00000 	mov	r0, #0
      60:	e3a01000 	mov	r1, #0
      64:	e515200c 	ldr	r2, [r5, #-12]
      68:	e515e010 	ldr	lr, [r5, #-16]
      6c:	e5154008 	ldr	r4, [r5, #-8]
      70:	e15e0002 	cmp	lr, r2
      74:	00822004 	addeq	r2, r2, r4
      78:	0a000009 	beq	a4 <__cs3_start_c+0x60>
      7c:	e3540000 	cmp	r4, #0
      80:	0a000007 	beq	a4 <__cs3_start_c+0x60>
      84:	e1a07002 	mov	r7, r2
      88:	e1a0c002 	mov	r12, r2
      8c:	e8be000c 	ldm	lr!, {r2, r3}
      90:	e8ac000c 	stmia	r12!, {r2, r3}
      94:	e067300c 	rsb	r3, r7, r12
      98:	e1540003 	cmp	r4, r3
      9c:	e1a0200c 	mov	r2, r12
      a0:	1afffff9 	bne	8c <__cs3_start_c+0x48>
      a4:	e515e004 	ldr	lr, [r5, #-4]
      a8:	e35e0000 	cmp	lr, #0
      ac:	11a03002 	movne	r3, r2
      b0:	0a000003 	beq	c4 <__cs3_start_c+0x80>
      b4:	e8a30003 	stmia	r3!, {r0, r1}
      b8:	e062c003 	rsb	r12, r2, r3
      bc:	e15e000c 	cmp	lr, r12
      c0:	1afffffb 	bne	b4 <__cs3_start_c+0x70>
      c4:	e2466001 	sub	r6, r6, #1
      c8:	e3760001 	cmn	r6, #1
      cc:	e2855014 	add	r5, r5, #20
      d0:	1affffe3 	bne	64 <__cs3_start_c+0x20>
      d4:	eb0003ee 	bl	1094 <__cs3_premain>
      d8:	00000001 	.word	0x00000001
      dc:	0002b750 	.word	0x0002b750

000000e0 <__cs3_start_asm_sim>:
      e0:	e28f103c 	add	r1, pc, #60	; 0x3c
      e4:	e3a00016 	mov	r0, #22
      e8:	ef123456 	svc	0x00123456
      ec:	e3500000 	cmp	r0, #0
      f0:	ba000008 	blt	118 <__cs3_start_asm_sim+0x38>
      f4:	e59f2028 	ldr	r2, [pc, #40]	; 124 <__cs3_heap_start_ptr>
      f8:	e59fd01c 	ldr	sp, [pc, #28]	; 11c <__cs3_start_asm_sim+0x3c>
      fc:	e5920008 	ldr	r0, [r2, #8]
     100:	e3500000 	cmp	r0, #0
     104:	11a0d000 	movne	sp, r0
     108:	e59f1010 	ldr	r1, [pc, #16]	; 120 <__cs3_start_asm_sim+0x40>
     10c:	e5920004 	ldr	r0, [r2, #4]
     110:	e3500000 	cmp	r0, #0
     114:	15810000 	strne	r0, [r1]
     118:	eaffffc9 	b	44 <__cs3_start_c>
     11c:	3ffffff8 	.word	0x3ffffff8
     120:	0002bb90 	.word	0x0002bb90

00000124 <__cs3_heap_start_ptr>:
     124:	0002be80 	.word	0x0002be80

00000128 <_start>:
     128:	e51fd000 	ldr	sp, [pc, #-0]	; 130 <_start+0x8>
     12c:	eaffffc4 	b	44 <__cs3_start_c>
     130:	3ffffff8 	.word	0x3ffffff8

00000134 <deregister_tm_clones>:
     134:	e92d4008 	push	{r3, lr}
     138:	e59f002c 	ldr	r0, [pc, #44]	; 16c <deregister_tm_clones+0x38>
     13c:	e59f302c 	ldr	r3, [pc, #44]	; 170 <deregister_tm_clones+0x3c>
     140:	e0603003 	rsb	r3, r0, r3
     144:	e3530006 	cmp	r3, #6
     148:	8a000001 	bhi	154 <deregister_tm_clones+0x20>
     14c:	e8bd4008 	pop	{r3, lr}
     150:	e12fff1e 	bx	lr
     154:	e59f3018 	ldr	r3, [pc, #24]	; 174 <deregister_tm_clones+0x40>
     158:	e3530000 	cmp	r3, #0
     15c:	0afffffa 	beq	14c <deregister_tm_clones+0x18>
     160:	e1a0e00f 	mov	lr, pc
     164:	e12fff13 	bx	r3
     168:	eafffff7 	b	14c <deregister_tm_clones+0x18>
     16c:	0002bb98 	.word	0x0002bb98
     170:	0002bb9b 	.word	0x0002bb9b
     174:	00000000 	.word	0x00000000

00000178 <register_tm_clones>:
     178:	e92d4008 	push	{r3, lr}
     17c:	e59f0034 	ldr	r0, [pc, #52]	; 1b8 <register_tm_clones+0x40>
     180:	e59f3034 	ldr	r3, [pc, #52]	; 1bc <register_tm_clones+0x44>
     184:	e0603003 	rsb	r3, r0, r3
     188:	e1a03143 	asr	r3, r3, #2
     18c:	e0833fa3 	add	r3, r3, r3, lsr #31
     190:	e1b010c3 	asrs	r1, r3, #1
     194:	1a000001 	bne	1a0 <register_tm_clones+0x28>
     198:	e8bd4008 	pop	{r3, lr}
     19c:	e12fff1e 	bx	lr
     1a0:	e59f2018 	ldr	r2, [pc, #24]	; 1c0 <register_tm_clones+0x48>
     1a4:	e3520000 	cmp	r2, #0
     1a8:	0afffffa 	beq	198 <register_tm_clones+0x20>
     1ac:	e1a0e00f 	mov	lr, pc
     1b0:	e12fff12 	bx	r2
     1b4:	eafffff7 	b	198 <register_tm_clones+0x20>
     1b8:	0002bb98 	.word	0x0002bb98
     1bc:	0002bb98 	.word	0x0002bb98
     1c0:	00000000 	.word	0x00000000

000001c4 <__do_global_dtors_aux>:
     1c4:	e92d4010 	push	{r4, lr}
     1c8:	e59f402c 	ldr	r4, [pc, #44]	; 1fc <__do_global_dtors_aux+0x38>
     1cc:	e5d43000 	ldrb	r3, [r4]
     1d0:	e3530000 	cmp	r3, #0
     1d4:	1a000006 	bne	1f4 <__do_global_dtors_aux+0x30>
     1d8:	ebffffd5 	bl	134 <deregister_tm_clones>
     1dc:	e59f301c 	ldr	r3, [pc, #28]	; 200 <__do_global_dtors_aux+0x3c>
     1e0:	e3530000 	cmp	r3, #0
     1e4:	159f0018 	ldrne	r0, [pc, #24]	; 204 <__do_global_dtors_aux+0x40>
     1e8:	1320f000 	nopne	{0}
     1ec:	e3a03001 	mov	r3, #1
     1f0:	e5c43000 	strb	r3, [r4]
     1f4:	e8bd4010 	pop	{r4, lr}
     1f8:	e12fff1e 	bx	lr
     1fc:	0002bb98 	.word	0x0002bb98
     200:	00000000 	.word	0x00000000
     204:	0000119c 	.word	0x0000119c

00000208 <frame_dummy>:
     208:	e92d4008 	push	{r3, lr}
     20c:	e59f3034 	ldr	r3, [pc, #52]	; 248 <frame_dummy+0x40>
     210:	e3530000 	cmp	r3, #0
     214:	159f0030 	ldrne	r0, [pc, #48]	; 24c <frame_dummy+0x44>
     218:	159f1030 	ldrne	r1, [pc, #48]	; 250 <frame_dummy+0x48>
     21c:	1320f000 	nopne	{0}
     220:	e59f002c 	ldr	r0, [pc, #44]	; 254 <frame_dummy+0x4c>
     224:	e5903000 	ldr	r3, [r0]
     228:	e3530000 	cmp	r3, #0
     22c:	0a000003 	beq	240 <frame_dummy+0x38>
     230:	e59f3020 	ldr	r3, [pc, #32]	; 258 <frame_dummy+0x50>
     234:	e3530000 	cmp	r3, #0
     238:	11a0e00f 	movne	lr, pc
     23c:	112fff13 	bxne	r3
     240:	e8bd4008 	pop	{r3, lr}
     244:	eaffffcb 	b	178 <register_tm_clones>
     248:	00000000 	.word	0x00000000
     24c:	0000119c 	.word	0x0000119c
     250:	0002bb9c 	.word	0x0002bb9c
     254:	0002b750 	.word	0x0002b750
     258:	00000000 	.word	0x00000000

0000025c <changePlayerPos>:

}



void changePlayerPos() {
     25c:	e92d0030 	push	{r4, r5}
     260:	e30b3bb4 	movw	r3, #48052	; 0xbbb4
     264:	e3403002 	movt	r3, #2
     268:	e5930000 	ldr	r0, [r3]
     26c:	e593c004 	ldr	r12, [r3, #4]
     270:	e5934008 	ldr	r4, [r3, #8]
     274:	e593500c 	ldr	r5, [r3, #12]
     278:	e5932010 	ldr	r2, [r3, #16]
     27c:	e5931014 	ldr	r1, [r3, #20]

	int i, j;

	for (i = 0; i < 3; i++) {
		for (j = 0; j < 3; j++) {
			if (boards[i][j] == 1) {
     280:	e5933018 	ldr	r3, [r3, #24]
     284:	e3530001 	cmp	r3, #1
     288:	1a000005 	bne	2a4 <changePlayerPos+0x48>
				player_x = 114 + (i * 30);
				player_y = 74 + (j * 30);
     28c:	e3a0104a 	mov	r1, #74	; 0x4a
	int i, j;

	for (i = 0; i < 3; i++) {
		for (j = 0; j < 3; j++) {
			if (boards[i][j] == 1) {
				player_x = 114 + (i * 30);
     290:	e3a02072 	mov	r2, #114	; 0x72
				player_y = 74 + (j * 30);
     294:	e1a05001 	mov	r5, r1
	int i, j;

	for (i = 0; i < 3; i++) {
		for (j = 0; j < 3; j++) {
			if (boards[i][j] == 1) {
				player_x = 114 + (i * 30);
     298:	e1a04002 	mov	r4, r2
				player_y = 74 + (j * 30);
     29c:	e1a0c001 	mov	r12, r1
	int i, j;

	for (i = 0; i < 3; i++) {
		for (j = 0; j < 3; j++) {
			if (boards[i][j] == 1) {
				player_x = 114 + (i * 30);
     2a0:	e1a00002 	mov	r0, r2

	int i, j;

	for (i = 0; i < 3; i++) {
		for (j = 0; j < 3; j++) {
			if (boards[i][j] == 1) {
     2a4:	e30b3bb4 	movw	r3, #48052	; 0xbbb4
     2a8:	e3403002 	movt	r3, #2
     2ac:	e593301c 	ldr	r3, [r3, #28]
     2b0:	e3530001 	cmp	r3, #1
     2b4:	1a000005 	bne	2d0 <changePlayerPos+0x74>
				player_x = 114 + (i * 30);
				player_y = 74 + (j * 30);
     2b8:	e3a01068 	mov	r1, #104	; 0x68
	int i, j;

	for (i = 0; i < 3; i++) {
		for (j = 0; j < 3; j++) {
			if (boards[i][j] == 1) {
				player_x = 114 + (i * 30);
     2bc:	e3a02072 	mov	r2, #114	; 0x72
				player_y = 74 + (j * 30);
     2c0:	e1a05001 	mov	r5, r1
	int i, j;

	for (i = 0; i < 3; i++) {
		for (j = 0; j < 3; j++) {
			if (boards[i][j] == 1) {
				player_x = 114 + (i * 30);
     2c4:	e1a04002 	mov	r4, r2
				player_y = 74 + (j * 30);
     2c8:	e1a0c001 	mov	r12, r1
	int i, j;

	for (i = 0; i < 3; i++) {
		for (j = 0; j < 3; j++) {
			if (boards[i][j] == 1) {
				player_x = 114 + (i * 30);
     2cc:	e1a00002 	mov	r0, r2

	int i, j;

	for (i = 0; i < 3; i++) {
		for (j = 0; j < 3; j++) {
			if (boards[i][j] == 1) {
     2d0:	e30b3bb4 	movw	r3, #48052	; 0xbbb4
     2d4:	e3403002 	movt	r3, #2
     2d8:	e5933020 	ldr	r3, [r3, #32]
     2dc:	e3530001 	cmp	r3, #1
     2e0:	1a000005 	bne	2fc <__cs3_region_zero_size_ram+0x14>
				player_x = 114 + (i * 30);
				player_y = 74 + (j * 30);
     2e4:	e3a01086 	mov	r1, #134	; 0x86
	int i, j;

	for (i = 0; i < 3; i++) {
		for (j = 0; j < 3; j++) {
			if (boards[i][j] == 1) {
				player_x = 114 + (i * 30);
     2e8:	e3a02072 	mov	r2, #114	; 0x72
				player_y = 74 + (j * 30);
     2ec:	e1a05001 	mov	r5, r1
	int i, j;

	for (i = 0; i < 3; i++) {
		for (j = 0; j < 3; j++) {
			if (boards[i][j] == 1) {
				player_x = 114 + (i * 30);
     2f0:	e1a04002 	mov	r4, r2
				player_y = 74 + (j * 30);
     2f4:	e1a0c001 	mov	r12, r1
	int i, j;

	for (i = 0; i < 3; i++) {
		for (j = 0; j < 3; j++) {
			if (boards[i][j] == 1) {
				player_x = 114 + (i * 30);
     2f8:	e1a00002 	mov	r0, r2

	int i, j;

	for (i = 0; i < 3; i++) {
		for (j = 0; j < 3; j++) {
			if (boards[i][j] == 1) {
     2fc:	e30b3bb4 	movw	r3, #48052	; 0xbbb4
     300:	e3403002 	movt	r3, #2
     304:	e5933024 	ldr	r3, [r3, #36]	; 0x24
     308:	e3530001 	cmp	r3, #1
     30c:	1a000005 	bne	328 <__cs3_region_zero_size_ram+0x40>
				player_x = 114 + (i * 30);
				player_y = 74 + (j * 30);
     310:	e3a0104a 	mov	r1, #74	; 0x4a
	int i, j;

	for (i = 0; i < 3; i++) {
		for (j = 0; j < 3; j++) {
			if (boards[i][j] == 1) {
				player_x = 114 + (i * 30);
     314:	e3a02090 	mov	r2, #144	; 0x90
				player_y = 74 + (j * 30);
     318:	e1a05001 	mov	r5, r1
	int i, j;

	for (i = 0; i < 3; i++) {
		for (j = 0; j < 3; j++) {
			if (boards[i][j] == 1) {
				player_x = 114 + (i * 30);
     31c:	e1a04002 	mov	r4, r2
				player_y = 74 + (j * 30);
     320:	e1a0c001 	mov	r12, r1
	int i, j;

	for (i = 0; i < 3; i++) {
		for (j = 0; j < 3; j++) {
			if (boards[i][j] == 1) {
				player_x = 114 + (i * 30);
     324:	e1a00002 	mov	r0, r2

	int i, j;

	for (i = 0; i < 3; i++) {
		for (j = 0; j < 3; j++) {
			if (boards[i][j] == 1) {
     328:	e30b3bb4 	movw	r3, #48052	; 0xbbb4
     32c:	e3403002 	movt	r3, #2
     330:	e5933028 	ldr	r3, [r3, #40]	; 0x28
     334:	e3530001 	cmp	r3, #1
     338:	1a000005 	bne	354 <__cs3_region_zero_size_ram+0x6c>
				player_x = 114 + (i * 30);
				player_y = 74 + (j * 30);
     33c:	e3a01068 	mov	r1, #104	; 0x68
	int i, j;

	for (i = 0; i < 3; i++) {
		for (j = 0; j < 3; j++) {
			if (boards[i][j] == 1) {
				player_x = 114 + (i * 30);
     340:	e3a02090 	mov	r2, #144	; 0x90
				player_y = 74 + (j * 30);
     344:	e1a05001 	mov	r5, r1
	int i, j;

	for (i = 0; i < 3; i++) {
		for (j = 0; j < 3; j++) {
			if (boards[i][j] == 1) {
				player_x = 114 + (i * 30);
     348:	e1a04002 	mov	r4, r2
				player_y = 74 + (j * 30);
     34c:	e1a0c001 	mov	r12, r1
	int i, j;

	for (i = 0; i < 3; i++) {
		for (j = 0; j < 3; j++) {
			if (boards[i][j] == 1) {
				player_x = 114 + (i * 30);
     350:	e1a00002 	mov	r0, r2

	int i, j;

	for (i = 0; i < 3; i++) {
		for (j = 0; j < 3; j++) {
			if (boards[i][j] == 1) {
     354:	e30b3bb4 	movw	r3, #48052	; 0xbbb4
     358:	e3403002 	movt	r3, #2
     35c:	e593302c 	ldr	r3, [r3, #44]	; 0x2c
     360:	e3530001 	cmp	r3, #1
     364:	1a000005 	bne	380 <__cs3_region_zero_size_ram+0x98>
				player_x = 114 + (i * 30);
				player_y = 74 + (j * 30);
     368:	e3a01086 	mov	r1, #134	; 0x86
	int i, j;

	for (i = 0; i < 3; i++) {
		for (j = 0; j < 3; j++) {
			if (boards[i][j] == 1) {
				player_x = 114 + (i * 30);
     36c:	e3a02090 	mov	r2, #144	; 0x90
				player_y = 74 + (j * 30);
     370:	e1a05001 	mov	r5, r1
	int i, j;

	for (i = 0; i < 3; i++) {
		for (j = 0; j < 3; j++) {
			if (boards[i][j] == 1) {
				player_x = 114 + (i * 30);
     374:	e1a04002 	mov	r4, r2
				player_y = 74 + (j * 30);
     378:	e1a0c001 	mov	r12, r1
	int i, j;

	for (i = 0; i < 3; i++) {
		for (j = 0; j < 3; j++) {
			if (boards[i][j] == 1) {
				player_x = 114 + (i * 30);
     37c:	e1a00002 	mov	r0, r2

	int i, j;

	for (i = 0; i < 3; i++) {
		for (j = 0; j < 3; j++) {
			if (boards[i][j] == 1) {
     380:	e30b3bb4 	movw	r3, #48052	; 0xbbb4
     384:	e3403002 	movt	r3, #2
     388:	e5933030 	ldr	r3, [r3, #48]	; 0x30
     38c:	e3530001 	cmp	r3, #1
     390:	1a000015 	bne	3ec <__cs3_region_zero_size_ram+0x104>
     394:	ea00000e 	b	3d4 <__cs3_region_zero_size_ram+0xec>
				player_x = 114 + (i * 30);
				player_y = 74 + (j * 30);
     398:	e3a01086 	mov	r1, #134	; 0x86
	int i, j;

	for (i = 0; i < 3; i++) {
		for (j = 0; j < 3; j++) {
			if (boards[i][j] == 1) {
				player_x = 114 + (i * 30);
     39c:	e3a020ae 	mov	r2, #174	; 0xae
				player_y = 74 + (j * 30);
     3a0:	e1a05001 	mov	r5, r1
	int i, j;

	for (i = 0; i < 3; i++) {
		for (j = 0; j < 3; j++) {
			if (boards[i][j] == 1) {
				player_x = 114 + (i * 30);
     3a4:	e1a04002 	mov	r4, r2
				player_y = 74 + (j * 30);
     3a8:	e1a0c001 	mov	r12, r1
	int i, j;

	for (i = 0; i < 3; i++) {
		for (j = 0; j < 3; j++) {
			if (boards[i][j] == 1) {
				player_x = 114 + (i * 30);
     3ac:	e1a00002 	mov	r0, r2
     3b0:	e30b3bb4 	movw	r3, #48052	; 0xbbb4
     3b4:	e3403002 	movt	r3, #2
     3b8:	e5830000 	str	r0, [r3]
     3bc:	e583c004 	str	r12, [r3, #4]
     3c0:	e5834008 	str	r4, [r3, #8]
     3c4:	e583500c 	str	r5, [r3, #12]
     3c8:	e5832010 	str	r2, [r3, #16]
     3cc:	e5831014 	str	r1, [r3, #20]
     3d0:	ea000016 	b	430 <__cs3_region_zero_size_ram+0x148>
				player_y = 74 + (j * 30);
     3d4:	e3a0104a 	mov	r1, #74	; 0x4a
	int i, j;

	for (i = 0; i < 3; i++) {
		for (j = 0; j < 3; j++) {
			if (boards[i][j] == 1) {
				player_x = 114 + (i * 30);
     3d8:	e3a020ae 	mov	r2, #174	; 0xae
				player_y = 74 + (j * 30);
     3dc:	e1a05001 	mov	r5, r1
	int i, j;

	for (i = 0; i < 3; i++) {
		for (j = 0; j < 3; j++) {
			if (boards[i][j] == 1) {
				player_x = 114 + (i * 30);
     3e0:	e1a04002 	mov	r4, r2
				player_y = 74 + (j * 30);
     3e4:	e1a0c001 	mov	r12, r1
	int i, j;

	for (i = 0; i < 3; i++) {
		for (j = 0; j < 3; j++) {
			if (boards[i][j] == 1) {
				player_x = 114 + (i * 30);
     3e8:	e1a00002 	mov	r0, r2

	int i, j;

	for (i = 0; i < 3; i++) {
		for (j = 0; j < 3; j++) {
			if (boards[i][j] == 1) {
     3ec:	e30b3bb4 	movw	r3, #48052	; 0xbbb4
     3f0:	e3403002 	movt	r3, #2
     3f4:	e5933034 	ldr	r3, [r3, #52]	; 0x34
     3f8:	e3530001 	cmp	r3, #1
     3fc:	1a000005 	bne	418 <__cs3_region_zero_size_ram+0x130>
				player_x = 114 + (i * 30);
				player_y = 74 + (j * 30);
     400:	e3a01068 	mov	r1, #104	; 0x68
	int i, j;

	for (i = 0; i < 3; i++) {
		for (j = 0; j < 3; j++) {
			if (boards[i][j] == 1) {
				player_x = 114 + (i * 30);
     404:	e3a020ae 	mov	r2, #174	; 0xae
				player_y = 74 + (j * 30);
     408:	e1a05001 	mov	r5, r1
	int i, j;

	for (i = 0; i < 3; i++) {
		for (j = 0; j < 3; j++) {
			if (boards[i][j] == 1) {
				player_x = 114 + (i * 30);
     40c:	e1a04002 	mov	r4, r2
				player_y = 74 + (j * 30);
     410:	e1a0c001 	mov	r12, r1
	int i, j;

	for (i = 0; i < 3; i++) {
		for (j = 0; j < 3; j++) {
			if (boards[i][j] == 1) {
				player_x = 114 + (i * 30);
     414:	e1a00002 	mov	r0, r2

	int i, j;

	for (i = 0; i < 3; i++) {
		for (j = 0; j < 3; j++) {
			if (boards[i][j] == 1) {
     418:	e30b3bb4 	movw	r3, #48052	; 0xbbb4
     41c:	e3403002 	movt	r3, #2
     420:	e5933038 	ldr	r3, [r3, #56]	; 0x38
     424:	e3530001 	cmp	r3, #1
     428:	1affffe0 	bne	3b0 <__cs3_region_zero_size_ram+0xc8>
     42c:	eaffffd9 	b	398 <__cs3_region_zero_size_ram+0xb0>


		}
	}

}
     430:	e8bd0030 	pop	{r4, r5}
     434:	e12fff1e 	bx	lr

00000438 <update>:


}


void update() {
     438:	e92d45f8 	push	{r3, r4, r5, r6, r7, r8, r10, lr}
     43c:	e3a04000 	mov	r4, #0

	int i;

	for (i = 0; i < 12; i++) {

		if (pixel_buffer_start == 0xC0000000) {
     440:	e30b5bb4 	movw	r5, #48052	; 0xbbb4
     444:	e3405002 	movt	r5, #2
			obstacal_y[i] = 0 - rand() % 300;
			continue;
		}

		if (obstacal_y[i] > 240 && obstacleMov_y[i] == 1) {
			obstacleMov_y[i] = -1;
     448:	e3e08000 	mvn	r8, #0
			obstacal_y[i] = 240 + rand() % 300;
     44c:	e30861b5 	movw	r6, #33205	; 0x81b5
     450:	e3416b4e 	movt	r6, #6990	; 0x1b4e
     454:	e3a07f4b 	mov	r7, #300	; 0x12c
			obstacal_x[i] = 0 - rand() % 300;
			continue;
		}

		if (obstacal_y[i] < 0 && obstacleMov_y[i] == -1) {
			obstacleMov_y[i] = 1;
     458:	e3a0a001 	mov	r10, #1

	int i;

	for (i = 0; i < 12; i++) {

		if (pixel_buffer_start == 0xC0000000) {
     45c:	e595303c 	ldr	r3, [r5, #60]	; 0x3c
     460:	e3530103 	cmp	r3, #-1073741824	; 0xc0000000
     464:	1a000008 	bne	48c <update+0x54>
			obstacal_SDRAM_x[i] = obstacal_x[i];
     468:	e2853040 	add	r3, r5, #64	; 0x40
     46c:	e2852090 	add	r2, r5, #144	; 0x90
     470:	e7942002 	ldr	r2, [r4, r2]
     474:	e7842003 	str	r2, [r4, r3]
			obstacal_SDRAM_y[i] = obstacal_y[i];
     478:	e28530e0 	add	r3, r5, #224	; 0xe0
     47c:	e2852e13 	add	r2, r5, #304	; 0x130
     480:	e7942002 	ldr	r2, [r4, r2]
     484:	e7842003 	str	r2, [r4, r3]
     488:	ea00000a 	b	4b8 <update+0x80>
		}
		else if (pixel_buffer_start == 0xC8000000) {
     48c:	e595303c 	ldr	r3, [r5, #60]	; 0x3c
     490:	e3530332 	cmp	r3, #-939524096	; 0xc8000000
     494:	1a000007 	bne	4b8 <update+0x80>
			obstacal_ONCHIP_x[i] = obstacal_x[i];
     498:	e2853d06 	add	r3, r5, #384	; 0x180
     49c:	e2852090 	add	r2, r5, #144	; 0x90
     4a0:	e7942002 	ldr	r2, [r4, r2]
     4a4:	e7842003 	str	r2, [r4, r3]
			obstacal_ONCHIP_y[i] = obstacal_y[i];
     4a8:	e2853e1d 	add	r3, r5, #464	; 0x1d0
     4ac:	e2852e13 	add	r2, r5, #304	; 0x130
     4b0:	e7942002 	ldr	r2, [r4, r2]
     4b4:	e7842003 	str	r2, [r4, r3]
		}



		obstacal_x[i] += obstacleMov_x[i];
     4b8:	e2853e22 	add	r3, r5, #544	; 0x220
     4bc:	e7940003 	ldr	r0, [r4, r3]
     4c0:	e2852090 	add	r2, r5, #144	; 0x90
     4c4:	e7943002 	ldr	r3, [r4, r2]
     4c8:	e0803003 	add	r3, r0, r3
     4cc:	e7843002 	str	r3, [r4, r2]
		obstacal_y[i] += obstacleMov_y[i];
     4d0:	e2852e27 	add	r2, r5, #624	; 0x270
     4d4:	e794c002 	ldr	r12, [r4, r2]
     4d8:	e2851e13 	add	r1, r5, #304	; 0x130
     4dc:	e7942001 	ldr	r2, [r4, r1]
     4e0:	e08c2002 	add	r2, r12, r2
     4e4:	e7842001 	str	r2, [r4, r1]

    if(obstacal_x[i] == player_x && obstacal_y[i] == player_y){
     4e8:	e5951000 	ldr	r1, [r5]
     4ec:	e1530001 	cmp	r3, r1
     4f0:	1a000007 	bne	514 <update+0xdc>
     4f4:	e5951004 	ldr	r1, [r5, #4]
     4f8:	e1520001 	cmp	r2, r1
     4fc:	1a000004 	bne	514 <update+0xdc>
      over = true;
     500:	e30b3bb4 	movw	r3, #48052	; 0xbbb4
     504:	e3403002 	movt	r3, #2
     508:	e3a02001 	mov	r2, #1
     50c:	e5c322c0 	strb	r2, [r3, #704]	; 0x2c0
      break;
     510:	e8bd85f8 	pop	{r3, r4, r5, r6, r7, r8, r10, pc}
    }

		if (obstacal_x[i] > 320 && obstacleMov_x[i] == 1) {
     514:	e3530d05 	cmp	r3, #320	; 0x140
     518:	da00000d 	ble	554 <update+0x11c>
     51c:	e3500001 	cmp	r0, #1
     520:	1a00000b 	bne	554 <update+0x11c>
			obstacleMov_x[i] = -1;
     524:	e2853e22 	add	r3, r5, #544	; 0x220
     528:	e7848003 	str	r8, [r4, r3]
			obstacal_x[i] = 310 + rand() % 300;
     52c:	eb00020b 	bl	d60 <rand>
     530:	e2852090 	add	r2, r5, #144	; 0x90
     534:	e0c13096 	smull	r3, r1, r6, r0
     538:	e1a03fc0 	asr	r3, r0, #31
     53c:	e06332c1 	rsb	r3, r3, r1, asr #5
     540:	e0630397 	mls	r3, r7, r3, r0
     544:	e2833f4d 	add	r3, r3, #308	; 0x134
     548:	e2833002 	add	r3, r3, #2
     54c:	e7843002 	str	r3, [r4, r2]
			continue;
     550:	ea00002b 	b	604 <update+0x1cc>
		}

		if (obstacal_x[i] < 0 && obstacleMov_x[i] == -1) {
     554:	e3530000 	cmp	r3, #0
     558:	aa00000c 	bge	590 <update+0x158>
     55c:	e3700001 	cmn	r0, #1
     560:	1a00000a 	bne	590 <update+0x158>
			obstacleMov_x[i] = 1;
     564:	e2853e22 	add	r3, r5, #544	; 0x220
     568:	e784a003 	str	r10, [r4, r3]
			obstacal_x[i] = 0 - rand() % 300;
     56c:	eb0001fb 	bl	d60 <rand>
     570:	e2853090 	add	r3, r5, #144	; 0x90
     574:	e0c12096 	smull	r2, r1, r6, r0
     578:	e1a02fc0 	asr	r2, r0, #31
     57c:	e06222c1 	rsb	r2, r2, r1, asr #5
     580:	e0600297 	mls	r0, r7, r2, r0
     584:	e2600000 	rsb	r0, r0, #0
     588:	e7840003 	str	r0, [r4, r3]
			continue;
     58c:	ea00001c 	b	604 <update+0x1cc>
		}

		if (obstacal_y[i] < 0 && obstacleMov_y[i] == -1) {
     590:	e3520000 	cmp	r2, #0
     594:	aa00000c 	bge	5cc <update+0x194>
     598:	e37c0001 	cmn	r12, #1
     59c:	1a00000a 	bne	5cc <update+0x194>
			obstacleMov_y[i] = 1;
     5a0:	e2853e27 	add	r3, r5, #624	; 0x270
     5a4:	e784a003 	str	r10, [r4, r3]
			obstacal_y[i] = 0 - rand() % 300;
     5a8:	eb0001ec 	bl	d60 <rand>
     5ac:	e2853e13 	add	r3, r5, #304	; 0x130
     5b0:	e0c12096 	smull	r2, r1, r6, r0
     5b4:	e1a02fc0 	asr	r2, r0, #31
     5b8:	e06222c1 	rsb	r2, r2, r1, asr #5
     5bc:	e0600297 	mls	r0, r7, r2, r0
     5c0:	e2600000 	rsb	r0, r0, #0
     5c4:	e7840003 	str	r0, [r4, r3]
			continue;
     5c8:	ea00000d 	b	604 <update+0x1cc>
		}

		if (obstacal_y[i] > 240 && obstacleMov_y[i] == 1) {
     5cc:	e35200f0 	cmp	r2, #240	; 0xf0
     5d0:	da00000b 	ble	604 <update+0x1cc>
     5d4:	e35c0001 	cmp	r12, #1
     5d8:	1a000009 	bne	604 <update+0x1cc>
			obstacleMov_y[i] = -1;
     5dc:	e2853e27 	add	r3, r5, #624	; 0x270
     5e0:	e7848003 	str	r8, [r4, r3]
			obstacal_y[i] = 240 + rand() % 300;
     5e4:	eb0001dd 	bl	d60 <rand>
     5e8:	e2853e13 	add	r3, r5, #304	; 0x130
     5ec:	e0c12096 	smull	r2, r1, r6, r0
     5f0:	e1a02fc0 	asr	r2, r0, #31
     5f4:	e06222c1 	rsb	r2, r2, r1, asr #5
     5f8:	e0600297 	mls	r0, r7, r2, r0
     5fc:	e28000f0 	add	r0, r0, #240	; 0xf0
     600:	e7840003 	str	r0, [r4, r3]
     604:	e2844004 	add	r4, r4, #4

void update() {

	int i;

	for (i = 0; i < 12; i++) {
     608:	e3540030 	cmp	r4, #48	; 0x30
     60c:	1affff92 	bne	45c <update+0x24>
     610:	e8bd85f8 	pop	{r3, r4, r5, r6, r7, r8, r10, pc}

00000614 <plot_pixel>:



void plot_pixel(int x, int y, short int line_color)
{
	*(short int *)(pixel_buffer_start + (y << 10) + (x << 1)) = line_color;
     614:	e30b3bb4 	movw	r3, #48052	; 0xbbb4
     618:	e3403002 	movt	r3, #2
     61c:	e593303c 	ldr	r3, [r3, #60]	; 0x3c
     620:	e1a00080 	lsl	r0, r0, #1
     624:	e0831501 	add	r1, r3, r1, lsl #10
     628:	e18120b0 	strh	r2, [r1, r0]
     62c:	e12fff1e 	bx	lr

00000630 <drawBoard>:
	drawPlayer(player_x, player_y);
	//draw player subroutine

}

void drawBoard(int xPos, int yPos) {
     630:	e92d4ff8 	push	{r3, r4, r5, r6, r7, r8, r9, r10, r11, lr}
     634:	e1a07000 	mov	r7, r0
     638:	e1a06001 	mov	r6, r1
     63c:	e3e08000 	mvn	r8, #0
     640:	e301a1a0 	movw	r10, #4512	; 0x11a0
     644:	e340a000 	movt	r10, #0
     648:	e3a0b000 	mov	r11, #0

	int i, j;

	for (i = 0; i < 90; i++) {
     64c:	e3019fa3 	movw	r9, #8099	; 0x1fa3
     650:	ea00000a 	b	680 <drawBoard+0x50>
		for (j = 0; j < 90; j++) {

			plot_pixel(xPos + j, yPos + i, board[i * 90 + j]);
     654:	e0840007 	add	r0, r4, r7
     658:	e1a01006 	mov	r1, r6
     65c:	e1f520f2 	ldrsh	r2, [r5, #2]!
     660:	ebffffeb 	bl	614 <plot_pixel>
void drawBoard(int xPos, int yPos) {

	int i, j;

	for (i = 0; i < 90; i++) {
		for (j = 0; j < 90; j++) {
     664:	e2844001 	add	r4, r4, #1
     668:	e354005a 	cmp	r4, #90	; 0x5a
     66c:	1afffff8 	bne	654 <drawBoard+0x24>
     670:	e288805a 	add	r8, r8, #90	; 0x5a
     674:	e2866001 	add	r6, r6, #1

void drawBoard(int xPos, int yPos) {

	int i, j;

	for (i = 0; i < 90; i++) {
     678:	e1580009 	cmp	r8, r9
     67c:	08bd8ff8 	popeq	{r3, r4, r5, r6, r7, r8, r9, r10, r11, pc}
	drawPlayer(player_x, player_y);
	//draw player subroutine

}

void drawBoard(int xPos, int yPos) {
     680:	e08a5088 	add	r5, r10, r8, lsl #1
     684:	e1a0400b 	mov	r4, r11
     688:	eafffff1 	b	654 <drawBoard+0x24>

0000068c <drawPlayer>:

}



void drawPlayer(int x, int y) {
     68c:	e92d4ff8 	push	{r3, r4, r5, r6, r7, r8, r9, r10, r11, lr}
     690:	e1a07000 	mov	r7, r0
     694:	e1a06001 	mov	r6, r1
     698:	e3e08000 	mvn	r8, #0
     69c:	e59fb040 	ldr	r11, [pc, #64]	; 6e4 <drawPlayer+0x58>
     6a0:	e3a09000 	mov	r9, #0

	int i, j;

	for (i = 0; i < 30; i++) {
     6a4:	e300a383 	movw	r10, #899	; 0x383
     6a8:	ea00000a 	b	6d8 <drawPlayer+0x4c>
		for (j = 0; j < 30; j++) {

			plot_pixel(x + j, y + i, player[i * 30 + j]);
     6ac:	e0840007 	add	r0, r4, r7
     6b0:	e1a01006 	mov	r1, r6
     6b4:	e1f520f2 	ldrsh	r2, [r5, #2]!
     6b8:	ebffffd5 	bl	614 <plot_pixel>
void drawPlayer(int x, int y) {

	int i, j;

	for (i = 0; i < 30; i++) {
		for (j = 0; j < 30; j++) {
     6bc:	e2844001 	add	r4, r4, #1
     6c0:	e354001e 	cmp	r4, #30
     6c4:	1afffff8 	bne	6ac <drawPlayer+0x20>
     6c8:	e288801e 	add	r8, r8, #30
     6cc:	e2866001 	add	r6, r6, #1

void drawPlayer(int x, int y) {

	int i, j;

	for (i = 0; i < 30; i++) {
     6d0:	e158000a 	cmp	r8, r10
     6d4:	08bd8ff8 	popeq	{r3, r4, r5, r6, r7, r8, r9, r10, r11, pc}

}



void drawPlayer(int x, int y) {
     6d8:	e08b5088 	add	r5, r11, r8, lsl #1
     6dc:	e1a04009 	mov	r4, r9
     6e0:	eafffff1 	b	6ac <drawPlayer+0x20>
     6e4:	000050e8 	.word	0x000050e8

000006e8 <drawObstacle>:
	}

}
//hi

void drawObstacle(int x, int y) {
     6e8:	e92d4ff8 	push	{r3, r4, r5, r6, r7, r8, r9, r10, r11, lr}
     6ec:	e1a08000 	mov	r8, r0
     6f0:	e1a07001 	mov	r7, r1
     6f4:	e3e0a000 	mvn	r10, #0
     6f8:	e59fb050 	ldr	r11, [pc, #80]	; 750 <drawObstacle+0x68>
     6fc:	e3a09000 	mov	r9, #0
	int i, j;

	for (i = 0; i < 30; i++) {
		for (j = 0; j < 30; j++) {

			if (obstacle[i * 30 + j] != 0xFFFF) {
     700:	e30f6fff 	movw	r6, #65535	; 0xffff
     704:	ea00000e 	b	744 <drawObstacle+0x5c>
     708:	e1f520b2 	ldrh	r2, [r5, #2]!
     70c:	e1520006 	cmp	r2, r6
     710:	0a000003 	beq	724 <drawObstacle+0x3c>
				plot_pixel(x + j, y + i, obstacle[i * 30 + j]); //only draw the color part
     714:	e0840008 	add	r0, r4, r8
     718:	e1a01007 	mov	r1, r7
     71c:	e6bf2072 	sxth	r2, r2
     720:	ebffffbb 	bl	614 <plot_pixel>
void drawObstacle(int x, int y) {

	int i, j;

	for (i = 0; i < 30; i++) {
		for (j = 0; j < 30; j++) {
     724:	e2844001 	add	r4, r4, #1
     728:	e354001e 	cmp	r4, #30
     72c:	1afffff5 	bne	708 <drawObstacle+0x20>
     730:	e28aa01e 	add	r10, r10, #30
     734:	e2877001 	add	r7, r7, #1

void drawObstacle(int x, int y) {

	int i, j;

	for (i = 0; i < 30; i++) {
     738:	e3003383 	movw	r3, #899	; 0x383
     73c:	e15a0003 	cmp	r10, r3
     740:	08bd8ff8 	popeq	{r3, r4, r5, r6, r7, r8, r9, r10, r11, pc}
	}

}
//hi

void drawObstacle(int x, int y) {
     744:	e08b508a 	add	r5, r11, r10, lsl #1
     748:	e1a04009 	mov	r4, r9
     74c:	eaffffed 	b	708 <drawObstacle+0x20>
     750:	000057f0 	.word	0x000057f0

00000754 <draw>:
	}


}

void draw() {
     754:	e92d4038 	push	{r3, r4, r5, lr}
     758:	e3a04000 	mov	r4, #0

	int i, j;

	for (i = 0; i < 12; i++) {
		if ((obstacal_x[i] >= 0 && obstacal_x[i] <= 320) && (obstacal_y[i] >= 0 && obstacal_y[i] <= 240)) {
     75c:	e30b5bb4 	movw	r5, #48052	; 0xbbb4
     760:	e3405002 	movt	r5, #2
     764:	e2853090 	add	r3, r5, #144	; 0x90
     768:	e7940003 	ldr	r0, [r4, r3]
     76c:	e3500d05 	cmp	r0, #320	; 0x140
     770:	8a000004 	bhi	788 <draw+0x34>
     774:	e2853e13 	add	r3, r5, #304	; 0x130
     778:	e7941003 	ldr	r1, [r4, r3]
     77c:	e35100f0 	cmp	r1, #240	; 0xf0
     780:	8a000000 	bhi	788 <draw+0x34>
			drawObstacle(obstacal_x[i], obstacal_y[i]);
     784:	ebffffd7 	bl	6e8 <drawObstacle>
     788:	e2844004 	add	r4, r4, #4

void draw() {

	int i, j;

	for (i = 0; i < 12; i++) {
     78c:	e3540030 	cmp	r4, #48	; 0x30
     790:	1afffff3 	bne	764 <draw+0x10>
		if ((obstacal_x[i] >= 0 && obstacal_x[i] <= 320) && (obstacal_y[i] >= 0 && obstacal_y[i] <= 240)) {
			drawObstacle(obstacal_x[i], obstacal_y[i]);
		}
	}

	drawPlayer(player_x, player_y);
     794:	e30b3bb4 	movw	r3, #48052	; 0xbbb4
     798:	e3403002 	movt	r3, #2
     79c:	e5930000 	ldr	r0, [r3]
     7a0:	e5931004 	ldr	r1, [r3, #4]
     7a4:	ebffffb8 	bl	68c <drawPlayer>
     7a8:	e8bd8038 	pop	{r3, r4, r5, pc}

000007ac <clearObstacle>:
		}
	}

}
// 0 is on chip 1 is SDRam
void clearObstacle() {
     7ac:	e92d45f8 	push	{r3, r4, r5, r6, r7, r8, r10, lr}

	int i;

	int type;

	if (pixel_buffer_start == 0xC0000000) {
     7b0:	e30b3bb4 	movw	r3, #48052	; 0xbbb4
     7b4:	e3403002 	movt	r3, #2
     7b8:	e593303c 	ldr	r3, [r3, #60]	; 0x3c
     7bc:	e3530103 	cmp	r3, #-1073741824	; 0xc0000000
     7c0:	0a00003d 	beq	8bc <clearObstacle+0x110>
		type = 1;
	}
	else if (pixel_buffer_start == 0xC8000000) {
     7c4:	e30b3bb4 	movw	r3, #48052	; 0xbbb4
     7c8:	e3403002 	movt	r3, #2
     7cc:	e593303c 	ldr	r3, [r3, #60]	; 0x3c
     7d0:	e3a05000 	mov	r5, #0
		}
	}

}
// 0 is on chip 1 is SDRam
void clearObstacle() {
     7d4:	e1a0a005 	mov	r10, r5
		for (i = 0; i < 12; i++) {
			int k, j;
			for (k = 0; k < 30; k++) {
				for (j = 0; j < 30; j++) {

					if (obstacal_ONCHIP_x[i] + j < 320 && obstacal_ONCHIP_x[i] + j >= 0
     7d8:	e30b6bb4 	movw	r6, #48052	; 0xbbb4
     7dc:	e3406002 	movt	r6, #2
     7e0:	e300713f 	movw	r7, #319	; 0x13f
     7e4:	ea000018 	b	84c <clearObstacle+0xa0>
     7e8:	e2863d06 	add	r3, r6, #384	; 0x180
     7ec:	e7950003 	ldr	r0, [r5, r3]
     7f0:	e0840000 	add	r0, r4, r0
     7f4:	e1500007 	cmp	r0, r7
     7f8:	8a000008 	bhi	820 <clearObstacle+0x74>
							&& obstacal_ONCHIP_y[i] + k < 240 && obstacal_ONCHIP_y[i] + k >= 0) {
     7fc:	e2863e1d 	add	r3, r6, #464	; 0x1d0
     800:	e7951003 	ldr	r1, [r5, r3]
     804:	e0881001 	add	r1, r8, r1
     808:	e35100ef 	cmp	r1, #239	; 0xef
     80c:	ca000003 	bgt	820 <clearObstacle+0x74>
     810:	e3510000 	cmp	r1, #0
     814:	ba000001 	blt	820 <clearObstacle+0x74>
						plot_pixel(obstacal_ONCHIP_x[i] + j, obstacal_ONCHIP_y[i] + k, 0x0000);
     818:	e1a0200a 	mov	r2, r10
     81c:	ebffff7c 	bl	614 <plot_pixel>

	if (type == 0) {
		for (i = 0; i < 12; i++) {
			int k, j;
			for (k = 0; k < 30; k++) {
				for (j = 0; j < 30; j++) {
     820:	e2844001 	add	r4, r4, #1
     824:	e354001e 	cmp	r4, #30
     828:	1affffee 	bne	7e8 <clearObstacle+0x3c>


	if (type == 0) {
		for (i = 0; i < 12; i++) {
			int k, j;
			for (k = 0; k < 30; k++) {
     82c:	e2888001 	add	r8, r8, #1
     830:	e358001e 	cmp	r8, #30
     834:	0a000001 	beq	840 <clearObstacle+0x94>
		}
	}

}
// 0 is on chip 1 is SDRam
void clearObstacle() {
     838:	e1a0400a 	mov	r4, r10
     83c:	eaffffe9 	b	7e8 <clearObstacle+0x3c>
     840:	e2855004 	add	r5, r5, #4




	if (type == 0) {
		for (i = 0; i < 12; i++) {
     844:	e3550030 	cmp	r5, #48	; 0x30
     848:	08bd85f8 	popeq	{r3, r4, r5, r6, r7, r8, r10, pc}
		}
	}

}
// 0 is on chip 1 is SDRam
void clearObstacle() {
     84c:	e1a0800a 	mov	r8, r10
     850:	eafffff8 	b	838 <clearObstacle+0x8c>
		for (i = 0; i < 12; i++) {
			int k, j;
			for (k = 0; k < 30; k++) {
				for (j = 0; j < 30; j++) {

					if (obstacal_SDRAM_x[i] + j < 320 && obstacal_SDRAM_x[i] + j >= 0
     854:	e2863040 	add	r3, r6, #64	; 0x40
     858:	e7950003 	ldr	r0, [r5, r3]
     85c:	e0840000 	add	r0, r4, r0
     860:	e1500007 	cmp	r0, r7
     864:	8a000008 	bhi	88c <clearObstacle+0xe0>
						&& obstacal_SDRAM_y[i] + k < 240 && obstacal_SDRAM_y[i] + k >= 0) {
     868:	e28630e0 	add	r3, r6, #224	; 0xe0
     86c:	e7951003 	ldr	r1, [r5, r3]
     870:	e0881001 	add	r1, r8, r1
     874:	e35100ef 	cmp	r1, #239	; 0xef
     878:	ca000003 	bgt	88c <clearObstacle+0xe0>
     87c:	e3510000 	cmp	r1, #0
     880:	ba000001 	blt	88c <clearObstacle+0xe0>
						plot_pixel(obstacal_SDRAM_x[i] + j, obstacal_SDRAM_y[i] + k, 0x0000);
     884:	e1a0200a 	mov	r2, r10
     888:	ebffff61 	bl	614 <plot_pixel>
	}
	else if (type == 1) {
		for (i = 0; i < 12; i++) {
			int k, j;
			for (k = 0; k < 30; k++) {
				for (j = 0; j < 30; j++) {
     88c:	e2844001 	add	r4, r4, #1
     890:	e354001e 	cmp	r4, #30
     894:	1affffee 	bne	854 <clearObstacle+0xa8>
		}
	}
	else if (type == 1) {
		for (i = 0; i < 12; i++) {
			int k, j;
			for (k = 0; k < 30; k++) {
     898:	e2888001 	add	r8, r8, #1
     89c:	e358001e 	cmp	r8, #30
     8a0:	0a000001 	beq	8ac <clearObstacle+0x100>





	if (type == 0) {
     8a4:	e1a0400a 	mov	r4, r10
     8a8:	eaffffe9 	b	854 <clearObstacle+0xa8>
     8ac:	e2855004 	add	r5, r5, #4
				}
			}
		}
	}
	else if (type == 1) {
		for (i = 0; i < 12; i++) {
     8b0:	e3550030 	cmp	r5, #48	; 0x30
     8b4:	1a000005 	bne	8d0 <clearObstacle+0x124>
     8b8:	e8bd85f8 	pop	{r3, r4, r5, r6, r7, r8, r10, pc}

	int i;

	int type;

	if (pixel_buffer_start == 0xC0000000) {
     8bc:	e3a05000 	mov	r5, #0





	if (type == 0) {
     8c0:	e1a0a005 	mov	r10, r5
		for (i = 0; i < 12; i++) {
			int k, j;
			for (k = 0; k < 30; k++) {
				for (j = 0; j < 30; j++) {

					if (obstacal_SDRAM_x[i] + j < 320 && obstacal_SDRAM_x[i] + j >= 0
     8c4:	e30b6bb4 	movw	r6, #48052	; 0xbbb4
     8c8:	e3406002 	movt	r6, #2
     8cc:	e300713f 	movw	r7, #319	; 0x13f





	if (type == 0) {
     8d0:	e1a0800a 	mov	r8, r10
     8d4:	eafffff2 	b	8a4 <clearObstacle+0xf8>

000008d8 <drawBackground>:
  }


}

void drawBackground() {
     8d8:	e92d4070 	push	{r4, r5, r6, lr}

	int i = 0;
     8dc:	e3a05000 	mov	r5, #0
  }


}

void drawBackground() {
     8e0:	e1a06005 	mov	r6, r5
     8e4:	ea000009 	b	910 <drawBackground+0x38>

	int i = 0;
	for (; i < 320; i++) {
		int j = 0;
		for (; j < 240; j++) {
			plot_pixel(i, j, 0x0000);
     8e8:	e1a00005 	mov	r0, r5
     8ec:	e1a01004 	mov	r1, r4
     8f0:	e1a02006 	mov	r2, r6
     8f4:	ebffff46 	bl	614 <plot_pixel>
void drawBackground() {

	int i = 0;
	for (; i < 320; i++) {
		int j = 0;
		for (; j < 240; j++) {
     8f8:	e2844001 	add	r4, r4, #1
     8fc:	e35400f0 	cmp	r4, #240	; 0xf0
     900:	1afffff8 	bne	8e8 <drawBackground+0x10>
}

void drawBackground() {

	int i = 0;
	for (; i < 320; i++) {
     904:	e2855001 	add	r5, r5, #1
     908:	e3550d05 	cmp	r5, #320	; 0x140
     90c:	08bd8070 	popeq	{r4, r5, r6, pc}
  }


}

void drawBackground() {
     910:	e1a04006 	mov	r4, r6
     914:	eafffff3 	b	8e8 <drawBackground+0x10>

00000918 <drawGameOver>:
return 0;


}

void drawGameOver(){
     918:	e92d45f8 	push	{r3, r4, r5, r6, r7, r8, r10, lr}

  int i = 0;
     91c:	e3a06000 	mov	r6, #0
  int j = 0;
     920:	e1a04006 	mov	r4, r6
return 0;


}

void drawGameOver(){
     924:	e59fa04c 	ldr	r10, [pc, #76]	; 978 <drawGameOver+0x60>
     928:	e1a08006 	mov	r8, r6
     92c:	ea00000a 	b	95c <drawGameOver+0x44>
  int i = 0;
  int j = 0;
  for (; i < 320; i++) {

    for (; j < 240; j++) {
      plot_pixel(i, j, gameOver[ j*320 + i]);
     930:	e1a00006 	mov	r0, r6
     934:	e1a01004 	mov	r1, r4
     938:	e19720f5 	ldrsh	r2, [r7, r5]
     93c:	ebffff34 	bl	614 <plot_pixel>

  int i = 0;
  int j = 0;
  for (; i < 320; i++) {

    for (; j < 240; j++) {
     940:	e2844001 	add	r4, r4, #1
     944:	e2855d0a 	add	r5, r5, #640	; 0x280
     948:	e35400f0 	cmp	r4, #240	; 0xf0
     94c:	1afffff7 	bne	930 <drawGameOver+0x18>

void drawGameOver(){

  int i = 0;
  int j = 0;
  for (; i < 320; i++) {
     950:	e2866001 	add	r6, r6, #1
     954:	e3560d05 	cmp	r6, #320	; 0x140
     958:	08bd85f8 	popeq	{r3, r4, r5, r6, r7, r8, r10, pc}

    for (; j < 240; j++) {
     95c:	e35400ef 	cmp	r4, #239	; 0xef
     960:	cafffffa 	bgt	950 <drawGameOver+0x38>
return 0;


}

void drawGameOver(){
     964:	e0847104 	add	r7, r4, r4, lsl #2
     968:	e0867307 	add	r7, r6, r7, lsl #6
     96c:	e08a7087 	add	r7, r10, r7, lsl #1
     970:	e1a05008 	mov	r5, r8
     974:	eaffffed 	b	930 <drawGameOver+0x18>
     978:	00005ef8 	.word	0x00005ef8

0000097c <clear_screen>:
{
	*(short int *)(pixel_buffer_start + (y << 10) + (x << 1)) = line_color;
}


void clear_screen() {
     97c:	e92d4070 	push	{r4, r5, r6, lr}
	int i = 0;
     980:	e3a05000 	mov	r5, #0
{
	*(short int *)(pixel_buffer_start + (y << 10) + (x << 1)) = line_color;
}


void clear_screen() {
     984:	e1a06005 	mov	r6, r5
     988:	ea000009 	b	9b4 <clear_screen+0x38>
	int i = 0;
	for (; i < 320; i++) {
		int j = 0;
		for (; j < 240; j++) {
			plot_pixel(i, j, 0x0000);
     98c:	e1a00005 	mov	r0, r5
     990:	e1a01004 	mov	r1, r4
     994:	e1a02006 	mov	r2, r6
     998:	ebffff1d 	bl	614 <plot_pixel>

void clear_screen() {
	int i = 0;
	for (; i < 320; i++) {
		int j = 0;
		for (; j < 240; j++) {
     99c:	e2844001 	add	r4, r4, #1
     9a0:	e35400f0 	cmp	r4, #240	; 0xf0
     9a4:	1afffff8 	bne	98c <clear_screen+0x10>
}


void clear_screen() {
	int i = 0;
	for (; i < 320; i++) {
     9a8:	e2855001 	add	r5, r5, #1
     9ac:	e3550d05 	cmp	r5, #320	; 0x140
     9b0:	08bd8070 	popeq	{r4, r5, r6, pc}
{
	*(short int *)(pixel_buffer_start + (y << 10) + (x << 1)) = line_color;
}


void clear_screen() {
     9b4:	e1a04006 	mov	r4, r6
     9b8:	eafffff3 	b	98c <clear_screen+0x10>

000009bc <wait_for_vsync>:

void wait_for_vsync() {
	volatile int* pixel_ctrl_ptr = 0xFF203020;
	register int status;

	*pixel_ctrl_ptr = 1;
     9bc:	e3033fff 	movw	r3, #16383	; 0x3fff
     9c0:	e34f3f20 	movt	r3, #65312	; 0xff20
     9c4:	e3a02001 	mov	r2, #1
     9c8:	e5032fdf 	str	r2, [r3, #-4063]	; 0xfffff021

	status = *(pixel_ctrl_ptr + 3);
     9cc:	e5133fd3 	ldr	r3, [r3, #-4051]	; 0xfffff02d
	while ((status & 0x01) != 0) {
     9d0:	e3130001 	tst	r3, #1
     9d4:	012fff1e 	bxeq	lr
		status = *(pixel_ctrl_ptr + 3);
     9d8:	e3032fff 	movw	r2, #16383	; 0x3fff
     9dc:	e34f2f20 	movt	r2, #65312	; 0xff20
     9e0:	e5123fd3 	ldr	r3, [r2, #-4051]	; 0xfffff02d
	register int status;

	*pixel_ctrl_ptr = 1;

	status = *(pixel_ctrl_ptr + 3);
	while ((status & 0x01) != 0) {
     9e4:	e3130001 	tst	r3, #1
     9e8:	1afffffc 	bne	9e0 <wait_for_vsync+0x24>
     9ec:	e12fff1e 	bx	lr

000009f0 <main>:
//initialize playrt position




int main(void) {
     9f0:	e92d4ff8 	push	{r3, r4, r5, r6, r7, r8, r9, r10, r11, lr}
	boards[1][2] = 1; // when theres a 1 on the board, that means theres a player on it
     9f4:	e30b4bb4 	movw	r4, #48052	; 0xbbb4
     9f8:	e3404002 	movt	r4, #2
     9fc:	e3a03001 	mov	r3, #1
     a00:	e584302c 	str	r3, [r4, #44]	; 0x2c


	volatile int *pixel_ctrl_ptr = (int *)0xFF203020;

	*(pixel_ctrl_ptr + 1) = 0xC8000000; // first store the address in the
     a04:	e3035fff 	movw	r5, #16383	; 0x3fff
     a08:	e34f5f20 	movt	r5, #65312	; 0xff20
     a0c:	e3a03332 	mov	r3, #-939524096	; 0xc8000000
     a10:	e5053fdb 	str	r3, [r5, #-4059]	; 0xfffff025
										// back buffer
	wait_for_vsync();
     a14:	ebffffe8 	bl	9bc <wait_for_vsync>

	pixel_buffer_start = *pixel_ctrl_ptr;
     a18:	e5153fdf 	ldr	r3, [r5, #-4063]	; 0xfffff021
     a1c:	e584303c 	str	r3, [r4, #60]	; 0x3c

	*(pixel_ctrl_ptr + 1) = 0xC0000000;
     a20:	e3a03103 	mov	r3, #-1073741824	; 0xc0000000
     a24:	e5053fdb 	str	r3, [r5, #-4059]	; 0xfffff025
	pixel_buffer_start = *(pixel_ctrl_ptr + 1); // we draw on the back buffer
     a28:	e5153fdb 	ldr	r3, [r5, #-4059]	; 0xfffff025
     a2c:	e584303c 	str	r3, [r4, #60]	; 0x3c
	clear_screen();
     a30:	ebffffd1 	bl	97c <clear_screen>



	//initialize and load sprites here
	drawBackground();
     a34:	ebffffa7 	bl	8d8 <drawBackground>
     a38:	e3a04000 	mov	r4, #0



	//initialize all the obstacles
	int i;
	for (i = 0; i < 12; i++) {
     a3c:	e1a06004 	mov	r6, r4
			obstacal_SDRAM_y[i] = obstacal_y[i];


		}
		else {
			obstacal_x[i] = 114 + (rand() % 3) * 30; //+ rand()%70;
     a40:	e30b5bb4 	movw	r5, #48052	; 0xbbb4
     a44:	e3405002 	movt	r5, #2
     a48:	e3058556 	movw	r8, #21846	; 0x5556
     a4c:	e3458555 	movt	r8, #21845	; 0x5555
			obstacal_y[i] = 239 + rand() % 300;
     a50:	e30871b5 	movw	r7, #33205	; 0x81b5
     a54:	e3417b4e 	movt	r7, #6990	; 0x1b4e
     a58:	e3a09f4b 	mov	r9, #300	; 0x12c
			obstacleMov_x[i] = 0;
     a5c:	e1a0a004 	mov	r10, r4
	//initialize all the obstacles
	int i;
	for (i = 0; i < 12; i++) {

		//try to do horizontal movement first
		if (i % 4 == 0) {
     a60:	e3160003 	tst	r6, #3
     a64:	1a000020 	bne	aec <main+0xfc>
			obstacal_x[i] = 0 - rand() % 300;
     a68:	eb0000bc 	bl	d60 <rand>
     a6c:	e285b090 	add	r11, r5, #144	; 0x90
     a70:	e0c21097 	smull	r1, r2, r7, r0
     a74:	e1a03fc0 	asr	r3, r0, #31
     a78:	e06332c2 	rsb	r3, r3, r2, asr #5
     a7c:	e0630399 	mls	r3, r9, r3, r0
     a80:	e2633000 	rsb	r3, r3, #0
     a84:	e784300b 	str	r3, [r4, r11]
			obstacal_y[i] = 74 + (rand() % 3) * 30;
     a88:	eb0000b4 	bl	d60 <rand>
     a8c:	e0c32098 	smull	r2, r3, r8, r0
     a90:	e0433fc0 	sub	r3, r3, r0, asr #31
     a94:	e0833083 	add	r3, r3, r3, lsl #1
     a98:	e0630000 	rsb	r0, r3, r0
     a9c:	e0600200 	rsb	r0, r0, r0, lsl #4
     aa0:	e1a03080 	lsl	r3, r0, #1
     aa4:	e283304a 	add	r3, r3, #74	; 0x4a
     aa8:	e2852e13 	add	r2, r5, #304	; 0x130
     aac:	e7843002 	str	r3, [r4, r2]
			obstacleMov_x[i] = 1;
     ab0:	e2852e22 	add	r2, r5, #544	; 0x220
     ab4:	e3a01001 	mov	r1, #1
     ab8:	e7841002 	str	r1, [r4, r2]
			obstacleMov_y[i] = 0;
     abc:	e2852e27 	add	r2, r5, #624	; 0x270
     ac0:	e784a002 	str	r10, [r4, r2]

			obstacal_ONCHIP_x[i] = obstacal_x[i];
     ac4:	e794200b 	ldr	r2, [r4, r11]
     ac8:	e2851d06 	add	r1, r5, #384	; 0x180
     acc:	e7842001 	str	r2, [r4, r1]
			obstacal_ONCHIP_y[i] = obstacal_y[i];
     ad0:	e2851e1d 	add	r1, r5, #464	; 0x1d0
     ad4:	e7843001 	str	r3, [r4, r1]
			obstacal_SDRAM_x[i] = obstacal_x[i];
     ad8:	e2851040 	add	r1, r5, #64	; 0x40
     adc:	e7842001 	str	r2, [r4, r1]
			obstacal_SDRAM_y[i] = obstacal_y[i];
     ae0:	e28520e0 	add	r2, r5, #224	; 0xe0
     ae4:	e7843002 	str	r3, [r4, r2]
     ae8:	ea00006b 	b	c9c <main+0x2ac>




		}
		else if (i % 4 == 1) {
     aec:	e1a03fc6 	asr	r3, r6, #31
     af0:	e1a03f23 	lsr	r3, r3, #30
     af4:	e0862003 	add	r2, r6, r3
     af8:	e2022003 	and	r2, r2, #3
     afc:	e0633002 	rsb	r3, r3, r2
     b00:	e3530001 	cmp	r3, #1
     b04:	1a000021 	bne	b90 <main+0x1a0>
			obstacal_x[i] = 310 + rand() % 300;
     b08:	eb000094 	bl	d60 <rand>
     b0c:	e285b090 	add	r11, r5, #144	; 0x90
     b10:	e0c23097 	smull	r3, r2, r7, r0
     b14:	e1a03fc0 	asr	r3, r0, #31
     b18:	e06332c2 	rsb	r3, r3, r2, asr #5
     b1c:	e0630399 	mls	r3, r9, r3, r0
     b20:	e2833f4d 	add	r3, r3, #308	; 0x134
     b24:	e2833002 	add	r3, r3, #2
     b28:	e784300b 	str	r3, [r4, r11]
			obstacal_y[i] = 74 + (rand() % 3) * 30;
     b2c:	eb00008b 	bl	d60 <rand>
     b30:	e0c31098 	smull	r1, r3, r8, r0
     b34:	e0433fc0 	sub	r3, r3, r0, asr #31
     b38:	e0833083 	add	r3, r3, r3, lsl #1
     b3c:	e0630000 	rsb	r0, r3, r0
     b40:	e0600200 	rsb	r0, r0, r0, lsl #4
     b44:	e1a03080 	lsl	r3, r0, #1
     b48:	e283304a 	add	r3, r3, #74	; 0x4a
     b4c:	e2852e13 	add	r2, r5, #304	; 0x130
     b50:	e7843002 	str	r3, [r4, r2]
			obstacleMov_x[i] = -1;
     b54:	e2852e22 	add	r2, r5, #544	; 0x220
     b58:	e3e01000 	mvn	r1, #0
     b5c:	e7841002 	str	r1, [r4, r2]
			obstacleMov_y[i] = 0;
     b60:	e2852e27 	add	r2, r5, #624	; 0x270
     b64:	e784a002 	str	r10, [r4, r2]

			obstacal_ONCHIP_x[i] = obstacal_x[i];
     b68:	e794200b 	ldr	r2, [r4, r11]
     b6c:	e2851d06 	add	r1, r5, #384	; 0x180
     b70:	e7842001 	str	r2, [r4, r1]
			obstacal_ONCHIP_y[i] = obstacal_y[i];
     b74:	e2851e1d 	add	r1, r5, #464	; 0x1d0
     b78:	e7843001 	str	r3, [r4, r1]
			obstacal_SDRAM_x[i] = obstacal_x[i];
     b7c:	e2851040 	add	r1, r5, #64	; 0x40
     b80:	e7842001 	str	r2, [r4, r1]
			obstacal_SDRAM_y[i] = obstacal_y[i];
     b84:	e28520e0 	add	r2, r5, #224	; 0xe0
     b88:	e7843002 	str	r3, [r4, r2]
     b8c:	ea000042 	b	c9c <main+0x2ac>



		}
		else if (i % 4 == 2) {
     b90:	e3530002 	cmp	r3, #2
     b94:	1a000020 	bne	c1c <main+0x22c>

			obstacal_x[i] = 114 + (rand() % 3) * 30; //+ rand()%70;
     b98:	eb000070 	bl	d60 <rand>
     b9c:	e285b090 	add	r11, r5, #144	; 0x90
     ba0:	e0c32098 	smull	r2, r3, r8, r0
     ba4:	e0433fc0 	sub	r3, r3, r0, asr #31
     ba8:	e0833083 	add	r3, r3, r3, lsl #1
     bac:	e0630000 	rsb	r0, r3, r0
     bb0:	e0600200 	rsb	r0, r0, r0, lsl #4
     bb4:	e1a03080 	lsl	r3, r0, #1
     bb8:	e2833072 	add	r3, r3, #114	; 0x72
     bbc:	e784300b 	str	r3, [r4, r11]
			obstacal_y[i] = 0 - rand() % 300;
     bc0:	eb000066 	bl	d60 <rand>
     bc4:	e0c23097 	smull	r3, r2, r7, r0
     bc8:	e1a03fc0 	asr	r3, r0, #31
     bcc:	e06332c2 	rsb	r3, r3, r2, asr #5
     bd0:	e0630399 	mls	r3, r9, r3, r0
     bd4:	e2633000 	rsb	r3, r3, #0
     bd8:	e2852e13 	add	r2, r5, #304	; 0x130
     bdc:	e7843002 	str	r3, [r4, r2]
			obstacleMov_x[i] = 0;
     be0:	e2852e22 	add	r2, r5, #544	; 0x220
     be4:	e784a002 	str	r10, [r4, r2]
			obstacleMov_y[i] = 1;
     be8:	e2852e27 	add	r2, r5, #624	; 0x270
     bec:	e3a01001 	mov	r1, #1
     bf0:	e7841002 	str	r1, [r4, r2]

			obstacal_ONCHIP_x[i] = obstacal_x[i];
     bf4:	e794200b 	ldr	r2, [r4, r11]
     bf8:	e2851d06 	add	r1, r5, #384	; 0x180
     bfc:	e7842001 	str	r2, [r4, r1]
			obstacal_ONCHIP_y[i] = obstacal_y[i];
     c00:	e2851e1d 	add	r1, r5, #464	; 0x1d0
     c04:	e7843001 	str	r3, [r4, r1]
			obstacal_SDRAM_x[i] = obstacal_x[i];
     c08:	e2851040 	add	r1, r5, #64	; 0x40
     c0c:	e7842001 	str	r2, [r4, r1]
			obstacal_SDRAM_y[i] = obstacal_y[i];
     c10:	e28520e0 	add	r2, r5, #224	; 0xe0
     c14:	e7843002 	str	r3, [r4, r2]
     c18:	ea00001f 	b	c9c <main+0x2ac>


		}
		else {
			obstacal_x[i] = 114 + (rand() % 3) * 30; //+ rand()%70;
     c1c:	eb00004f 	bl	d60 <rand>
     c20:	e285b090 	add	r11, r5, #144	; 0x90
     c24:	e0c31098 	smull	r1, r3, r8, r0
     c28:	e0433fc0 	sub	r3, r3, r0, asr #31
     c2c:	e0833083 	add	r3, r3, r3, lsl #1
     c30:	e0630000 	rsb	r0, r3, r0
     c34:	e0600200 	rsb	r0, r0, r0, lsl #4
     c38:	e1a03080 	lsl	r3, r0, #1
     c3c:	e2833072 	add	r3, r3, #114	; 0x72
     c40:	e784300b 	str	r3, [r4, r11]
			obstacal_y[i] = 239 + rand() % 300;
     c44:	eb000045 	bl	d60 <rand>
     c48:	e0c23097 	smull	r3, r2, r7, r0
     c4c:	e1a03fc0 	asr	r3, r0, #31
     c50:	e06332c2 	rsb	r3, r3, r2, asr #5
     c54:	e0630399 	mls	r3, r9, r3, r0
     c58:	e28330ef 	add	r3, r3, #239	; 0xef
     c5c:	e2852e13 	add	r2, r5, #304	; 0x130
     c60:	e7843002 	str	r3, [r4, r2]
			obstacleMov_x[i] = 0;
     c64:	e2852e22 	add	r2, r5, #544	; 0x220
     c68:	e784a002 	str	r10, [r4, r2]
			obstacleMov_y[i] = -1;
     c6c:	e2852e27 	add	r2, r5, #624	; 0x270
     c70:	e3e01000 	mvn	r1, #0
     c74:	e7841002 	str	r1, [r4, r2]

			obstacal_ONCHIP_x[i] = obstacal_x[i];
     c78:	e794200b 	ldr	r2, [r4, r11]
     c7c:	e2851d06 	add	r1, r5, #384	; 0x180
     c80:	e7842001 	str	r2, [r4, r1]
			obstacal_ONCHIP_y[i] = obstacal_y[i];
     c84:	e2851e1d 	add	r1, r5, #464	; 0x1d0
     c88:	e7843001 	str	r3, [r4, r1]
			obstacal_SDRAM_x[i] = obstacal_x[i];
     c8c:	e2851040 	add	r1, r5, #64	; 0x40
     c90:	e7842001 	str	r2, [r4, r1]
			obstacal_SDRAM_y[i] = obstacal_y[i];
     c94:	e28520e0 	add	r2, r5, #224	; 0xe0
     c98:	e7843002 	str	r3, [r4, r2]



	//initialize all the obstacles
	int i;
	for (i = 0; i < 12; i++) {
     c9c:	e2866001 	add	r6, r6, #1
     ca0:	e2844004 	add	r4, r4, #4
     ca4:	e356000c 	cmp	r6, #12
     ca8:	1affff6c 	bne	a60 <main+0x70>

	  //clear_screen();


      clearObstacle();
      drawBoard(114, 74);
     cac:	e3a07072 	mov	r7, #114	; 0x72
     cb0:	e3a0604a 	mov	r6, #74	; 0x4a
    //drawGameOver();



		wait_for_vsync();
		pixel_buffer_start = *(pixel_ctrl_ptr + 1); //new back buffer
     cb4:	e3035fff 	movw	r5, #16383	; 0x3fff
     cb8:	e34f5f20 	movt	r5, #65312	; 0xff20
     cbc:	e30b4bb4 	movw	r4, #48052	; 0xbbb4
     cc0:	e3404002 	movt	r4, #2
	while (1) {

	  //clear_screen();


      clearObstacle();
     cc4:	ebfffeb8 	bl	7ac <clearObstacle>
      drawBoard(114, 74);
     cc8:	e1a00007 	mov	r0, r7
     ccc:	e1a01006 	mov	r1, r6
     cd0:	ebfffe56 	bl	630 <drawBoard>



      changePlayerPos();
     cd4:	ebfffd60 	bl	25c <changePlayerPos>


      draw();
     cd8:	ebfffe9d 	bl	754 <draw>
      update();
     cdc:	ebfffdd5 	bl	438 <update>

    //drawGameOver();



		wait_for_vsync();
     ce0:	ebffff35 	bl	9bc <wait_for_vsync>
		pixel_buffer_start = *(pixel_ctrl_ptr + 1); //new back buffer
     ce4:	e5153fdb 	ldr	r3, [r5, #-4059]	; 0xfffff025
     ce8:	e584303c 	str	r3, [r4, #60]	; 0x3c
     cec:	eafffff4 	b	cc4 <main+0x2d4>

00000cf0 <atexit>:
     cf0:	e1a01000 	mov	r1, r0
     cf4:	e3a00000 	mov	r0, #0
     cf8:	e92d4008 	push	{r3, lr}
     cfc:	e1a02000 	mov	r2, r0
     d00:	e1a03000 	mov	r3, r0
     d04:	eb00002c 	bl	dbc <__register_exitproc>
     d08:	e8bd4008 	pop	{r3, lr}
     d0c:	e12fff1e 	bx	lr

00000d10 <exit>:
     d10:	e92d4008 	push	{r3, lr}
     d14:	e3a01000 	mov	r1, #0
     d18:	e1a04000 	mov	r4, r0
     d1c:	eb000063 	bl	eb0 <__call_exitprocs>
     d20:	e59f3018 	ldr	r3, [pc, #24]	; d40 <exit+0x30>
     d24:	e5930000 	ldr	r0, [r3]
     d28:	e590303c 	ldr	r3, [r0, #60]	; 0x3c
     d2c:	e3530000 	cmp	r3, #0
     d30:	11a0e00f 	movne	lr, pc
     d34:	112fff13 	bxne	r3
     d38:	e1a00004 	mov	r0, r4
     d3c:	eb0000e7 	bl	10e0 <_exit>
     d40:	0002b6f8 	.word	0x0002b6f8

00000d44 <srand>:
     d44:	e59f3010 	ldr	r3, [pc, #16]	; d5c <srand+0x18>
     d48:	e5933000 	ldr	r3, [r3]
     d4c:	e3a02000 	mov	r2, #0
     d50:	e58300a8 	str	r0, [r3, #168]	; 0xa8
     d54:	e58320ac 	str	r2, [r3, #172]	; 0xac
     d58:	e12fff1e 	bx	lr
     d5c:	0002b760 	.word	0x0002b760

00000d60 <rand>:
     d60:	e52d4004 	push	{r4}		; (str r4, [sp, #-4]!)
     d64:	e59f3044 	ldr	r3, [pc, #68]	; db0 <rand+0x50>
     d68:	e593c000 	ldr	r12, [r3]
     d6c:	e59f4040 	ldr	r4, [pc, #64]	; db4 <rand+0x54>
     d70:	e59c20a8 	ldr	r2, [r12, #168]	; 0xa8
     d74:	e0040492 	mul	r4, r2, r4
     d78:	e59c10ac 	ldr	r1, [r12, #172]	; 0xac
     d7c:	e59f3034 	ldr	r3, [pc, #52]	; db8 <rand+0x58>
     d80:	e0244193 	mla	r4, r3, r1, r4
     d84:	e0810392 	umull	r0, r1, r2, r3
     d88:	e3a02001 	mov	r2, #1
     d8c:	e0922000 	adds	r2, r2, r0
     d90:	e0841001 	add	r1, r4, r1
     d94:	e3a03000 	mov	r3, #0
     d98:	e0a33001 	adc	r3, r3, r1
     d9c:	e58c20a8 	str	r2, [r12, #168]	; 0xa8
     da0:	e58c30ac 	str	r3, [r12, #172]	; 0xac
     da4:	e3c30102 	bic	r0, r3, #-2147483648	; 0x80000000
     da8:	e8bd0010 	ldmfd	sp!, {r4}
     dac:	e12fff1e 	bx	lr
     db0:	0002b760 	.word	0x0002b760
     db4:	5851f42d 	.word	0x5851f42d
     db8:	4c957f2d 	.word	0x4c957f2d

00000dbc <__register_exitproc>:
     dbc:	e59fc0e4 	ldr	r12, [pc, #228]	; ea8 <__register_exitproc+0xec>
     dc0:	e92d41f0 	push	{r4, r5, r6, r7, r8, lr}
     dc4:	e59c4000 	ldr	r4, [r12]
     dc8:	e594c148 	ldr	r12, [r4, #328]	; 0x148
     dcc:	e35c0000 	cmp	r12, #0
     dd0:	0284cf53 	addeq	r12, r4, #332	; 0x14c
     dd4:	e59c5004 	ldr	r5, [r12, #4]
     dd8:	0584c148 	streq	r12, [r4, #328]	; 0x148
     ddc:	e355001f 	cmp	r5, #31
     de0:	e24dd010 	sub	sp, sp, #16
     de4:	e1a06000 	mov	r6, r0
     de8:	da000015 	ble	e44 <__register_exitproc+0x88>
     dec:	e59f00b8 	ldr	r0, [pc, #184]	; eac <__register_exitproc+0xf0>
     df0:	e3500000 	cmp	r0, #0
     df4:	1a000001 	bne	e00 <__register_exitproc+0x44>
     df8:	e3e00000 	mvn	r0, #0
     dfc:	ea000018 	b	e64 <__register_exitproc+0xa8>
     e00:	e3a00e19 	mov	r0, #400	; 0x190
     e04:	e58d100c 	str	r1, [sp, #12]
     e08:	e58d2008 	str	r2, [sp, #8]
     e0c:	e58d3004 	str	r3, [sp, #4]
     e10:	e320f000 	nop	{0}
     e14:	e250c000 	subs	r12, r0, #0
     e18:	e59d100c 	ldr	r1, [sp, #12]
     e1c:	e59d2008 	ldr	r2, [sp, #8]
     e20:	e59d3004 	ldr	r3, [sp, #4]
     e24:	0afffff3 	beq	df8 <__register_exitproc+0x3c>
     e28:	e5945148 	ldr	r5, [r4, #328]	; 0x148
     e2c:	e3a00000 	mov	r0, #0
     e30:	e58c0004 	str	r0, [r12, #4]
     e34:	e58c5000 	str	r5, [r12]
     e38:	e584c148 	str	r12, [r4, #328]	; 0x148
     e3c:	e58c0188 	str	r0, [r12, #392]	; 0x188
     e40:	e58c018c 	str	r0, [r12, #396]	; 0x18c
     e44:	e3560000 	cmp	r6, #0
     e48:	e59c4004 	ldr	r4, [r12, #4]
     e4c:	1a000007 	bne	e70 <__register_exitproc+0xb4>
     e50:	e2843002 	add	r3, r4, #2
     e54:	e2844001 	add	r4, r4, #1
     e58:	e78c1103 	str	r1, [r12, r3, lsl #2]
     e5c:	e58c4004 	str	r4, [r12, #4]
     e60:	e3a00000 	mov	r0, #0
     e64:	e28dd010 	add	sp, sp, #16
     e68:	e8bd41f0 	pop	{r4, r5, r6, r7, r8, lr}
     e6c:	e12fff1e 	bx	lr
     e70:	e3a00001 	mov	r0, #1
     e74:	e1a00410 	lsl	r0, r0, r4
     e78:	e08c8104 	add	r8, r12, r4, lsl #2
     e7c:	e3560002 	cmp	r6, #2
     e80:	e59c7188 	ldr	r7, [r12, #392]	; 0x188
     e84:	e5883108 	str	r3, [r8, #264]	; 0x108
     e88:	059c318c 	ldreq	r3, [r12, #396]	; 0x18c
     e8c:	e1877000 	orr	r7, r7, r0
     e90:	01830000 	orreq	r0, r3, r0
     e94:	e1a05008 	mov	r5, r8
     e98:	e5882088 	str	r2, [r8, #136]	; 0x88
     e9c:	e58c7188 	str	r7, [r12, #392]	; 0x188
     ea0:	058c018c 	streq	r0, [r12, #396]	; 0x18c
     ea4:	eaffffe9 	b	e50 <__register_exitproc+0x94>
     ea8:	0002b6f8 	.word	0x0002b6f8
     eac:	00000000 	.word	0x00000000

00000eb0 <__call_exitprocs>:
     eb0:	e92d4ff0 	push	{r4, r5, r6, r7, r8, r9, r10, r11, lr}
     eb4:	e59f3168 	ldr	r3, [pc, #360]	; 1024 <__call_exitprocs+0x174>
     eb8:	e5933000 	ldr	r3, [r3]
     ebc:	e24dd014 	sub	sp, sp, #20
     ec0:	e58d3004 	str	r3, [sp, #4]
     ec4:	e2833f52 	add	r3, r3, #328	; 0x148
     ec8:	e58d0008 	str	r0, [sp, #8]
     ecc:	e58d300c 	str	r3, [sp, #12]
     ed0:	e1a07001 	mov	r7, r1
     ed4:	e3a08001 	mov	r8, #1
     ed8:	e59d3004 	ldr	r3, [sp, #4]
     edc:	e5936148 	ldr	r6, [r3, #328]	; 0x148
     ee0:	e3560000 	cmp	r6, #0
     ee4:	e59db00c 	ldr	r11, [sp, #12]
     ee8:	0a000033 	beq	fbc <__call_exitprocs+0x10c>
     eec:	e5965004 	ldr	r5, [r6, #4]
     ef0:	e2554001 	subs	r4, r5, #1
     ef4:	5286a088 	addpl	r10, r6, #136	; 0x88
     ef8:	5285501f 	addpl	r5, r5, #31
     efc:	508a5105 	addpl	r5, r10, r5, lsl #2
     f00:	5a000007 	bpl	f24 <__call_exitprocs+0x74>
     f04:	ea000029 	b	fb0 <__call_exitprocs+0x100>
     f08:	e5953000 	ldr	r3, [r5]
     f0c:	e1530007 	cmp	r3, r7
     f10:	0a000005 	beq	f2c <__call_exitprocs+0x7c>
     f14:	e2444001 	sub	r4, r4, #1
     f18:	e3740001 	cmn	r4, #1
     f1c:	e2455004 	sub	r5, r5, #4
     f20:	0a000022 	beq	fb0 <__call_exitprocs+0x100>
     f24:	e3570000 	cmp	r7, #0
     f28:	1afffff6 	bne	f08 <__call_exitprocs+0x58>
     f2c:	e5963004 	ldr	r3, [r6, #4]
     f30:	e06a2005 	rsb	r2, r10, r5
     f34:	e2433001 	sub	r3, r3, #1
     f38:	e0862002 	add	r2, r6, r2
     f3c:	e1530004 	cmp	r3, r4
     f40:	e5123078 	ldr	r3, [r2, #-120]	; 0xffffff88
     f44:	13a01000 	movne	r1, #0
     f48:	05864004 	streq	r4, [r6, #4]
     f4c:	15021078 	strne	r1, [r2, #-120]	; 0xffffff88
     f50:	e3530000 	cmp	r3, #0
     f54:	0affffee 	beq	f14 <__call_exitprocs+0x64>
     f58:	e1a02418 	lsl	r2, r8, r4
     f5c:	e5961188 	ldr	r1, [r6, #392]	; 0x188
     f60:	e1120001 	tst	r2, r1
     f64:	e5969004 	ldr	r9, [r6, #4]
     f68:	0a000016 	beq	fc8 <__call_exitprocs+0x118>
     f6c:	e596118c 	ldr	r1, [r6, #396]	; 0x18c
     f70:	e1120001 	tst	r2, r1
     f74:	1a000016 	bne	fd4 <__call_exitprocs+0x124>
     f78:	e59d0008 	ldr	r0, [sp, #8]
     f7c:	e5151080 	ldr	r1, [r5, #-128]	; 0xffffff80
     f80:	e1a0e00f 	mov	lr, pc
     f84:	e12fff13 	bx	r3
     f88:	e5963004 	ldr	r3, [r6, #4]
     f8c:	e1530009 	cmp	r3, r9
     f90:	1affffd0 	bne	ed8 <__call_exitprocs+0x28>
     f94:	e59b3000 	ldr	r3, [r11]
     f98:	e1530006 	cmp	r3, r6
     f9c:	1affffcd 	bne	ed8 <__call_exitprocs+0x28>
     fa0:	e2444001 	sub	r4, r4, #1
     fa4:	e3740001 	cmn	r4, #1
     fa8:	e2455004 	sub	r5, r5, #4
     fac:	1affffdc 	bne	f24 <__call_exitprocs+0x74>
     fb0:	e59f1070 	ldr	r1, [pc, #112]	; 1028 <__call_exitprocs+0x178>
     fb4:	e3510000 	cmp	r1, #0
     fb8:	1a000009 	bne	fe4 <__call_exitprocs+0x134>
     fbc:	e28dd014 	add	sp, sp, #20
     fc0:	e8bd4ff0 	pop	{r4, r5, r6, r7, r8, r9, r10, r11, lr}
     fc4:	e12fff1e 	bx	lr
     fc8:	e1a0e00f 	mov	lr, pc
     fcc:	e12fff13 	bx	r3
     fd0:	eaffffec 	b	f88 <__call_exitprocs+0xd8>
     fd4:	e5150080 	ldr	r0, [r5, #-128]	; 0xffffff80
     fd8:	e1a0e00f 	mov	lr, pc
     fdc:	e12fff13 	bx	r3
     fe0:	eaffffe8 	b	f88 <__call_exitprocs+0xd8>
     fe4:	e5963004 	ldr	r3, [r6, #4]
     fe8:	e3530000 	cmp	r3, #0
     fec:	e5963000 	ldr	r3, [r6]
     ff0:	1a000008 	bne	1018 <__call_exitprocs+0x168>
     ff4:	e3530000 	cmp	r3, #0
     ff8:	0a000006 	beq	1018 <__call_exitprocs+0x168>
     ffc:	e1a00006 	mov	r0, r6
    1000:	e58b3000 	str	r3, [r11]
    1004:	e320f000 	nop	{0}
    1008:	e59b6000 	ldr	r6, [r11]
    100c:	e3560000 	cmp	r6, #0
    1010:	1affffb5 	bne	eec <__call_exitprocs+0x3c>
    1014:	eaffffe8 	b	fbc <__call_exitprocs+0x10c>
    1018:	e1a0b006 	mov	r11, r6
    101c:	e1a06003 	mov	r6, r3
    1020:	eafffff9 	b	100c <__call_exitprocs+0x15c>
    1024:	0002b6f8 	.word	0x0002b6f8
    1028:	00000000 	.word	0x00000000

0000102c <register_fini>:
    102c:	e92d4008 	push	{r3, lr}
    1030:	e59f3010 	ldr	r3, [pc, #16]	; 1048 <register_fini+0x1c>
    1034:	e3530000 	cmp	r3, #0
    1038:	159f000c 	ldrne	r0, [pc, #12]	; 104c <register_fini+0x20>
    103c:	1bffff2b 	blne	cf0 <atexit>
    1040:	e8bd4008 	pop	{r3, lr}
    1044:	e12fff1e 	bx	lr
    1048:	0002b720 	.word	0x0002b720
    104c:	00001050 	.word	0x00001050

00001050 <__libc_fini_array>:
    1050:	e92d4038 	push	{r3, r4, r5, lr}
    1054:	e59f5030 	ldr	r5, [pc, #48]	; 108c <__libc_fini_array+0x3c>
    1058:	e59f4030 	ldr	r4, [pc, #48]	; 1090 <__libc_fini_array+0x40>
    105c:	e0654004 	rsb	r4, r5, r4
    1060:	e1b04144 	asrs	r4, r4, #2
    1064:	10855104 	addne	r5, r5, r4, lsl #2
    1068:	0a000004 	beq	1080 <__libc_fini_array+0x30>
    106c:	e5353004 	ldr	r3, [r5, #-4]!
    1070:	e1a0e00f 	mov	lr, pc
    1074:	e12fff13 	bx	r3
    1078:	e2544001 	subs	r4, r4, #1
    107c:	1afffffa 	bne	106c <__libc_fini_array+0x1c>
    1080:	eb00a9a6 	bl	2b720 <__libc_fini>
    1084:	e8bd4038 	pop	{r3, r4, r5, lr}
    1088:	e12fff1e 	bx	lr
    108c:	0002b738 	.word	0x0002b738
    1090:	0002b73c 	.word	0x0002b73c

00001094 <__cs3_premain>:
    1094:	e92d4008 	push	{r3, lr}
    1098:	eb00001d 	bl	1114 <__libc_init_array>
    109c:	e59f3030 	ldr	r3, [pc, #48]	; 10d4 <__cs3_premain+0x40>
    10a0:	e3530000 	cmp	r3, #0
    10a4:	15930000 	ldrne	r0, [r3]
    10a8:	01a00003 	moveq	r0, r3
    10ac:	e59f3024 	ldr	r3, [pc, #36]	; 10d8 <__cs3_premain+0x44>
    10b0:	e3530000 	cmp	r3, #0
    10b4:	15931000 	ldrne	r1, [r3]
    10b8:	01a01003 	moveq	r1, r3
    10bc:	e3a02000 	mov	r2, #0
    10c0:	ebfffe4a 	bl	9f0 <main>
    10c4:	e59f3010 	ldr	r3, [pc, #16]	; 10dc <__cs3_premain+0x48>
    10c8:	e3530000 	cmp	r3, #0
    10cc:	1bffff0f 	blne	d10 <exit>
    10d0:	eafffffe 	b	10d0 <__cs3_premain+0x3c>
	...
    10dc:	00000d10 	.word	0x00000d10

000010e0 <_exit>:
    10e0:	e52de004 	push	{lr}		; (str lr, [sp, #-4]!)
    10e4:	e3a00018 	mov	r0, #24
    10e8:	e59f1004 	ldr	r1, [pc, #4]	; 10f4 <_exit+0x14>
    10ec:	ef123456 	svc	0x00123456
    10f0:	eafffffe 	b	10f0 <_exit+0x10>
    10f4:	00020026 	.word	0x00020026

000010f8 <__cs3_isr_interrupt>:
    10f8:	eafffffe 	b	10f8 <__cs3_isr_interrupt>

000010fc <__cs3_isr_undef>:
    10fc:	eafffffe 	b	10fc <__cs3_isr_undef>

00001100 <__cs3_isr_swi>:
    1100:	eafffffe 	b	1100 <__cs3_isr_swi>

00001104 <__cs3_isr_pabort>:
    1104:	eafffffe 	b	1104 <__cs3_isr_pabort>

00001108 <__cs3_isr_dabort>:
    1108:	eafffffe 	b	1108 <__cs3_isr_dabort>

0000110c <__cs3_isr_irq>:
    110c:	eafffffe 	b	110c <__cs3_isr_irq>

00001110 <__cs3_isr_fiq>:
    1110:	eafffffe 	b	1110 <__cs3_isr_fiq>

00001114 <__libc_init_array>:
    1114:	e92d4070 	push	{r4, r5, r6, lr}
    1118:	e59f506c 	ldr	r5, [pc, #108]	; 118c <__libc_init_array+0x78>
    111c:	e59f606c 	ldr	r6, [pc, #108]	; 1190 <__libc_init_array+0x7c>
    1120:	e0656006 	rsb	r6, r5, r6
    1124:	e1b06146 	asrs	r6, r6, #2
    1128:	12455004 	subne	r5, r5, #4
    112c:	13a04000 	movne	r4, #0
    1130:	0a000005 	beq	114c <__libc_init_array+0x38>
    1134:	e5b53004 	ldr	r3, [r5, #4]!
    1138:	e2844001 	add	r4, r4, #1
    113c:	e1a0e00f 	mov	lr, pc
    1140:	e12fff13 	bx	r3
    1144:	e1560004 	cmp	r6, r4
    1148:	1afffff9 	bne	1134 <__libc_init_array+0x20>
    114c:	e59f5040 	ldr	r5, [pc, #64]	; 1194 <__libc_init_array+0x80>
    1150:	e59f6040 	ldr	r6, [pc, #64]	; 1198 <__libc_init_array+0x84>
    1154:	e0656006 	rsb	r6, r5, r6
    1158:	eb00a968 	bl	2b700 <_init>
    115c:	e1b06146 	asrs	r6, r6, #2
    1160:	12455004 	subne	r5, r5, #4
    1164:	13a04000 	movne	r4, #0
    1168:	0a000005 	beq	1184 <__libc_init_array+0x70>
    116c:	e5b53004 	ldr	r3, [r5, #4]!
    1170:	e2844001 	add	r4, r4, #1
    1174:	e1a0e00f 	mov	lr, pc
    1178:	e12fff13 	bx	r3
    117c:	e1560004 	cmp	r6, r4
    1180:	1afffff9 	bne	116c <__libc_init_array+0x58>
    1184:	e8bd4070 	pop	{r4, r5, r6, lr}
    1188:	e12fff1e 	bx	lr
    118c:	0002b718 	.word	0x0002b718
    1190:	0002b718 	.word	0x0002b718
    1194:	0002b718 	.word	0x0002b718
    1198:	0002b720 	.word	0x0002b720
