
C:/Users/meteo/OneDrive/Documents/GitHub/ECE243-Final-Project/FinalProject.axf:     file format elf32-littlearm


Disassembly of section .text:

00000000 <__cs3_interrupt_vector>:
   0:	18 f0 9f e5 18 f0 9f e5 18 f0 9f e5 18 f0 9f e5     ................
  10:	18 f0 9f e5 18 f0 9f e5 18 f0 9f e5 18 f0 9f e5     ................
  20:	40 00 00 00 80 0c 00 00 84 0c 00 00 88 0c 00 00     @...............
  30:	8c 0c 00 00 7c 0c 00 00 90 0c 00 00 94 0c 00 00     ....|...........

00000040 <__cs3_reset>:
  40:	ea000026 	b	e0 <__cs3_start_asm_sim>

00000044 <__cs3_start_c>:
  44:	e59f608c 	ldr	r6, [pc, #140]	; d8 <__cs3_start_c+0x94>
  48:	e3560000 	cmp	r6, #0
  4c:	e92d4080 	push	{r7, lr}
  50:	e2466001 	sub	r6, r6, #1
  54:	0a00001e 	beq	d4 <__cs3_start_c+0x90>
  58:	e59f507c 	ldr	r5, [pc, #124]	; dc <__cs3_start_c+0x98>
  5c:	e3a00000 	mov	r0, #0
  60:	e3a01000 	mov	r1, #0
  64:	e515200c 	ldr	r2, [r5, #-12]
  68:	e515e010 	ldr	lr, [r5, #-16]
  6c:	e5154008 	ldr	r4, [r5, #-8]
  70:	e15e0002 	cmp	lr, r2
  74:	00822004 	addeq	r2, r2, r4
  78:	0a000009 	beq	a4 <__cs3_start_c+0x60>
  7c:	e3540000 	cmp	r4, #0
  80:	0a000007 	beq	a4 <__cs3_start_c+0x60>
  84:	e1a07002 	mov	r7, r2
  88:	e1a0c002 	mov	r12, r2
  8c:	e8be000c 	ldm	lr!, {r2, r3}
  90:	e8ac000c 	stmia	r12!, {r2, r3}
  94:	e067300c 	rsb	r3, r7, r12
  98:	e1540003 	cmp	r4, r3
  9c:	e1a0200c 	mov	r2, r12
  a0:	1afffff9 	bne	8c <__cs3_start_c+0x48>
  a4:	e515e004 	ldr	lr, [r5, #-4]
  a8:	e35e0000 	cmp	lr, #0
  ac:	11a03002 	movne	r3, r2
  b0:	0a000003 	beq	c4 <__cs3_start_c+0x80>
  b4:	e8a30003 	stmia	r3!, {r0, r1}
  b8:	e062c003 	rsb	r12, r2, r3
  bc:	e15e000c 	cmp	lr, r12
  c0:	1afffffb 	bne	b4 <__cs3_start_c+0x70>
  c4:	e2466001 	sub	r6, r6, #1
  c8:	e3760001 	cmn	r6, #1
  cc:	e2855014 	add	r5, r5, #20
  d0:	1affffe3 	bne	64 <__cs3_start_c+0x20>
  d4:	eb0002cf 	bl	c18 <__cs3_premain>
  d8:	00000001 	.word	0x00000001
  dc:	00005ad4 	.word	0x00005ad4

000000e0 <__cs3_start_asm_sim>:
  e0:	e28f103c 	add	r1, pc, #60	; 0x3c
  e4:	e3a00016 	mov	r0, #22
  e8:	ef123456 	svc	0x00123456
  ec:	e3500000 	cmp	r0, #0
  f0:	ba000008 	blt	118 <__cs3_start_asm_sim+0x38>
  f4:	e59f2028 	ldr	r2, [pc, #40]	; 124 <__cs3_heap_start_ptr>
  f8:	e59fd01c 	ldr	sp, [pc, #28]	; 11c <__cs3_start_asm_sim+0x3c>
  fc:	e5920008 	ldr	r0, [r2, #8]
 100:	e3500000 	cmp	r0, #0
 104:	11a0d000 	movne	sp, r0
 108:	e59f1010 	ldr	r1, [pc, #16]	; 120 <__cs3_start_asm_sim+0x40>
 10c:	e5920004 	ldr	r0, [r2, #4]
 110:	e3500000 	cmp	r0, #0
 114:	15810000 	strne	r0, [r1]
 118:	eaffffc9 	b	44 <__cs3_start_c>
 11c:	3ffffff8 	.word	0x3ffffff8
 120:	00005f18 	.word	0x00005f18

00000124 <__cs3_heap_start_ptr>:
 124:	00006208 	.word	0x00006208

00000128 <_start>:
 128:	e51fd000 	ldr	sp, [pc, #-0]	; 130 <_start+0x8>
 12c:	eaffffc4 	b	44 <__cs3_start_c>
 130:	3ffffff8 	.word	0x3ffffff8

00000134 <deregister_tm_clones>:
 134:	e92d4008 	push	{r3, lr}
 138:	e59f002c 	ldr	r0, [pc, #44]	; 16c <deregister_tm_clones+0x38>
 13c:	e59f302c 	ldr	r3, [pc, #44]	; 170 <deregister_tm_clones+0x3c>
 140:	e0603003 	rsb	r3, r0, r3
 144:	e3530006 	cmp	r3, #6
 148:	8a000001 	bhi	154 <deregister_tm_clones+0x20>
 14c:	e8bd4008 	pop	{r3, lr}
 150:	e12fff1e 	bx	lr
 154:	e59f3018 	ldr	r3, [pc, #24]	; 174 <deregister_tm_clones+0x40>
 158:	e3530000 	cmp	r3, #0
 15c:	0afffffa 	beq	14c <deregister_tm_clones+0x18>
 160:	e1a0e00f 	mov	lr, pc
 164:	e12fff13 	bx	r3
 168:	eafffff7 	b	14c <deregister_tm_clones+0x18>
 16c:	00005f20 	.word	0x00005f20
 170:	00005f23 	.word	0x00005f23
 174:	00000000 	.word	0x00000000

00000178 <register_tm_clones>:
 178:	e92d4008 	push	{r3, lr}
 17c:	e59f0034 	ldr	r0, [pc, #52]	; 1b8 <register_tm_clones+0x40>
 180:	e59f3034 	ldr	r3, [pc, #52]	; 1bc <register_tm_clones+0x44>
 184:	e0603003 	rsb	r3, r0, r3
 188:	e1a03143 	asr	r3, r3, #2
 18c:	e0833fa3 	add	r3, r3, r3, lsr #31
 190:	e1b010c3 	asrs	r1, r3, #1
 194:	1a000001 	bne	1a0 <register_tm_clones+0x28>
 198:	e8bd4008 	pop	{r3, lr}
 19c:	e12fff1e 	bx	lr
 1a0:	e59f2018 	ldr	r2, [pc, #24]	; 1c0 <register_tm_clones+0x48>
 1a4:	e3520000 	cmp	r2, #0
 1a8:	0afffffa 	beq	198 <register_tm_clones+0x20>
 1ac:	e1a0e00f 	mov	lr, pc
 1b0:	e12fff12 	bx	r2
 1b4:	eafffff7 	b	198 <register_tm_clones+0x20>
 1b8:	00005f20 	.word	0x00005f20
 1bc:	00005f20 	.word	0x00005f20
 1c0:	00000000 	.word	0x00000000

000001c4 <__do_global_dtors_aux>:
 1c4:	e92d4010 	push	{r4, lr}
 1c8:	e59f402c 	ldr	r4, [pc, #44]	; 1fc <__do_global_dtors_aux+0x38>
 1cc:	e5d43000 	ldrb	r3, [r4]
 1d0:	e3530000 	cmp	r3, #0
 1d4:	1a000006 	bne	1f4 <__do_global_dtors_aux+0x30>
 1d8:	ebffffd5 	bl	134 <deregister_tm_clones>
 1dc:	e59f301c 	ldr	r3, [pc, #28]	; 200 <__do_global_dtors_aux+0x3c>
 1e0:	e3530000 	cmp	r3, #0
 1e4:	159f0018 	ldrne	r0, [pc, #24]	; 204 <__do_global_dtors_aux+0x40>
 1e8:	1320f000 	nopne	{0}
 1ec:	e3a03001 	mov	r3, #1
 1f0:	e5c43000 	strb	r3, [r4]
 1f4:	e8bd4010 	pop	{r4, lr}
 1f8:	e12fff1e 	bx	lr
 1fc:	00005f20 	.word	0x00005f20
 200:	00000000 	.word	0x00000000
 204:	00000d20 	.word	0x00000d20

00000208 <frame_dummy>:
 208:	e92d4008 	push	{r3, lr}
 20c:	e59f3034 	ldr	r3, [pc, #52]	; 248 <frame_dummy+0x40>
 210:	e3530000 	cmp	r3, #0
 214:	159f0030 	ldrne	r0, [pc, #48]	; 24c <frame_dummy+0x44>
 218:	159f1030 	ldrne	r1, [pc, #48]	; 250 <frame_dummy+0x48>
 21c:	1320f000 	nopne	{0}
 220:	e59f002c 	ldr	r0, [pc, #44]	; 254 <frame_dummy+0x4c>
 224:	e5903000 	ldr	r3, [r0]
 228:	e3530000 	cmp	r3, #0
 22c:	0a000003 	beq	240 <frame_dummy+0x38>
 230:	e59f3020 	ldr	r3, [pc, #32]	; 258 <frame_dummy+0x50>
 234:	e3530000 	cmp	r3, #0
 238:	11a0e00f 	movne	lr, pc
 23c:	112fff13 	bxne	r3
 240:	e8bd4008 	pop	{r3, lr}
 244:	eaffffcb 	b	178 <register_tm_clones>
 248:	00000000 	.word	0x00000000
 24c:	00000d20 	.word	0x00000d20
 250:	00005f24 	.word	0x00005f24
 254:	00005ad8 	.word	0x00005ad8
 258:	00000000 	.word	0x00000000

0000025c <changePlayerPos>:

}



void changePlayerPos(){
 25c:	e3051f3c 	movw	r1, #24380	; 0x5f3c
 260:	e3401000 	movt	r1, #0
 264:	e5912000 	ldr	r2, [r1]
 268:	e5913004 	ldr	r3, [r1, #4]

int i, j;

for( i = 0 ; i < 3; i++){
  for( j = 0; j < 3; j++){
    if(boards[i][j] == 1){
 26c:	e5911008 	ldr	r1, [r1, #8]
      player_x = 114 + (i * 30);
      player_y = 74 + (j*30);
 270:	e3510001 	cmp	r1, #1
 274:	03a0304a 	moveq	r3, #74	; 0x4a
 278:	e3510001 	cmp	r1, #1
 27c:	03a02072 	moveq	r2, #114	; 0x72

int i, j;

for( i = 0 ; i < 3; i++){
  for( j = 0; j < 3; j++){
    if(boards[i][j] == 1){
 280:	e3051f3c 	movw	r1, #24380	; 0x5f3c
 284:	e3401000 	movt	r1, #0
 288:	e591100c 	ldr	r1, [r1, #12]
      player_x = 114 + (i * 30);
      player_y = 74 + (j*30);
 28c:	e3510001 	cmp	r1, #1
 290:	03a03068 	moveq	r3, #104	; 0x68
 294:	e3510001 	cmp	r1, #1
 298:	03a02072 	moveq	r2, #114	; 0x72

int i, j;

for( i = 0 ; i < 3; i++){
  for( j = 0; j < 3; j++){
    if(boards[i][j] == 1){
 29c:	e3051f3c 	movw	r1, #24380	; 0x5f3c
 2a0:	e3401000 	movt	r1, #0
 2a4:	e5911010 	ldr	r1, [r1, #16]
      player_x = 114 + (i * 30);
      player_y = 74 + (j*30);
 2a8:	e3510001 	cmp	r1, #1
 2ac:	03a03086 	moveq	r3, #134	; 0x86
 2b0:	e3510001 	cmp	r1, #1
 2b4:	03a02072 	moveq	r2, #114	; 0x72

int i, j;

for( i = 0 ; i < 3; i++){
  for( j = 0; j < 3; j++){
    if(boards[i][j] == 1){
 2b8:	e3051f3c 	movw	r1, #24380	; 0x5f3c
 2bc:	e3401000 	movt	r1, #0
 2c0:	e5911014 	ldr	r1, [r1, #20]
      player_x = 114 + (i * 30);
      player_y = 74 + (j*30);
 2c4:	e3510001 	cmp	r1, #1
 2c8:	03a0304a 	moveq	r3, #74	; 0x4a
 2cc:	e3510001 	cmp	r1, #1
 2d0:	03a02090 	moveq	r2, #144	; 0x90

int i, j;

for( i = 0 ; i < 3; i++){
  for( j = 0; j < 3; j++){
    if(boards[i][j] == 1){
 2d4:	e3051f3c 	movw	r1, #24380	; 0x5f3c
 2d8:	e3401000 	movt	r1, #0
 2dc:	e5911018 	ldr	r1, [r1, #24]
      player_x = 114 + (i * 30);
      player_y = 74 + (j*30);
 2e0:	e3510001 	cmp	r1, #1
 2e4:	03a03068 	moveq	r3, #104	; 0x68
 2e8:	e3510001 	cmp	r1, #1
 2ec:	03a02090 	moveq	r2, #144	; 0x90

int i, j;

for( i = 0 ; i < 3; i++){
  for( j = 0; j < 3; j++){
    if(boards[i][j] == 1){
 2f0:	e3051f3c 	movw	r1, #24380	; 0x5f3c
 2f4:	e3401000 	movt	r1, #0
 2f8:	e591101c 	ldr	r1, [r1, #28]
      player_x = 114 + (i * 30);
      player_y = 74 + (j*30);
 2fc:	e3510001 	cmp	r1, #1
 300:	03a03086 	moveq	r3, #134	; 0x86
 304:	e3510001 	cmp	r1, #1
 308:	03a02090 	moveq	r2, #144	; 0x90

int i, j;

for( i = 0 ; i < 3; i++){
  for( j = 0; j < 3; j++){
    if(boards[i][j] == 1){
 30c:	e3051f3c 	movw	r1, #24380	; 0x5f3c
 310:	e3401000 	movt	r1, #0
 314:	e5911020 	ldr	r1, [r1, #32]
      player_x = 114 + (i * 30);
      player_y = 74 + (j*30);
 318:	e3510001 	cmp	r1, #1
 31c:	03a0304a 	moveq	r3, #74	; 0x4a
 320:	e3510001 	cmp	r1, #1
 324:	03a020ae 	moveq	r2, #174	; 0xae

int i, j;

for( i = 0 ; i < 3; i++){
  for( j = 0; j < 3; j++){
    if(boards[i][j] == 1){
 328:	e3051f3c 	movw	r1, #24380	; 0x5f3c
 32c:	e3401000 	movt	r1, #0
 330:	e5911024 	ldr	r1, [r1, #36]	; 0x24
      player_x = 114 + (i * 30);
      player_y = 74 + (j*30);
 334:	e3510001 	cmp	r1, #1
 338:	03a03068 	moveq	r3, #104	; 0x68
 33c:	e3510001 	cmp	r1, #1
 340:	03a020ae 	moveq	r2, #174	; 0xae

int i, j;

for( i = 0 ; i < 3; i++){
  for( j = 0; j < 3; j++){
    if(boards[i][j] == 1){
 344:	e3051f3c 	movw	r1, #24380	; 0x5f3c
 348:	e3401000 	movt	r1, #0
 34c:	e5911028 	ldr	r1, [r1, #40]	; 0x28
      player_x = 114 + (i * 30);
      player_y = 74 + (j*30);
 350:	e3510001 	cmp	r1, #1
 354:	03a03086 	moveq	r3, #134	; 0x86
 358:	e3510001 	cmp	r1, #1
 35c:	03a020ae 	moveq	r2, #174	; 0xae
 360:	e3051f3c 	movw	r1, #24380	; 0x5f3c
 364:	e3401000 	movt	r1, #0
 368:	e5812000 	str	r2, [r1]
 36c:	e5813004 	str	r3, [r1, #4]
 370:	e12fff1e 	bx	lr

00000374 <update>:



}

void update(){
 374:	e3a03000 	mov	r3, #0

int i ;
for(i = 0; i < 12; i++){

obstacal_x[i] += obstacleMov_x[i];
 378:	e3052f3c 	movw	r2, #24380	; 0x5f3c
 37c:	e3402000 	movt	r2, #0
 380:	e282102c 	add	r1, r2, #44	; 0x2c
 384:	e282007c 	add	r0, r2, #124	; 0x7c
 388:	e793c001 	ldr	r12, [r3, r1]
 38c:	e7930000 	ldr	r0, [r3, r0]
 390:	e08c0000 	add	r0, r12, r0
 394:	e7830001 	str	r0, [r3, r1]
obstacal_y[i] += obstacleMov_y[i];
 398:	e28210cc 	add	r1, r2, #204	; 0xcc
 39c:	e2820f47 	add	r0, r2, #284	; 0x11c
 3a0:	e793c001 	ldr	r12, [r3, r1]
 3a4:	e7930000 	ldr	r0, [r3, r0]
 3a8:	e08c0000 	add	r0, r12, r0
 3ac:	e7830001 	str	r0, [r3, r1]
 3b0:	e2833004 	add	r3, r3, #4
}

void update(){

int i ;
for(i = 0; i < 12; i++){
 3b4:	e3530030 	cmp	r3, #48	; 0x30
 3b8:	1afffff0 	bne	380 <update+0xc>


}


}
 3bc:	e12fff1e 	bx	lr

000003c0 <plot_pixel>:



void plot_pixel(int x, int y, short int line_color)
{
	*(short int *)(pixel_buffer_start + (y << 10) + (x << 1)) = line_color;
 3c0:	e3053f3c 	movw	r3, #24380	; 0x5f3c
 3c4:	e3403000 	movt	r3, #0
 3c8:	e593316c 	ldr	r3, [r3, #364]	; 0x16c
 3cc:	e1a00080 	lsl	r0, r0, #1
 3d0:	e0831501 	add	r1, r3, r1, lsl #10
 3d4:	e18120b0 	strh	r2, [r1, r0]
 3d8:	e12fff1e 	bx	lr

000003dc <drawBoard>:
drawPlayer(player_x, player_y);
//draw player subroutine

}

void drawBoard( int xPos, int yPos){
 3dc:	e92d4ff8 	push	{r3, r4, r5, r6, r7, r8, r9, r10, r11, lr}
 3e0:	e1a07000 	mov	r7, r0
 3e4:	e1a06001 	mov	r6, r1
 3e8:	e3e08000 	mvn	r8, #0
 3ec:	e300ad24 	movw	r10, #3364	; 0xd24
 3f0:	e340a000 	movt	r10, #0
 3f4:	e3a0b000 	mov	r11, #0

    int i, j;

    for(i = 0; i < 90; i++){
 3f8:	e3019fa3 	movw	r9, #8099	; 0x1fa3
 3fc:	ea00000a 	b	42c <drawBoard+0x50>
      for( j = 0; j < 90; j++){

        plot_pixel( xPos + j, yPos + i, board[i*90 + j]);
 400:	e0840007 	add	r0, r4, r7
 404:	e1a01006 	mov	r1, r6
 408:	e1f520f2 	ldrsh	r2, [r5, #2]!
 40c:	ebffffeb 	bl	3c0 <plot_pixel>
void drawBoard( int xPos, int yPos){

    int i, j;

    for(i = 0; i < 90; i++){
      for( j = 0; j < 90; j++){
 410:	e2844001 	add	r4, r4, #1
 414:	e354005a 	cmp	r4, #90	; 0x5a
 418:	1afffff8 	bne	400 <drawBoard+0x24>
 41c:	e288805a 	add	r8, r8, #90	; 0x5a
 420:	e2866001 	add	r6, r6, #1

void drawBoard( int xPos, int yPos){

    int i, j;

    for(i = 0; i < 90; i++){
 424:	e1580009 	cmp	r8, r9
 428:	08bd8ff8 	popeq	{r3, r4, r5, r6, r7, r8, r9, r10, r11, pc}
drawPlayer(player_x, player_y);
//draw player subroutine

}

void drawBoard( int xPos, int yPos){
 42c:	e08a5088 	add	r5, r10, r8, lsl #1
 430:	e1a0400b 	mov	r4, r11
 434:	eafffff1 	b	400 <drawBoard+0x24>

00000438 <drawPlayer>:

}



void drawPlayer(int x, int y){
 438:	e92d4ff8 	push	{r3, r4, r5, r6, r7, r8, r9, r10, r11, lr}
 43c:	e1a07000 	mov	r7, r0
 440:	e1a06001 	mov	r6, r1
 444:	e3e08000 	mvn	r8, #0
 448:	e59fb040 	ldr	r11, [pc, #64]	; 490 <drawPlayer+0x58>
 44c:	e3a09000 	mov	r9, #0

  int i, j;

  for(i = 0; i < 30; i++){
 450:	e300a383 	movw	r10, #899	; 0x383
 454:	ea00000a 	b	484 <drawPlayer+0x4c>
    for( j = 0; j < 30; j++){

      plot_pixel( x + j, y + i, player[i*30 + j]);
 458:	e0840007 	add	r0, r4, r7
 45c:	e1a01006 	mov	r1, r6
 460:	e1f520f2 	ldrsh	r2, [r5, #2]!
 464:	ebffffd5 	bl	3c0 <plot_pixel>
void drawPlayer(int x, int y){

  int i, j;

  for(i = 0; i < 30; i++){
    for( j = 0; j < 30; j++){
 468:	e2844001 	add	r4, r4, #1
 46c:	e354001e 	cmp	r4, #30
 470:	1afffff8 	bne	458 <drawPlayer+0x20>
 474:	e288801e 	add	r8, r8, #30
 478:	e2866001 	add	r6, r6, #1

void drawPlayer(int x, int y){

  int i, j;

  for(i = 0; i < 30; i++){
 47c:	e158000a 	cmp	r8, r10
 480:	08bd8ff8 	popeq	{r3, r4, r5, r6, r7, r8, r9, r10, r11, pc}

}



void drawPlayer(int x, int y){
 484:	e08b5088 	add	r5, r11, r8, lsl #1
 488:	e1a04009 	mov	r4, r9
 48c:	eafffff1 	b	458 <drawPlayer+0x20>
 490:	00004c6c 	.word	0x00004c6c

00000494 <drawObstacle>:

  }
}
//hi

void drawObstacle(int x, int y){
 494:	e92d4ff8 	push	{r3, r4, r5, r6, r7, r8, r9, r10, r11, lr}
 498:	e1a07000 	mov	r7, r0
 49c:	e1a06001 	mov	r6, r1
 4a0:	e3e08000 	mvn	r8, #0
 4a4:	e59fb040 	ldr	r11, [pc, #64]	; 4ec <drawObstacle+0x58>
 4a8:	e3a09000 	mov	r9, #0

  int i, j;

  for(i = 0; i < 30; i++){
 4ac:	e300a383 	movw	r10, #899	; 0x383
 4b0:	ea00000a 	b	4e0 <drawObstacle+0x4c>
    for( j = 0; j < 30; j++){

      plot_pixel( x + j, y + i, obstacle[i*30 + j]);
 4b4:	e0840007 	add	r0, r4, r7
 4b8:	e1a01006 	mov	r1, r6
 4bc:	e1f520f2 	ldrsh	r2, [r5, #2]!
 4c0:	ebffffbe 	bl	3c0 <plot_pixel>
void drawObstacle(int x, int y){

  int i, j;

  for(i = 0; i < 30; i++){
    for( j = 0; j < 30; j++){
 4c4:	e2844001 	add	r4, r4, #1
 4c8:	e354001e 	cmp	r4, #30
 4cc:	1afffff8 	bne	4b4 <drawObstacle+0x20>
 4d0:	e288801e 	add	r8, r8, #30
 4d4:	e2866001 	add	r6, r6, #1

void drawObstacle(int x, int y){

  int i, j;

  for(i = 0; i < 30; i++){
 4d8:	e158000a 	cmp	r8, r10
 4dc:	08bd8ff8 	popeq	{r3, r4, r5, r6, r7, r8, r9, r10, r11, pc}

  }
}
//hi

void drawObstacle(int x, int y){
 4e0:	e08b5088 	add	r5, r11, r8, lsl #1
 4e4:	e1a04009 	mov	r4, r9
 4e8:	eafffff1 	b	4b4 <drawObstacle+0x20>
 4ec:	00005374 	.word	0x00005374

000004f0 <draw>:
}


}

void draw(){
 4f0:	e92d4038 	push	{r3, r4, r5, lr}
 4f4:	e3a04000 	mov	r4, #0

int i, j;

for(i = 0; i < 12; i++){
    if((obstacal_x[i] >= 0 && obstacal_x[i] <= 320) && (obstacal_y[i] >= 0 && obstacal_y[i] <= 240)){
 4f8:	e3055f3c 	movw	r5, #24380	; 0x5f3c
 4fc:	e3405000 	movt	r5, #0
 500:	e285302c 	add	r3, r5, #44	; 0x2c
 504:	e7940003 	ldr	r0, [r4, r3]
 508:	e3500d05 	cmp	r0, #320	; 0x140
 50c:	8a000004 	bhi	524 <draw+0x34>
 510:	e28530cc 	add	r3, r5, #204	; 0xcc
 514:	e7941003 	ldr	r1, [r4, r3]
 518:	e35100f0 	cmp	r1, #240	; 0xf0
 51c:	8a000000 	bhi	524 <draw+0x34>
      drawObstacle(obstacal_x[i], obstacal_y[i]);
 520:	ebffffdb 	bl	494 <drawObstacle>
 524:	e2844004 	add	r4, r4, #4

void draw(){

int i, j;

for(i = 0; i < 12; i++){
 528:	e3540030 	cmp	r4, #48	; 0x30
 52c:	1afffff3 	bne	500 <draw+0x10>
    if((obstacal_x[i] >= 0 && obstacal_x[i] <= 320) && (obstacal_y[i] >= 0 && obstacal_y[i] <= 240)){
      drawObstacle(obstacal_x[i], obstacal_y[i]);
    }
}

drawPlayer(player_x, player_y);
 530:	e3053f3c 	movw	r3, #24380	; 0x5f3c
 534:	e3403000 	movt	r3, #0
 538:	e5930000 	ldr	r0, [r3]
 53c:	e5931004 	ldr	r1, [r3, #4]
 540:	ebffffbc 	bl	438 <drawPlayer>
 544:	e8bd8038 	pop	{r3, r4, r5, pc}

00000548 <clearObstacle>:
  }
}

}

void clearObstacle(){
 548:	e92d41f0 	push	{r4, r5, r6, r7, r8, lr}
 54c:	e3a05000 	mov	r5, #0
 550:	e1a08005 	mov	r8, r5
  for( i = 0; i < 12 ; i++){

    for(k = 0; k < 30; k++){
      for( j = 0; j < 30; j++){

        plot_pixel( obstacal_x[i] + j, obstacal_y[i] + k, 0x0000);
 554:	e3056f3c 	movw	r6, #24380	; 0x5f3c
 558:	e3406000 	movt	r6, #0
 55c:	ea000012 	b	5ac <clearObstacle+0x64>
 560:	e286302c 	add	r3, r6, #44	; 0x2c
 564:	e7950003 	ldr	r0, [r5, r3]
 568:	e28630cc 	add	r3, r6, #204	; 0xcc
 56c:	e7951003 	ldr	r1, [r5, r3]
 570:	e0840000 	add	r0, r4, r0
 574:	e0871001 	add	r1, r7, r1
 578:	e1a02008 	mov	r2, r8
 57c:	ebffff8f 	bl	3c0 <plot_pixel>

  int i, k, j;
  for( i = 0; i < 12 ; i++){

    for(k = 0; k < 30; k++){
      for( j = 0; j < 30; j++){
 580:	e2844001 	add	r4, r4, #1
 584:	e354001e 	cmp	r4, #30
 588:	1afffff4 	bne	560 <clearObstacle+0x18>
void clearObstacle(){

  int i, k, j;
  for( i = 0; i < 12 ; i++){

    for(k = 0; k < 30; k++){
 58c:	e2877001 	add	r7, r7, #1
 590:	e357001e 	cmp	r7, #30
 594:	0a000001 	beq	5a0 <clearObstacle+0x58>
  }
}

}

void clearObstacle(){
 598:	e1a04008 	mov	r4, r8
 59c:	eaffffef 	b	560 <clearObstacle+0x18>
 5a0:	e2855004 	add	r5, r5, #4

  int i, k, j;
  for( i = 0; i < 12 ; i++){
 5a4:	e3550030 	cmp	r5, #48	; 0x30
 5a8:	08bd81f0 	popeq	{r4, r5, r6, r7, r8, pc}
  }
}

}

void clearObstacle(){
 5ac:	e1a07008 	mov	r7, r8
 5b0:	eafffff8 	b	598 <clearObstacle+0x50>

000005b4 <drawBackground>:



}

void drawBackground(){
 5b4:	e92d4070 	push	{r4, r5, r6, lr}

  int i = 0;
 5b8:	e3a05000 	mov	r5, #0



}

void drawBackground(){
 5bc:	e1a06005 	mov	r6, r5
 5c0:	ea000009 	b	5ec <drawBackground+0x38>

  int i = 0;
  for (; i < 320; i++) {
    int j = 0;
    for (; j < 240; j++) {
      plot_pixel(i, j, 0x0000);
 5c4:	e1a00005 	mov	r0, r5
 5c8:	e1a01004 	mov	r1, r4
 5cc:	e1a02006 	mov	r2, r6
 5d0:	ebffff7a 	bl	3c0 <plot_pixel>
void drawBackground(){

  int i = 0;
  for (; i < 320; i++) {
    int j = 0;
    for (; j < 240; j++) {
 5d4:	e2844001 	add	r4, r4, #1
 5d8:	e35400f0 	cmp	r4, #240	; 0xf0
 5dc:	1afffff8 	bne	5c4 <drawBackground+0x10>
}

void drawBackground(){

  int i = 0;
  for (; i < 320; i++) {
 5e0:	e2855001 	add	r5, r5, #1
 5e4:	e3550d05 	cmp	r5, #320	; 0x140
 5e8:	08bd8070 	popeq	{r4, r5, r6, pc}



}

void drawBackground(){
 5ec:	e1a04006 	mov	r4, r6
 5f0:	eafffff3 	b	5c4 <drawBackground+0x10>

000005f4 <clear_screen>:
{
	*(short int *)(pixel_buffer_start + (y << 10) + (x << 1)) = line_color;
}


void clear_screen() {
 5f4:	e92d4070 	push	{r4, r5, r6, lr}
	int i = 0;
 5f8:	e3a05000 	mov	r5, #0
{
	*(short int *)(pixel_buffer_start + (y << 10) + (x << 1)) = line_color;
}


void clear_screen() {
 5fc:	e1a06005 	mov	r6, r5
 600:	ea000009 	b	62c <clear_screen+0x38>
	int i = 0;
	for (; i < 320; i++) {
		int j = 0;
		for (; j < 240; j++) {
			plot_pixel(i, j, 0x0000);
 604:	e1a00005 	mov	r0, r5
 608:	e1a01004 	mov	r1, r4
 60c:	e1a02006 	mov	r2, r6
 610:	ebffff6a 	bl	3c0 <plot_pixel>

void clear_screen() {
	int i = 0;
	for (; i < 320; i++) {
		int j = 0;
		for (; j < 240; j++) {
 614:	e2844001 	add	r4, r4, #1
 618:	e35400f0 	cmp	r4, #240	; 0xf0
 61c:	1afffff8 	bne	604 <clear_screen+0x10>
}


void clear_screen() {
	int i = 0;
	for (; i < 320; i++) {
 620:	e2855001 	add	r5, r5, #1
 624:	e3550d05 	cmp	r5, #320	; 0x140
 628:	08bd8070 	popeq	{r4, r5, r6, pc}
{
	*(short int *)(pixel_buffer_start + (y << 10) + (x << 1)) = line_color;
}


void clear_screen() {
 62c:	e1a04006 	mov	r4, r6
 630:	eafffff3 	b	604 <clear_screen+0x10>

00000634 <wait_for_vsync>:

void wait_for_vsync() {
	volatile int* pixel_ctrl_ptr = 0xFF203020;
	register int status;

	*pixel_ctrl_ptr = 1;
 634:	e3033fff 	movw	r3, #16383	; 0x3fff
 638:	e34f3f20 	movt	r3, #65312	; 0xff20
 63c:	e3a02001 	mov	r2, #1
 640:	e5032fdf 	str	r2, [r3, #-4063]	; 0xfffff021

	status = *(pixel_ctrl_ptr + 3);
 644:	e5133fd3 	ldr	r3, [r3, #-4051]	; 0xfffff02d
	while ((status & 0x01) != 0) {
 648:	e3130001 	tst	r3, #1
 64c:	012fff1e 	bxeq	lr
		status = *(pixel_ctrl_ptr + 3);
 650:	e3032fff 	movw	r2, #16383	; 0x3fff
 654:	e34f2f20 	movt	r2, #65312	; 0xff20
 658:	e5123fd3 	ldr	r3, [r2, #-4051]	; 0xfffff02d
	register int status;

	*pixel_ctrl_ptr = 1;

	status = *(pixel_ctrl_ptr + 3);
	while ((status & 0x01) != 0) {
 65c:	e3130001 	tst	r3, #1
 660:	1afffffc 	bne	658 <wait_for_vsync+0x24>
 664:	e12fff1e 	bx	lr

00000668 <main>:
//initialize playrt position




int main(void) {
 668:	e92d4ff8 	push	{r3, r4, r5, r6, r7, r8, r9, r10, r11, lr}
  boards[1][2] = 1; // when theres a 1 on the board, that means theres a player on it
 66c:	e3054f3c 	movw	r4, #24380	; 0x5f3c
 670:	e3404000 	movt	r4, #0
 674:	e3a03001 	mov	r3, #1
 678:	e584301c 	str	r3, [r4, #28]


    volatile int *pixel_ctrl_ptr = (int *)0xFF203020;

    *(pixel_ctrl_ptr + 1) = 0xC8000000; // first store the address in the
 67c:	e3035fff 	movw	r5, #16383	; 0x3fff
 680:	e34f5f20 	movt	r5, #65312	; 0xff20
 684:	e3a03332 	mov	r3, #-939524096	; 0xc8000000
 688:	e5053fdb 	str	r3, [r5, #-4059]	; 0xfffff025
										// back buffer
    wait_for_vsync();
 68c:	ebffffe8 	bl	634 <wait_for_vsync>

    pixel_buffer_start = *pixel_ctrl_ptr;
 690:	e5153fdf 	ldr	r3, [r5, #-4063]	; 0xfffff021
 694:	e584316c 	str	r3, [r4, #364]	; 0x16c

    *(pixel_ctrl_ptr + 1) = 0xC0000000;
 698:	e3a03103 	mov	r3, #-1073741824	; 0xc0000000
 69c:	e5053fdb 	str	r3, [r5, #-4059]	; 0xfffff025
    pixel_buffer_start = *(pixel_ctrl_ptr + 1); // we draw on the back buffer
 6a0:	e5153fdb 	ldr	r3, [r5, #-4059]	; 0xfffff025
 6a4:	e584316c 	str	r3, [r4, #364]	; 0x16c
	  clear_screen();
 6a8:	ebffffd1 	bl	5f4 <clear_screen>


  //initialize and load sprites here
drawBackground();
 6ac:	ebffffc0 	bl	5b4 <drawBackground>
 6b0:	e3a04000 	mov	r4, #0



//initialize all the obstacles
int i;
for( i = 0; i < 12; i++){
 6b4:	e1a05004 	mov	r5, r4
      obstacleMov_x[i] = 0;
      obstacleMov_y[i] = 1;


    }else{
      obstacal_x[i] = 114 + (rand()%3)*30; //+ rand()%70;
 6b8:	e3056f3c 	movw	r6, #24380	; 0x5f3c
 6bc:	e3406000 	movt	r6, #0
 6c0:	e3058556 	movw	r8, #21846	; 0x5556
 6c4:	e3458555 	movt	r8, #21845	; 0x5555
      obstacal_y[i] = 239 ;
 6c8:	e3a0b0ef 	mov	r11, #239	; 0xef
      obstacleMov_x[i] = 0;
 6cc:	e1a07004 	mov	r7, r4
      obstacleMov_y[i] = -1;
 6d0:	e3e0a000 	mvn	r10, #0
    }else if (i%4 == 2){

      obstacal_x[i] = 114 + (rand()%3)*30; //+ rand()%70;
      obstacal_y[i] = 0;
      obstacleMov_x[i] = 0;
      obstacleMov_y[i] = 1;
 6d4:	e3a09001 	mov	r9, #1
//initialize all the obstacles
int i;
for( i = 0; i < 12; i++){

//try to do horizontal movement first
    if(i%4 == 0){
 6d8:	e3150003 	tst	r5, #3
 6dc:	1a000010 	bne	724 <main+0xbc>
      obstacal_x[i] = 0; //- rand()%70;
 6e0:	e286302c 	add	r3, r6, #44	; 0x2c
 6e4:	e7847003 	str	r7, [r4, r3]
      obstacal_y[i] = 74 + (rand()%3)*30;
 6e8:	eb00007d 	bl	8e4 <rand>
 6ec:	e28620cc 	add	r2, r6, #204	; 0xcc
 6f0:	e0c31098 	smull	r1, r3, r8, r0
 6f4:	e0433fc0 	sub	r3, r3, r0, asr #31
 6f8:	e0833083 	add	r3, r3, r3, lsl #1
 6fc:	e0630000 	rsb	r0, r3, r0
 700:	e0600200 	rsb	r0, r0, r0, lsl #4
 704:	e1a00080 	lsl	r0, r0, #1
 708:	e280004a 	add	r0, r0, #74	; 0x4a
 70c:	e7840002 	str	r0, [r4, r2]
      obstacleMov_x[i] = 1;
 710:	e286307c 	add	r3, r6, #124	; 0x7c
 714:	e7849003 	str	r9, [r4, r3]
      obstacleMov_y[i] = 0;
 718:	e2863f47 	add	r3, r6, #284	; 0x11c
 71c:	e7847003 	str	r7, [r4, r3]
 720:	ea00003b 	b	814 <main+0x1ac>
    }else if(i%4 == 1){
 724:	e1a03fc5 	asr	r3, r5, #31
 728:	e1a03f23 	lsr	r3, r3, #30
 72c:	e0852003 	add	r2, r5, r3
 730:	e2022003 	and	r2, r2, #3
 734:	e0633002 	rsb	r3, r3, r2
 738:	e3530001 	cmp	r3, #1
 73c:	1a000011 	bne	788 <main+0x120>
      obstacal_x[i] = 310; //+ rand()%70;
 740:	e286302c 	add	r3, r6, #44	; 0x2c
 744:	e3002136 	movw	r2, #310	; 0x136
 748:	e7842003 	str	r2, [r4, r3]
      obstacal_y[i] = 74 + (rand()%3)*30;
 74c:	eb000064 	bl	8e4 <rand>
 750:	e28620cc 	add	r2, r6, #204	; 0xcc
 754:	e0c31098 	smull	r1, r3, r8, r0
 758:	e0433fc0 	sub	r3, r3, r0, asr #31
 75c:	e0833083 	add	r3, r3, r3, lsl #1
 760:	e0630000 	rsb	r0, r3, r0
 764:	e0600200 	rsb	r0, r0, r0, lsl #4
 768:	e1a00080 	lsl	r0, r0, #1
 76c:	e280004a 	add	r0, r0, #74	; 0x4a
 770:	e7840002 	str	r0, [r4, r2]
      obstacleMov_x[i] = -1;
 774:	e286307c 	add	r3, r6, #124	; 0x7c
 778:	e784a003 	str	r10, [r4, r3]
      obstacleMov_y[i] = 0;
 77c:	e2863f47 	add	r3, r6, #284	; 0x11c
 780:	e7847003 	str	r7, [r4, r3]
 784:	ea000022 	b	814 <main+0x1ac>
    }else if (i%4 == 2){
 788:	e3530002 	cmp	r3, #2
 78c:	1a000010 	bne	7d4 <main+0x16c>

      obstacal_x[i] = 114 + (rand()%3)*30; //+ rand()%70;
 790:	eb000053 	bl	8e4 <rand>
 794:	e286202c 	add	r2, r6, #44	; 0x2c
 798:	e0c31098 	smull	r1, r3, r8, r0
 79c:	e0433fc0 	sub	r3, r3, r0, asr #31
 7a0:	e0833083 	add	r3, r3, r3, lsl #1
 7a4:	e0630000 	rsb	r0, r3, r0
 7a8:	e0600200 	rsb	r0, r0, r0, lsl #4
 7ac:	e1a00080 	lsl	r0, r0, #1
 7b0:	e2800072 	add	r0, r0, #114	; 0x72
 7b4:	e7840002 	str	r0, [r4, r2]
      obstacal_y[i] = 0;
 7b8:	e28630cc 	add	r3, r6, #204	; 0xcc
 7bc:	e7847003 	str	r7, [r4, r3]
      obstacleMov_x[i] = 0;
 7c0:	e286307c 	add	r3, r6, #124	; 0x7c
 7c4:	e7847003 	str	r7, [r4, r3]
      obstacleMov_y[i] = 1;
 7c8:	e2863f47 	add	r3, r6, #284	; 0x11c
 7cc:	e7849003 	str	r9, [r4, r3]
 7d0:	ea00000f 	b	814 <main+0x1ac>


    }else{
      obstacal_x[i] = 114 + (rand()%3)*30; //+ rand()%70;
 7d4:	eb000042 	bl	8e4 <rand>
 7d8:	e286202c 	add	r2, r6, #44	; 0x2c
 7dc:	e0c31098 	smull	r1, r3, r8, r0
 7e0:	e0433fc0 	sub	r3, r3, r0, asr #31
 7e4:	e0833083 	add	r3, r3, r3, lsl #1
 7e8:	e0630000 	rsb	r0, r3, r0
 7ec:	e0600200 	rsb	r0, r0, r0, lsl #4
 7f0:	e1a00080 	lsl	r0, r0, #1
 7f4:	e2800072 	add	r0, r0, #114	; 0x72
 7f8:	e7840002 	str	r0, [r4, r2]
      obstacal_y[i] = 239 ;
 7fc:	e28630cc 	add	r3, r6, #204	; 0xcc
 800:	e784b003 	str	r11, [r4, r3]
      obstacleMov_x[i] = 0;
 804:	e286307c 	add	r3, r6, #124	; 0x7c
 808:	e7847003 	str	r7, [r4, r3]
      obstacleMov_y[i] = -1;
 80c:	e2863f47 	add	r3, r6, #284	; 0x11c
 810:	e784a003 	str	r10, [r4, r3]



//initialize all the obstacles
int i;
for( i = 0; i < 12; i++){
 814:	e2855001 	add	r5, r5, #1
 818:	e2844004 	add	r4, r4, #4
 81c:	e355000c 	cmp	r5, #12
 820:	1affffac 	bne	6d8 <main+0x70>



while(1){
clear_screen();
drawBoard(114, 74);
 824:	e3a06072 	mov	r6, #114	; 0x72
 828:	e3a0504a 	mov	r5, #74	; 0x4a
  if(gameOver){
 82c:	e3054f3c 	movw	r4, #24380	; 0x5f3c
 830:	e3404000 	movt	r4, #0
  draw();
  update();

//clearObstacle();
  wait_for_vsync();
  pixel_buffer_start = *(pixel_ctrl_ptr + 1); //new back buffer
 834:	e3037fff 	movw	r7, #16383	; 0x3fff
 838:	e34f7f20 	movt	r7, #65312	; 0xff20




while(1){
clear_screen();
 83c:	ebffff6c 	bl	5f4 <clear_screen>
drawBoard(114, 74);
 840:	e1a00006 	mov	r0, r6
 844:	e1a01005 	mov	r1, r5
 848:	ebfffee3 	bl	3dc <drawBoard>
  if(gameOver){
 84c:	e5d43170 	ldrb	r3, [r4, #368]	; 0x170
 850:	e3530000 	cmp	r3, #0
 854:	18bd8ff8 	popne	{r3, r4, r5, r6, r7, r8, r9, r10, r11, pc}
    break;
  }

  changePlayerPos();
 858:	ebfffe7f 	bl	25c <changePlayerPos>


  draw();
 85c:	ebffff23 	bl	4f0 <draw>
  update();
 860:	ebfffec3 	bl	374 <update>

//clearObstacle();
  wait_for_vsync();
 864:	ebffff72 	bl	634 <wait_for_vsync>
  pixel_buffer_start = *(pixel_ctrl_ptr + 1); //new back buffer
 868:	e5173fdb 	ldr	r3, [r7, #-4059]	; 0xfffff025
 86c:	e584316c 	str	r3, [r4, #364]	; 0x16c
}
 870:	eafffff1 	b	83c <main+0x1d4>

00000874 <atexit>:
 874:	e1a01000 	mov	r1, r0
 878:	e3a00000 	mov	r0, #0
 87c:	e92d4008 	push	{r3, lr}
 880:	e1a02000 	mov	r2, r0
 884:	e1a03000 	mov	r3, r0
 888:	eb00002c 	bl	940 <__register_exitproc>
 88c:	e8bd4008 	pop	{r3, lr}
 890:	e12fff1e 	bx	lr

00000894 <exit>:
 894:	e92d4008 	push	{r3, lr}
 898:	e3a01000 	mov	r1, #0
 89c:	e1a04000 	mov	r4, r0
 8a0:	eb000063 	bl	a34 <__call_exitprocs>
 8a4:	e59f3018 	ldr	r3, [pc, #24]	; 8c4 <exit+0x30>
 8a8:	e5930000 	ldr	r0, [r3]
 8ac:	e590303c 	ldr	r3, [r0, #60]	; 0x3c
 8b0:	e3530000 	cmp	r3, #0
 8b4:	11a0e00f 	movne	lr, pc
 8b8:	112fff13 	bxne	r3
 8bc:	e1a00004 	mov	r0, r4
 8c0:	eb0000e7 	bl	c64 <_exit>
 8c4:	00005a7c 	.word	0x00005a7c

000008c8 <srand>:
 8c8:	e59f3010 	ldr	r3, [pc, #16]	; 8e0 <srand+0x18>
 8cc:	e5933000 	ldr	r3, [r3]
 8d0:	e3a02000 	mov	r2, #0
 8d4:	e58300a8 	str	r0, [r3, #168]	; 0xa8
 8d8:	e58320ac 	str	r2, [r3, #172]	; 0xac
 8dc:	e12fff1e 	bx	lr
 8e0:	00005ae8 	.word	0x00005ae8

000008e4 <rand>:
 8e4:	e52d4004 	push	{r4}		; (str r4, [sp, #-4]!)
 8e8:	e59f3044 	ldr	r3, [pc, #68]	; 934 <rand+0x50>
 8ec:	e593c000 	ldr	r12, [r3]
 8f0:	e59f4040 	ldr	r4, [pc, #64]	; 938 <rand+0x54>
 8f4:	e59c20a8 	ldr	r2, [r12, #168]	; 0xa8
 8f8:	e0040492 	mul	r4, r2, r4
 8fc:	e59c10ac 	ldr	r1, [r12, #172]	; 0xac
 900:	e59f3034 	ldr	r3, [pc, #52]	; 93c <rand+0x58>
 904:	e0244193 	mla	r4, r3, r1, r4
 908:	e0810392 	umull	r0, r1, r2, r3
 90c:	e3a02001 	mov	r2, #1
 910:	e0922000 	adds	r2, r2, r0
 914:	e0841001 	add	r1, r4, r1
 918:	e3a03000 	mov	r3, #0
 91c:	e0a33001 	adc	r3, r3, r1
 920:	e58c20a8 	str	r2, [r12, #168]	; 0xa8
 924:	e58c30ac 	str	r3, [r12, #172]	; 0xac
 928:	e3c30102 	bic	r0, r3, #-2147483648	; 0x80000000
 92c:	e8bd0010 	ldmfd	sp!, {r4}
 930:	e12fff1e 	bx	lr
 934:	00005ae8 	.word	0x00005ae8
 938:	5851f42d 	.word	0x5851f42d
 93c:	4c957f2d 	.word	0x4c957f2d

00000940 <__register_exitproc>:
 940:	e59fc0e4 	ldr	r12, [pc, #228]	; a2c <__register_exitproc+0xec>
 944:	e92d41f0 	push	{r4, r5, r6, r7, r8, lr}
 948:	e59c4000 	ldr	r4, [r12]
 94c:	e594c148 	ldr	r12, [r4, #328]	; 0x148
 950:	e35c0000 	cmp	r12, #0
 954:	0284cf53 	addeq	r12, r4, #332	; 0x14c
 958:	e59c5004 	ldr	r5, [r12, #4]
 95c:	0584c148 	streq	r12, [r4, #328]	; 0x148
 960:	e355001f 	cmp	r5, #31
 964:	e24dd010 	sub	sp, sp, #16
 968:	e1a06000 	mov	r6, r0
 96c:	da000015 	ble	9c8 <__register_exitproc+0x88>
 970:	e59f00b8 	ldr	r0, [pc, #184]	; a30 <__register_exitproc+0xf0>
 974:	e3500000 	cmp	r0, #0
 978:	1a000001 	bne	984 <__register_exitproc+0x44>
 97c:	e3e00000 	mvn	r0, #0
 980:	ea000018 	b	9e8 <__register_exitproc+0xa8>
 984:	e3a00e19 	mov	r0, #400	; 0x190
 988:	e58d100c 	str	r1, [sp, #12]
 98c:	e58d2008 	str	r2, [sp, #8]
 990:	e58d3004 	str	r3, [sp, #4]
 994:	e320f000 	nop	{0}
 998:	e250c000 	subs	r12, r0, #0
 99c:	e59d100c 	ldr	r1, [sp, #12]
 9a0:	e59d2008 	ldr	r2, [sp, #8]
 9a4:	e59d3004 	ldr	r3, [sp, #4]
 9a8:	0afffff3 	beq	97c <__register_exitproc+0x3c>
 9ac:	e5945148 	ldr	r5, [r4, #328]	; 0x148
 9b0:	e3a00000 	mov	r0, #0
 9b4:	e58c0004 	str	r0, [r12, #4]
 9b8:	e58c5000 	str	r5, [r12]
 9bc:	e584c148 	str	r12, [r4, #328]	; 0x148
 9c0:	e58c0188 	str	r0, [r12, #392]	; 0x188
 9c4:	e58c018c 	str	r0, [r12, #396]	; 0x18c
 9c8:	e3560000 	cmp	r6, #0
 9cc:	e59c4004 	ldr	r4, [r12, #4]
 9d0:	1a000007 	bne	9f4 <__register_exitproc+0xb4>
 9d4:	e2843002 	add	r3, r4, #2
 9d8:	e2844001 	add	r4, r4, #1
 9dc:	e78c1103 	str	r1, [r12, r3, lsl #2]
 9e0:	e58c4004 	str	r4, [r12, #4]
 9e4:	e3a00000 	mov	r0, #0
 9e8:	e28dd010 	add	sp, sp, #16
 9ec:	e8bd41f0 	pop	{r4, r5, r6, r7, r8, lr}
 9f0:	e12fff1e 	bx	lr
 9f4:	e3a00001 	mov	r0, #1
 9f8:	e1a00410 	lsl	r0, r0, r4
 9fc:	e08c8104 	add	r8, r12, r4, lsl #2
 a00:	e3560002 	cmp	r6, #2
 a04:	e59c7188 	ldr	r7, [r12, #392]	; 0x188
 a08:	e5883108 	str	r3, [r8, #264]	; 0x108
 a0c:	059c318c 	ldreq	r3, [r12, #396]	; 0x18c
 a10:	e1877000 	orr	r7, r7, r0
 a14:	01830000 	orreq	r0, r3, r0
 a18:	e1a05008 	mov	r5, r8
 a1c:	e5882088 	str	r2, [r8, #136]	; 0x88
 a20:	e58c7188 	str	r7, [r12, #392]	; 0x188
 a24:	058c018c 	streq	r0, [r12, #396]	; 0x18c
 a28:	eaffffe9 	b	9d4 <__register_exitproc+0x94>
 a2c:	00005a7c 	.word	0x00005a7c
 a30:	00000000 	.word	0x00000000

00000a34 <__call_exitprocs>:
 a34:	e92d4ff0 	push	{r4, r5, r6, r7, r8, r9, r10, r11, lr}
 a38:	e59f3168 	ldr	r3, [pc, #360]	; ba8 <__call_exitprocs+0x174>
 a3c:	e5933000 	ldr	r3, [r3]
 a40:	e24dd014 	sub	sp, sp, #20
 a44:	e58d3004 	str	r3, [sp, #4]
 a48:	e2833f52 	add	r3, r3, #328	; 0x148
 a4c:	e58d0008 	str	r0, [sp, #8]
 a50:	e58d300c 	str	r3, [sp, #12]
 a54:	e1a07001 	mov	r7, r1
 a58:	e3a08001 	mov	r8, #1
 a5c:	e59d3004 	ldr	r3, [sp, #4]
 a60:	e5936148 	ldr	r6, [r3, #328]	; 0x148
 a64:	e3560000 	cmp	r6, #0
 a68:	e59db00c 	ldr	r11, [sp, #12]
 a6c:	0a000033 	beq	b40 <__call_exitprocs+0x10c>
 a70:	e5965004 	ldr	r5, [r6, #4]
 a74:	e2554001 	subs	r4, r5, #1
 a78:	5286a088 	addpl	r10, r6, #136	; 0x88
 a7c:	5285501f 	addpl	r5, r5, #31
 a80:	508a5105 	addpl	r5, r10, r5, lsl #2
 a84:	5a000007 	bpl	aa8 <__call_exitprocs+0x74>
 a88:	ea000029 	b	b34 <__call_exitprocs+0x100>
 a8c:	e5953000 	ldr	r3, [r5]
 a90:	e1530007 	cmp	r3, r7
 a94:	0a000005 	beq	ab0 <__call_exitprocs+0x7c>
 a98:	e2444001 	sub	r4, r4, #1
 a9c:	e3740001 	cmn	r4, #1
 aa0:	e2455004 	sub	r5, r5, #4
 aa4:	0a000022 	beq	b34 <__call_exitprocs+0x100>
 aa8:	e3570000 	cmp	r7, #0
 aac:	1afffff6 	bne	a8c <__call_exitprocs+0x58>
 ab0:	e5963004 	ldr	r3, [r6, #4]
 ab4:	e06a2005 	rsb	r2, r10, r5
 ab8:	e2433001 	sub	r3, r3, #1
 abc:	e0862002 	add	r2, r6, r2
 ac0:	e1530004 	cmp	r3, r4
 ac4:	e5123078 	ldr	r3, [r2, #-120]	; 0xffffff88
 ac8:	13a01000 	movne	r1, #0
 acc:	05864004 	streq	r4, [r6, #4]
 ad0:	15021078 	strne	r1, [r2, #-120]	; 0xffffff88
 ad4:	e3530000 	cmp	r3, #0
 ad8:	0affffee 	beq	a98 <__call_exitprocs+0x64>
 adc:	e1a02418 	lsl	r2, r8, r4
 ae0:	e5961188 	ldr	r1, [r6, #392]	; 0x188
 ae4:	e1120001 	tst	r2, r1
 ae8:	e5969004 	ldr	r9, [r6, #4]
 aec:	0a000016 	beq	b4c <__call_exitprocs+0x118>
 af0:	e596118c 	ldr	r1, [r6, #396]	; 0x18c
 af4:	e1120001 	tst	r2, r1
 af8:	1a000016 	bne	b58 <__call_exitprocs+0x124>
 afc:	e59d0008 	ldr	r0, [sp, #8]
 b00:	e5151080 	ldr	r1, [r5, #-128]	; 0xffffff80
 b04:	e1a0e00f 	mov	lr, pc
 b08:	e12fff13 	bx	r3
 b0c:	e5963004 	ldr	r3, [r6, #4]
 b10:	e1530009 	cmp	r3, r9
 b14:	1affffd0 	bne	a5c <__call_exitprocs+0x28>
 b18:	e59b3000 	ldr	r3, [r11]
 b1c:	e1530006 	cmp	r3, r6
 b20:	1affffcd 	bne	a5c <__call_exitprocs+0x28>
 b24:	e2444001 	sub	r4, r4, #1
 b28:	e3740001 	cmn	r4, #1
 b2c:	e2455004 	sub	r5, r5, #4
 b30:	1affffdc 	bne	aa8 <__call_exitprocs+0x74>
 b34:	e59f1070 	ldr	r1, [pc, #112]	; bac <__call_exitprocs+0x178>
 b38:	e3510000 	cmp	r1, #0
 b3c:	1a000009 	bne	b68 <__call_exitprocs+0x134>
 b40:	e28dd014 	add	sp, sp, #20
 b44:	e8bd4ff0 	pop	{r4, r5, r6, r7, r8, r9, r10, r11, lr}
 b48:	e12fff1e 	bx	lr
 b4c:	e1a0e00f 	mov	lr, pc
 b50:	e12fff13 	bx	r3
 b54:	eaffffec 	b	b0c <__call_exitprocs+0xd8>
 b58:	e5150080 	ldr	r0, [r5, #-128]	; 0xffffff80
 b5c:	e1a0e00f 	mov	lr, pc
 b60:	e12fff13 	bx	r3
 b64:	eaffffe8 	b	b0c <__call_exitprocs+0xd8>
 b68:	e5963004 	ldr	r3, [r6, #4]
 b6c:	e3530000 	cmp	r3, #0
 b70:	e5963000 	ldr	r3, [r6]
 b74:	1a000008 	bne	b9c <__call_exitprocs+0x168>
 b78:	e3530000 	cmp	r3, #0
 b7c:	0a000006 	beq	b9c <__call_exitprocs+0x168>
 b80:	e1a00006 	mov	r0, r6
 b84:	e58b3000 	str	r3, [r11]
 b88:	e320f000 	nop	{0}
 b8c:	e59b6000 	ldr	r6, [r11]
 b90:	e3560000 	cmp	r6, #0
 b94:	1affffb5 	bne	a70 <__call_exitprocs+0x3c>
 b98:	eaffffe8 	b	b40 <__call_exitprocs+0x10c>
 b9c:	e1a0b006 	mov	r11, r6
 ba0:	e1a06003 	mov	r6, r3
 ba4:	eafffff9 	b	b90 <__call_exitprocs+0x15c>
 ba8:	00005a7c 	.word	0x00005a7c
 bac:	00000000 	.word	0x00000000

00000bb0 <register_fini>:
 bb0:	e92d4008 	push	{r3, lr}
 bb4:	e59f3010 	ldr	r3, [pc, #16]	; bcc <register_fini+0x1c>
 bb8:	e3530000 	cmp	r3, #0
 bbc:	159f000c 	ldrne	r0, [pc, #12]	; bd0 <register_fini+0x20>
 bc0:	1bffff2b 	blne	874 <atexit>
 bc4:	e8bd4008 	pop	{r3, lr}
 bc8:	e12fff1e 	bx	lr
 bcc:	00005aa4 	.word	0x00005aa4
 bd0:	00000bd4 	.word	0x00000bd4

00000bd4 <__libc_fini_array>:
 bd4:	e92d4038 	push	{r3, r4, r5, lr}
 bd8:	e59f5030 	ldr	r5, [pc, #48]	; c10 <__libc_fini_array+0x3c>
 bdc:	e59f4030 	ldr	r4, [pc, #48]	; c14 <__libc_fini_array+0x40>
 be0:	e0654004 	rsb	r4, r5, r4
 be4:	e1b04144 	asrs	r4, r4, #2
 be8:	10855104 	addne	r5, r5, r4, lsl #2
 bec:	0a000004 	beq	c04 <__libc_fini_array+0x30>
 bf0:	e5353004 	ldr	r3, [r5, #-4]!
 bf4:	e1a0e00f 	mov	lr, pc
 bf8:	e12fff13 	bx	r3
 bfc:	e2544001 	subs	r4, r4, #1
 c00:	1afffffa 	bne	bf0 <__libc_fini_array+0x1c>
 c04:	eb0013a6 	bl	5aa4 <__libc_fini>
 c08:	e8bd4038 	pop	{r3, r4, r5, lr}
 c0c:	e12fff1e 	bx	lr
 c10:	00005abc 	.word	0x00005abc
 c14:	00005ac0 	.word	0x00005ac0

00000c18 <__cs3_premain>:
 c18:	e92d4008 	push	{r3, lr}
 c1c:	eb00001d 	bl	c98 <__libc_init_array>
 c20:	e59f3030 	ldr	r3, [pc, #48]	; c58 <__cs3_premain+0x40>
 c24:	e3530000 	cmp	r3, #0
 c28:	15930000 	ldrne	r0, [r3]
 c2c:	01a00003 	moveq	r0, r3
 c30:	e59f3024 	ldr	r3, [pc, #36]	; c5c <__cs3_premain+0x44>
 c34:	e3530000 	cmp	r3, #0
 c38:	15931000 	ldrne	r1, [r3]
 c3c:	01a01003 	moveq	r1, r3
 c40:	e3a02000 	mov	r2, #0
 c44:	ebfffe87 	bl	668 <main>
 c48:	e59f3010 	ldr	r3, [pc, #16]	; c60 <__cs3_premain+0x48>
 c4c:	e3530000 	cmp	r3, #0
 c50:	1bffff0f 	blne	894 <exit>
 c54:	eafffffe 	b	c54 <__cs3_premain+0x3c>
	...
 c60:	00000894 	.word	0x00000894

00000c64 <_exit>:
 c64:	e52de004 	push	{lr}		; (str lr, [sp, #-4]!)
 c68:	e3a00018 	mov	r0, #24
 c6c:	e59f1004 	ldr	r1, [pc, #4]	; c78 <_exit+0x14>
 c70:	ef123456 	svc	0x00123456
 c74:	eafffffe 	b	c74 <_exit+0x10>
 c78:	00020026 	.word	0x00020026

00000c7c <__cs3_isr_interrupt>:
 c7c:	eafffffe 	b	c7c <__cs3_isr_interrupt>

00000c80 <__cs3_isr_undef>:
 c80:	eafffffe 	b	c80 <__cs3_isr_undef>

00000c84 <__cs3_isr_swi>:
 c84:	eafffffe 	b	c84 <__cs3_isr_swi>

00000c88 <__cs3_isr_pabort>:
 c88:	eafffffe 	b	c88 <__cs3_isr_pabort>

00000c8c <__cs3_isr_dabort>:
 c8c:	eafffffe 	b	c8c <__cs3_isr_dabort>

00000c90 <__cs3_isr_irq>:
 c90:	eafffffe 	b	c90 <__cs3_isr_irq>

00000c94 <__cs3_isr_fiq>:
 c94:	eafffffe 	b	c94 <__cs3_isr_fiq>

00000c98 <__libc_init_array>:
 c98:	e92d4070 	push	{r4, r5, r6, lr}
 c9c:	e59f506c 	ldr	r5, [pc, #108]	; d10 <__libc_init_array+0x78>
 ca0:	e59f606c 	ldr	r6, [pc, #108]	; d14 <__libc_init_array+0x7c>
 ca4:	e0656006 	rsb	r6, r5, r6
 ca8:	e1b06146 	asrs	r6, r6, #2
 cac:	12455004 	subne	r5, r5, #4
 cb0:	13a04000 	movne	r4, #0
 cb4:	0a000005 	beq	cd0 <__libc_init_array+0x38>
 cb8:	e5b53004 	ldr	r3, [r5, #4]!
 cbc:	e2844001 	add	r4, r4, #1
 cc0:	e1a0e00f 	mov	lr, pc
 cc4:	e12fff13 	bx	r3
 cc8:	e1560004 	cmp	r6, r4
 ccc:	1afffff9 	bne	cb8 <__libc_init_array+0x20>
 cd0:	e59f5040 	ldr	r5, [pc, #64]	; d18 <__libc_init_array+0x80>
 cd4:	e59f6040 	ldr	r6, [pc, #64]	; d1c <__libc_init_array+0x84>
 cd8:	e0656006 	rsb	r6, r5, r6
 cdc:	eb001368 	bl	5a84 <_init>
 ce0:	e1b06146 	asrs	r6, r6, #2
 ce4:	12455004 	subne	r5, r5, #4
 ce8:	13a04000 	movne	r4, #0
 cec:	0a000005 	beq	d08 <__libc_init_array+0x70>
 cf0:	e5b53004 	ldr	r3, [r5, #4]!
 cf4:	e2844001 	add	r4, r4, #1
 cf8:	e1a0e00f 	mov	lr, pc
 cfc:	e12fff13 	bx	r3
 d00:	e1560004 	cmp	r6, r4
 d04:	1afffff9 	bne	cf0 <__libc_init_array+0x58>
 d08:	e8bd4070 	pop	{r4, r5, r6, lr}
 d0c:	e12fff1e 	bx	lr
 d10:	00005a9c 	.word	0x00005a9c
 d14:	00005a9c 	.word	0x00005a9c
 d18:	00005a9c 	.word	0x00005a9c
 d1c:	00005aa4 	.word	0x00005aa4

Disassembly of section .rodata:

00000d24 <board>:
     d24:	ffffffff ffffffff ffffffff ffffffff     ................
     d34:	ffffffff ffffffff ffffffff ffffffff     ................
     d44:	ffffffff ffffffff ffffffff ffffffff     ................
     d54:	ffffffff ffffffff ffffffff ffffffff     ................
     d64:	ffffffff ffffffff ffffffff ffffffff     ................
     d74:	ffffffff ffffffff ffffffff ffffffff     ................
     d84:	ffffffff ffffffff ffffffff ffffffff     ................
     d94:	ffffffff ffffffff ffffffff ffffffff     ................
     da4:	ffffffff ffffffff ffffffff ffffffff     ................
     db4:	ffffffff ffffffff ffffffff ffffffff     ................
     dc4:	ffffffff ffffffff ffffffff ffffffff     ................
     dd4:	ffffffff fbe4ffff fbe4fbe4 fbe4fbe4     ................
     de4:	fbe4fbe4 fbe4fbe4 fbe4fbe4 fbe4fbe4     ................
     df4:	fbe4fbe4 fbe4fbe4 fbe4fbe4 fbe4fbe4     ................
     e04:	fbe4fbe4 fbe4fbe4 fbe4fbe4 fbe4fbe4     ................
     e14:	fbe4ffff fbe4fbe4 fbe4fbe4 fbe4fbe4     ................
     e24:	fbe4fbe4 fbe4fbe4 fbe4fbe4 fbe4fbe4     ................
     e34:	fbe4fbe4 fbe4fbe4 fbe4fbe4 fbe4fbe4     ................
     e44:	fbe4fbe4 fbe4fbe4 fbe4fbe4 fffffbe4     ................
     e54:	fbe4fbe4 fbe4fbe4 fbe4fbe4 fbe4fbe4     ................
     e64:	fbe4fbe4 fbe4fbe4 fbe4fbe4 fbe4fbe4     ................
     e74:	fbe4fbe4 fbe4fbe4 fbe4fbe4 fbe4fbe4     ................
     e84:	fbe4fbe4 fffffbe4 fbe4ffff fbe4fbe4     ................
     e94:	fbe4fbe4 fbe4fbe4 fbe4fbe4 fbe4fbe4     ................
     ea4:	fbe4fbe4 fbe4fbe4 fbe4fbe4 fbe4fbe4     ................
     eb4:	fbe4fbe4 fbe4fbe4 fbe4fbe4 fbe4fbe4     ................
     ec4:	fbe4fbe4 fbe4ffff fbe4fbe4 fbe4fbe4     ................
     ed4:	fbe4fbe4 fbe4fbe4 fbe4fbe4 fbe4fbe4     ................
     ee4:	fbe4fbe4 fbe4fbe4 fbe4fbe4 fbe4fbe4     ................
     ef4:	fbe4fbe4 fbe4fbe4 fbe4fbe4 fbe4fbe4     ................
     f04:	fffffbe4 fbe4fbe4 fbe4fbe4 fbe4fbe4     ................
     f14:	fbe4fbe4 fbe4fbe4 fbe4fbe4 fbe4fbe4     ................
     f24:	fbe4fbe4 fbe4fbe4 fbe4fbe4 fbe4fbe4     ................
     f34:	fbe4fbe4 fbe4fbe4 fffffbe4 fbe4ffff     ................
     f44:	fbe4fbe4 fbe4fbe4 fbe4fbe4 fbe4fbe4     ................
     f54:	fbe4fbe4 fbe4fbe4 fbe4fbe4 fbe4fbe4     ................
     f64:	fbe4fbe4 fbe4fbe4 fbe4fbe4 fbe4fbe4     ................
     f74:	fbe4fbe4 fbe4fbe4 fbe4ffff fbe4fbe4     ................
     f84:	fbe4fbe4 fbe4fbe4 fbe4fbe4 fbe4fbe4     ................
     f94:	fbe4fbe4 fbe4fbe4 fbe4fbe4 fbe4fbe4     ................
     fa4:	fbe4fbe4 fbe4fbe4 fbe4fbe4 fbe4fbe4     ................
     fb4:	fbe4fbe4 fffffbe4 fbe4fbe4 fbe4fbe4     ................
     fc4:	fbe4fbe4 fbe4fbe4 fbe4fbe4 fbe4fbe4     ................
     fd4:	fbe4fbe4 fbe4fbe4 fbe4fbe4 fbe4fbe4     ................
     fe4:	fbe4fbe4 fbe4fbe4 fbe4fbe4 fffffbe4     ................
     ff4:	fbe4ffff fbe4fbe4 fbe4fbe4 fbe4fbe4     ................
    1004:	fbe4fbe4 fbe4fbe4 fbe4fbe4 fbe4fbe4     ................
    1014:	fbe4fbe4 fbe4fbe4 fbe4fbe4 fbe4fbe4     ................
    1024:	fbe4fbe4 fbe4fbe4 fbe4fbe4 fbe4ffff     ................
    1034:	fbe4fbe4 fbe4fbe4 fbe4fbe4 fbe4fbe4     ................
    1044:	fbe4fbe4 fbe4fbe4 fbe4fbe4 fbe4fbe4     ................
    1054:	fbe4fbe4 fbe4fbe4 fbe4fbe4 fbe4fbe4     ................
    1064:	fbe4fbe4 fbe4fbe4 fffffbe4 fbe4fbe4     ................
    1074:	fbe4fbe4 fbe4fbe4 fbe4fbe4 fbe4fbe4     ................
    1084:	fbe4fbe4 fbe4fbe4 fbe4fbe4 fbe4fbe4     ................
    1094:	fbe4fbe4 fbe4fbe4 fbe4fbe4 fbe4fbe4     ................
    10a4:	fffffbe4 fbe4ffff fbe4fbe4 fbe4fbe4     ................
    10b4:	fbe4fbe4 fbe4fbe4 fbe4fbe4 fbe4fbe4     ................
    10c4:	fbe4fbe4 fbe4fbe4 fbe4fbe4 fbe4fbe4     ................
    10d4:	fbe4fbe4 fbe4fbe4 fbe4fbe4 fbe4fbe4     ................
    10e4:	fbe4ffff fbe4fbe4 fbe4fbe4 fbe4fbe4     ................
    10f4:	fbe4fbe4 fbe4fbe4 fbe4fbe4 fbe4fbe4     ................
    1104:	fbe4fbe4 fbe4fbe4 fbe4fbe4 fbe4fbe4     ................
    1114:	fbe4fbe4 fbe4fbe4 fbe4fbe4 fffffbe4     ................
    1124:	fbe4fbe4 fbe4fbe4 fbe4fbe4 fbe4fbe4     ................
    1134:	fbe4fbe4 fbe4fbe4 fbe4fbe4 fbe4fbe4     ................
    1144:	fbe4fbe4 fbe4fbe4 fbe4fbe4 fbe4fbe4     ................
    1154:	fbe4fbe4 fffffbe4 fbe4ffff fbe4fbe4     ................
    1164:	fbe4fbe4 fbe4fbe4 fbe4fbe4 fbe4fbe4     ................
    1174:	fbe4fbe4 fbe4fbe4 fbe4fbe4 fbe4fbe4     ................
    1184:	fbe4fbe4 fbe4fbe4 fbe4fbe4 fbe4fbe4     ................
    1194:	fbe4fbe4 fbe4ffff fbe4fbe4 fbe4fbe4     ................
    11a4:	fbe4fbe4 fbe4fbe4 fbe4fbe4 fbe4fbe4     ................
    11b4:	fbe4fbe4 fbe4fbe4 fbe4fbe4 fbe4fbe4     ................
    11c4:	fbe4fbe4 fbe4fbe4 fbe4fbe4 fbe4fbe4     ................
    11d4:	fffffbe4 fbe4fbe4 fbe4fbe4 fbe4fbe4     ................
    11e4:	fbe4fbe4 fbe4fbe4 fbe4fbe4 fbe4fbe4     ................
    11f4:	fbe4fbe4 fbe4fbe4 fbe4fbe4 fbe4fbe4     ................
    1204:	fbe4fbe4 fbe4fbe4 fffffbe4 fbe4ffff     ................
    1214:	fbe4fbe4 fbe4fbe4 fbe4fbe4 fbe4fbe4     ................
    1224:	fbe4fbe4 fbe4fbe4 fbe4fbe4 fbe4fbe4     ................
    1234:	fbe4fbe4 fbe4fbe4 fbe4fbe4 fbe4fbe4     ................
    1244:	fbe4fbe4 fbe4fbe4 fbe4ffff fbe4fbe4     ................
    1254:	fbe4fbe4 fbe4fbe4 fbe4fbe4 fbe4fbe4     ................
    1264:	fbe4fbe4 fbe4fbe4 fbe4fbe4 fbe4fbe4     ................
    1274:	fbe4fbe4 fbe4fbe4 fbe4fbe4 fbe4fbe4     ................
    1284:	fbe4fbe4 fffffbe4 fbe4fbe4 fbe4fbe4     ................
    1294:	fbe4fbe4 fbe4fbe4 fbe4fbe4 fbe4fbe4     ................
    12a4:	fbe4fbe4 fbe4fbe4 fbe4fbe4 fbe4fbe4     ................
    12b4:	fbe4fbe4 fbe4fbe4 fbe4fbe4 fffffbe4     ................
    12c4:	fbe4ffff fbe4fbe4 fbe4fbe4 fbe4fbe4     ................
    12d4:	fbe4fbe4 fbe4fbe4 fbe4fbe4 fbe4fbe4     ................
    12e4:	fbe4fbe4 fbe4fbe4 fbe4fbe4 fbe4fbe4     ................
    12f4:	fbe4fbe4 fbe4fbe4 fbe4fbe4 fbe4ffff     ................
    1304:	fbe4fbe4 fbe4fbe4 fbe4fbe4 fbe4fbe4     ................
    1314:	fbe4fbe4 fbe4fbe4 fbe4fbe4 fbe4fbe4     ................
    1324:	fbe4fbe4 fbe4fbe4 fbe4fbe4 fbe4fbe4     ................
    1334:	fbe4fbe4 fbe4fbe4 fffffbe4 fbe4fbe4     ................
    1344:	fbe4fbe4 fbe4fbe4 fbe4fbe4 fbe4fbe4     ................
    1354:	fbe4fbe4 fbe4fbe4 fbe4fbe4 fbe4fbe4     ................
    1364:	fbe4fbe4 fbe4fbe4 fbe4fbe4 fbe4fbe4     ................
    1374:	fffffbe4 fbe4ffff fbe4fbe4 fbe4fbe4     ................
    1384:	fbe4fbe4 fbe4fbe4 fbe4fbe4 fbe4fbe4     ................
    1394:	fbe4fbe4 fbe4fbe4 fbe4fbe4 fbe4fbe4     ................
    13a4:	fbe4fbe4 fbe4fbe4 fbe4fbe4 fbe4fbe4     ................
    13b4:	fbe4ffff fbe4fbe4 fbe4fbe4 fbe4fbe4     ................
    13c4:	fbe4fbe4 fbe4fbe4 fbe4fbe4 fbe4fbe4     ................
    13d4:	fbe4fbe4 fbe4fbe4 fbe4fbe4 fbe4fbe4     ................
    13e4:	fbe4fbe4 fbe4fbe4 fbe4fbe4 fffffbe4     ................
    13f4:	fbe4fbe4 fbe4fbe4 fbe4fbe4 fbe4fbe4     ................
    1404:	fbe4fbe4 fbe4fbe4 fbe4fbe4 fbe4fbe4     ................
    1414:	fbe4fbe4 fbe4fbe4 fbe4fbe4 fbe4fbe4     ................
    1424:	fbe4fbe4 fffffbe4 fbe4ffff fbe4fbe4     ................
    1434:	fbe4fbe4 fbe4fbe4 fbe4fbe4 fbe4fbe4     ................
    1444:	fbe4fbe4 fbe4fbe4 fbe4fbe4 fbe4fbe4     ................
    1454:	fbe4fbe4 fbe4fbe4 fbe4fbe4 fbe4fbe4     ................
    1464:	fbe4fbe4 fbe4ffff fbe4fbe4 fbe4fbe4     ................
    1474:	fbe4fbe4 fbe4fbe4 fbe4fbe4 fbe4fbe4     ................
    1484:	fbe4fbe4 fbe4fbe4 fbe4fbe4 fbe4fbe4     ................
    1494:	fbe4fbe4 fbe4fbe4 fbe4fbe4 fbe4fbe4     ................
    14a4:	fffffbe4 fbe4fbe4 fbe4fbe4 fbe4fbe4     ................
    14b4:	fbe4fbe4 fbe4fbe4 fbe4fbe4 fbe4fbe4     ................
    14c4:	fbe4fbe4 fbe4fbe4 fbe4fbe4 fbe4fbe4     ................
    14d4:	fbe4fbe4 fbe4fbe4 fffffbe4 fbe4ffff     ................
    14e4:	fbe4fbe4 fbe4fbe4 fbe4fbe4 fbe4fbe4     ................
    14f4:	fbe4fbe4 fbe4fbe4 fbe4fbe4 fbe4fbe4     ................
    1504:	fbe4fbe4 fbe4fbe4 fbe4fbe4 fbe4fbe4     ................
    1514:	fbe4fbe4 fbe4fbe4 fbe4ffff fbe4fbe4     ................
    1524:	fbe4fbe4 fbe4fbe4 fbe4fbe4 fbe4fbe4     ................
    1534:	fbe4fbe4 fbe4fbe4 fbe4fbe4 fbe4fbe4     ................
    1544:	fbe4fbe4 fbe4fbe4 fbe4fbe4 fbe4fbe4     ................
    1554:	fbe4fbe4 fffffbe4 fbe4fbe4 fbe4fbe4     ................
    1564:	fbe4fbe4 fbe4fbe4 fbe4fbe4 fbe4fbe4     ................
    1574:	fbe4fbe4 fbe4fbe4 fbe4fbe4 fbe4fbe4     ................
    1584:	fbe4fbe4 fbe4fbe4 fbe4fbe4 fffffbe4     ................
    1594:	fbe4ffff fbe4fbe4 fbe4fbe4 fbe4fbe4     ................
    15a4:	fbe4fbe4 fbe4fbe4 fbe4fbe4 fbe4fbe4     ................
    15b4:	fbe4fbe4 fbe4fbe4 fbe4fbe4 fbe4fbe4     ................
    15c4:	fbe4fbe4 fbe4fbe4 fbe4fbe4 fbe4ffff     ................
    15d4:	fbe4fbe4 fbe4fbe4 fbe4fbe4 fbe4fbe4     ................
    15e4:	fbe4fbe4 fbe4fbe4 fbe4fbe4 fbe4fbe4     ................
    15f4:	fbe4fbe4 fbe4fbe4 fbe4fbe4 fbe4fbe4     ................
    1604:	fbe4fbe4 fbe4fbe4 fffffbe4 fbe4fbe4     ................
    1614:	fbe4fbe4 fbe4fbe4 fbe4fbe4 fbe4fbe4     ................
    1624:	fbe4fbe4 fbe4fbe4 fbe4fbe4 fbe4fbe4     ................
    1634:	fbe4fbe4 fbe4fbe4 fbe4fbe4 fbe4fbe4     ................
    1644:	fffffbe4 fbe4ffff fbe4fbe4 fbe4fbe4     ................
    1654:	fbe4fbe4 fbe4fbe4 fbe4fbe4 fbe4fbe4     ................
    1664:	fbe4fbe4 fbe4fbe4 fbe4fbe4 fbe4fbe4     ................
    1674:	fbe4fbe4 fbe4fbe4 fbe4fbe4 fbe4fbe4     ................
    1684:	fbe4ffff fbe4fbe4 fbe4fbe4 fbe4fbe4     ................
    1694:	fbe4fbe4 fbe4fbe4 fbe4fbe4 fbe4fbe4     ................
    16a4:	fbe4fbe4 fbe4fbe4 fbe4fbe4 fbe4fbe4     ................
    16b4:	fbe4fbe4 fbe4fbe4 fbe4fbe4 fffffbe4     ................
    16c4:	fbe4fbe4 fbe4fbe4 fbe4fbe4 fbe4fbe4     ................
    16d4:	fbe4fbe4 fbe4fbe4 fbe4fbe4 fbe4fbe4     ................
    16e4:	fbe4fbe4 fbe4fbe4 fbe4fbe4 fbe4fbe4     ................
    16f4:	fbe4fbe4 fffffbe4 fbe4ffff fbe4fbe4     ................
    1704:	fbe4fbe4 fbe4fbe4 fbe4fbe4 fbe4fbe4     ................
    1714:	fbe4fbe4 fbe4fbe4 fbe4fbe4 fbe4fbe4     ................
    1724:	fbe4fbe4 fbe4fbe4 fbe4fbe4 fbe4fbe4     ................
    1734:	fbe4fbe4 fbe4ffff fbe4fbe4 fbe4fbe4     ................
    1744:	fbe4fbe4 fbe4fbe4 fbe4fbe4 fbe4fbe4     ................
    1754:	fbe4fbe4 fbe4fbe4 fbe4fbe4 fbe4fbe4     ................
    1764:	fbe4fbe4 fbe4fbe4 fbe4fbe4 fbe4fbe4     ................
    1774:	fffffbe4 fbe4fbe4 fbe4fbe4 fbe4fbe4     ................
    1784:	fbe4fbe4 fbe4fbe4 fbe4fbe4 fbe4fbe4     ................
    1794:	fbe4fbe4 fbe4fbe4 fbe4fbe4 fbe4fbe4     ................
    17a4:	fbe4fbe4 fbe4fbe4 fffffbe4 fbe4ffff     ................
    17b4:	fbe4fbe4 fbe4fbe4 fbe4fbe4 fbe4fbe4     ................
    17c4:	fbe4fbe4 fbe4fbe4 fbe4fbe4 fbe4fbe4     ................
    17d4:	fbe4fbe4 fbe4fbe4 fbe4fbe4 fbe4fbe4     ................
    17e4:	fbe4fbe4 fbe4fbe4 fbe4ffff fbe4fbe4     ................
    17f4:	fbe4fbe4 fbe4fbe4 fbe4fbe4 fbe4fbe4     ................
    1804:	fbe4fbe4 fbe4fbe4 fbe4fbe4 fbe4fbe4     ................
    1814:	fbe4fbe4 fbe4fbe4 fbe4fbe4 fbe4fbe4     ................
    1824:	fbe4fbe4 fffffbe4 fbe4fbe4 fbe4fbe4     ................
    1834:	fbe4fbe4 fbe4fbe4 fbe4fbe4 fbe4fbe4     ................
    1844:	fbe4fbe4 fbe4fbe4 fbe4fbe4 fbe4fbe4     ................
    1854:	fbe4fbe4 fbe4fbe4 fbe4fbe4 fffffbe4     ................
    1864:	fbe4ffff fbe4fbe4 fbe4fbe4 fbe4fbe4     ................
    1874:	fbe4fbe4 fbe4fbe4 fbe4fbe4 fbe4fbe4     ................
    1884:	fbe4fbe4 fbe4fbe4 fbe4fbe4 fbe4fbe4     ................
    1894:	fbe4fbe4 fbe4fbe4 fbe4fbe4 fbe4ffff     ................
    18a4:	fbe4fbe4 fbe4fbe4 fbe4fbe4 fbe4fbe4     ................
    18b4:	fbe4fbe4 fbe4fbe4 fbe4fbe4 fbe4fbe4     ................
    18c4:	fbe4fbe4 fbe4fbe4 fbe4fbe4 fbe4fbe4     ................
    18d4:	fbe4fbe4 fbe4fbe4 fffffbe4 fbe4fbe4     ................
    18e4:	fbe4fbe4 fbe4fbe4 fbe4fbe4 fbe4fbe4     ................
    18f4:	fbe4fbe4 fbe4fbe4 fbe4fbe4 fbe4fbe4     ................
    1904:	fbe4fbe4 fbe4fbe4 fbe4fbe4 fbe4fbe4     ................
    1914:	fffffbe4 fbe4ffff fbe4fbe4 fbe4fbe4     ................
    1924:	fbe4fbe4 fbe4fbe4 fbe4fbe4 fbe4fbe4     ................
    1934:	fbe4fbe4 fbe4fbe4 fbe4fbe4 fbe4fbe4     ................
    1944:	fbe4fbe4 fbe4fbe4 fbe4fbe4 fbe4fbe4     ................
    1954:	fbe4ffff fbe4fbe4 fbe4fbe4 fbe4fbe4     ................
    1964:	fbe4fbe4 fbe4fbe4 fbe4fbe4 fbe4fbe4     ................
    1974:	fbe4fbe4 fbe4fbe4 fbe4fbe4 fbe4fbe4     ................
    1984:	fbe4fbe4 fbe4fbe4 fbe4fbe4 fffffbe4     ................
    1994:	fbe4fbe4 fbe4fbe4 fbe4fbe4 fbe4fbe4     ................
    19a4:	fbe4fbe4 fbe4fbe4 fbe4fbe4 fbe4fbe4     ................
    19b4:	fbe4fbe4 fbe4fbe4 fbe4fbe4 fbe4fbe4     ................
    19c4:	fbe4fbe4 fffffbe4 fbe4ffff fbe4fbe4     ................
    19d4:	fbe4fbe4 fbe4fbe4 fbe4fbe4 fbe4fbe4     ................
    19e4:	fbe4fbe4 fbe4fbe4 fbe4fbe4 fbe4fbe4     ................
    19f4:	fbe4fbe4 fbe4fbe4 fbe4fbe4 fbe4fbe4     ................
    1a04:	fbe4fbe4 fbe4ffff fbe4fbe4 fbe4fbe4     ................
    1a14:	fbe4fbe4 fbe4fbe4 fbe4fbe4 fbe4fbe4     ................
    1a24:	fbe4fbe4 fbe4fbe4 fbe4fbe4 fbe4fbe4     ................
    1a34:	fbe4fbe4 fbe4fbe4 fbe4fbe4 fbe4fbe4     ................
    1a44:	fffffbe4 fbe4fbe4 fbe4fbe4 fbe4fbe4     ................
    1a54:	fbe4fbe4 fbe4fbe4 fbe4fbe4 fbe4fbe4     ................
    1a64:	fbe4fbe4 fbe4fbe4 fbe4fbe4 fbe4fbe4     ................
    1a74:	fbe4fbe4 fbe4fbe4 fffffbe4 fbe4ffff     ................
    1a84:	fbe4fbe4 fbe4fbe4 fbe4fbe4 fbe4fbe4     ................
    1a94:	fbe4fbe4 fbe4fbe4 fbe4fbe4 fbe4fbe4     ................
    1aa4:	fbe4fbe4 fbe4fbe4 fbe4fbe4 fbe4fbe4     ................
    1ab4:	fbe4fbe4 fbe4fbe4 fbe4ffff fbe4fbe4     ................
    1ac4:	fbe4fbe4 fbe4fbe4 fbe4fbe4 fbe4fbe4     ................
    1ad4:	fbe4fbe4 fbe4fbe4 fbe4fbe4 fbe4fbe4     ................
    1ae4:	fbe4fbe4 fbe4fbe4 fbe4fbe4 fbe4fbe4     ................
    1af4:	fbe4fbe4 fffffbe4 fbe4fbe4 fbe4fbe4     ................
    1b04:	fbe4fbe4 fbe4fbe4 fbe4fbe4 fbe4fbe4     ................
    1b14:	fbe4fbe4 fbe4fbe4 fbe4fbe4 fbe4fbe4     ................
    1b24:	fbe4fbe4 fbe4fbe4 fbe4fbe4 fffffbe4     ................
    1b34:	fbe4ffff fbe4fbe4 fbe4fbe4 fbe4fbe4     ................
    1b44:	fbe4fbe4 fbe4fbe4 fbe4fbe4 fbe4fbe4     ................
    1b54:	fbe4fbe4 fbe4fbe4 fbe4fbe4 fbe4fbe4     ................
    1b64:	fbe4fbe4 fbe4fbe4 fbe4fbe4 fbe4ffff     ................
    1b74:	fbe4fbe4 fbe4fbe4 fbe4fbe4 fbe4fbe4     ................
    1b84:	fbe4fbe4 fbe4fbe4 fbe4fbe4 fbe4fbe4     ................
    1b94:	fbe4fbe4 fbe4fbe4 fbe4fbe4 fbe4fbe4     ................
    1ba4:	fbe4fbe4 fbe4fbe4 fffffbe4 fbe4fbe4     ................
    1bb4:	fbe4fbe4 fbe4fbe4 fbe4fbe4 fbe4fbe4     ................
    1bc4:	fbe4fbe4 fbe4fbe4 fbe4fbe4 fbe4fbe4     ................
    1bd4:	fbe4fbe4 fbe4fbe4 fbe4fbe4 fbe4fbe4     ................
    1be4:	fffffbe4 fbe4ffff fbe4fbe4 fbe4fbe4     ................
    1bf4:	fbe4fbe4 fbe4fbe4 fbe4fbe4 fbe4fbe4     ................
    1c04:	fbe4fbe4 fbe4fbe4 fbe4fbe4 fbe4fbe4     ................
    1c14:	fbe4fbe4 fbe4fbe4 fbe4fbe4 fbe4fbe4     ................
    1c24:	fbe4ffff fbe4fbe4 fbe4fbe4 fbe4fbe4     ................
    1c34:	fbe4fbe4 fbe4fbe4 fbe4fbe4 fbe4fbe4     ................
    1c44:	fbe4fbe4 fbe4fbe4 fbe4fbe4 fbe4fbe4     ................
    1c54:	fbe4fbe4 fbe4fbe4 fbe4fbe4 fffffbe4     ................
    1c64:	fbe4fbe4 fbe4fbe4 fbe4fbe4 fbe4fbe4     ................
    1c74:	fbe4fbe4 fbe4fbe4 fbe4fbe4 fbe4fbe4     ................
    1c84:	fbe4fbe4 fbe4fbe4 fbe4fbe4 fbe4fbe4     ................
    1c94:	fbe4fbe4 fffffbe4 fbe4ffff fbe4fbe4     ................
    1ca4:	fbe4fbe4 fbe4fbe4 fbe4fbe4 fbe4fbe4     ................
    1cb4:	fbe4fbe4 fbe4fbe4 fbe4fbe4 fbe4fbe4     ................
    1cc4:	fbe4fbe4 fbe4fbe4 fbe4fbe4 fbe4fbe4     ................
    1cd4:	fbe4fbe4 fbe4ffff fbe4fbe4 fbe4fbe4     ................
    1ce4:	fbe4fbe4 fbe4fbe4 fbe4fbe4 fbe4fbe4     ................
    1cf4:	fbe4fbe4 fbe4fbe4 fbe4fbe4 fbe4fbe4     ................
    1d04:	fbe4fbe4 fbe4fbe4 fbe4fbe4 fbe4fbe4     ................
    1d14:	fffffbe4 fbe4fbe4 fbe4fbe4 fbe4fbe4     ................
    1d24:	fbe4fbe4 fbe4fbe4 fbe4fbe4 fbe4fbe4     ................
    1d34:	fbe4fbe4 fbe4fbe4 fbe4fbe4 fbe4fbe4     ................
    1d44:	fbe4fbe4 fbe4fbe4 fffffbe4 fbe4ffff     ................
    1d54:	fbe4fbe4 fbe4fbe4 fbe4fbe4 fbe4fbe4     ................
    1d64:	fbe4fbe4 fbe4fbe4 fbe4fbe4 fbe4fbe4     ................
    1d74:	fbe4fbe4 fbe4fbe4 fbe4fbe4 fbe4fbe4     ................
    1d84:	fbe4fbe4 fbe4fbe4 fbe4ffff fbe4fbe4     ................
    1d94:	fbe4fbe4 fbe4fbe4 fbe4fbe4 fbe4fbe4     ................
    1da4:	fbe4fbe4 fbe4fbe4 fbe4fbe4 fbe4fbe4     ................
    1db4:	fbe4fbe4 fbe4fbe4 fbe4fbe4 fbe4fbe4     ................
    1dc4:	fbe4fbe4 fffffbe4 fbe4fbe4 fbe4fbe4     ................
    1dd4:	fbe4fbe4 fbe4fbe4 fbe4fbe4 fbe4fbe4     ................
    1de4:	fbe4fbe4 fbe4fbe4 fbe4fbe4 fbe4fbe4     ................
    1df4:	fbe4fbe4 fbe4fbe4 fbe4fbe4 fffffbe4     ................
    1e04:	fbe4ffff fbe4fbe4 fbe4fbe4 fbe4fbe4     ................
    1e14:	fbe4fbe4 fbe4fbe4 fbe4fbe4 fbe4fbe4     ................
    1e24:	fbe4fbe4 fbe4fbe4 fbe4fbe4 fbe4fbe4     ................
    1e34:	fbe4fbe4 fbe4fbe4 fbe4fbe4 fbe4ffff     ................
    1e44:	fbe4fbe4 fbe4fbe4 fbe4fbe4 fbe4fbe4     ................
    1e54:	fbe4fbe4 fbe4fbe4 fbe4fbe4 fbe4fbe4     ................
    1e64:	fbe4fbe4 fbe4fbe4 fbe4fbe4 fbe4fbe4     ................
    1e74:	fbe4fbe4 fbe4fbe4 fffffbe4 fbe4fbe4     ................
    1e84:	fbe4fbe4 fbe4fbe4 fbe4fbe4 fbe4fbe4     ................
    1e94:	fbe4fbe4 fbe4fbe4 fbe4fbe4 fbe4fbe4     ................
    1ea4:	fbe4fbe4 fbe4fbe4 fbe4fbe4 fbe4fbe4     ................
    1eb4:	fffffbe4 fbe4ffff fbe4fbe4 fbe4fbe4     ................
    1ec4:	fbe4fbe4 fbe4fbe4 fbe4fbe4 fbe4fbe4     ................
    1ed4:	fbe4fbe4 fbe4fbe4 fbe4fbe4 fbe4fbe4     ................
    1ee4:	fbe4fbe4 fbe4fbe4 fbe4fbe4 fbe4fbe4     ................
    1ef4:	fbe4ffff fbe4fbe4 fbe4fbe4 fbe4fbe4     ................
    1f04:	fbe4fbe4 fbe4fbe4 fbe4fbe4 fbe4fbe4     ................
    1f14:	fbe4fbe4 fbe4fbe4 fbe4fbe4 fbe4fbe4     ................
    1f24:	fbe4fbe4 fbe4fbe4 fbe4fbe4 fffffbe4     ................
    1f34:	fbe4fbe4 fbe4fbe4 fbe4fbe4 fbe4fbe4     ................
    1f44:	fbe4fbe4 fbe4fbe4 fbe4fbe4 fbe4fbe4     ................
    1f54:	fbe4fbe4 fbe4fbe4 fbe4fbe4 fbe4fbe4     ................
    1f64:	fbe4fbe4 fffffbe4 fbe4ffff fbe4fbe4     ................
    1f74:	fbe4fbe4 fbe4fbe4 fbe4fbe4 fbe4fbe4     ................
    1f84:	fbe4fbe4 fbe4fbe4 fbe4fbe4 fbe4fbe4     ................
    1f94:	fbe4fbe4 fbe4fbe4 fbe4fbe4 fbe4fbe4     ................
    1fa4:	fbe4fbe4 fbe4ffff fbe4fbe4 fbe4fbe4     ................
    1fb4:	fbe4fbe4 fbe4fbe4 fbe4fbe4 fbe4fbe4     ................
    1fc4:	fbe4fbe4 fbe4fbe4 fbe4fbe4 fbe4fbe4     ................
    1fd4:	fbe4fbe4 fbe4fbe4 fbe4fbe4 fbe4fbe4     ................
    1fe4:	fffffbe4 fbe4fbe4 fbe4fbe4 fbe4fbe4     ................
    1ff4:	fbe4fbe4 fbe4fbe4 fbe4fbe4 fbe4fbe4     ................
    2004:	fbe4fbe4 fbe4fbe4 fbe4fbe4 fbe4fbe4     ................
    2014:	fbe4fbe4 fbe4fbe4 fffffbe4 fbe4ffff     ................
    2024:	fbe4fbe4 fbe4fbe4 fbe4fbe4 fbe4fbe4     ................
    2034:	fbe4fbe4 fbe4fbe4 fbe4fbe4 fbe4fbe4     ................
    2044:	fbe4fbe4 fbe4fbe4 fbe4fbe4 fbe4fbe4     ................
    2054:	fbe4fbe4 fbe4fbe4 fbe4ffff fbe4fbe4     ................
    2064:	fbe4fbe4 fbe4fbe4 fbe4fbe4 fbe4fbe4     ................
    2074:	fbe4fbe4 fbe4fbe4 fbe4fbe4 fbe4fbe4     ................
    2084:	fbe4fbe4 fbe4fbe4 fbe4fbe4 fbe4fbe4     ................
    2094:	fbe4fbe4 fffffbe4 fbe4fbe4 fbe4fbe4     ................
    20a4:	fbe4fbe4 fbe4fbe4 fbe4fbe4 fbe4fbe4     ................
    20b4:	fbe4fbe4 fbe4fbe4 fbe4fbe4 fbe4fbe4     ................
    20c4:	fbe4fbe4 fbe4fbe4 fbe4fbe4 fffffbe4     ................
    20d4:	fbe4ffff fbe4fbe4 fbe4fbe4 fbe4fbe4     ................
    20e4:	fbe4fbe4 fbe4fbe4 fbe4fbe4 fbe4fbe4     ................
    20f4:	fbe4fbe4 fbe4fbe4 fbe4fbe4 fbe4fbe4     ................
    2104:	fbe4fbe4 fbe4fbe4 fbe4fbe4 fbe4ffff     ................
    2114:	fbe4fbe4 fbe4fbe4 fbe4fbe4 fbe4fbe4     ................
    2124:	fbe4fbe4 fbe4fbe4 fbe4fbe4 fbe4fbe4     ................
    2134:	fbe4fbe4 fbe4fbe4 fbe4fbe4 fbe4fbe4     ................
    2144:	fbe4fbe4 fbe4fbe4 fffffbe4 fbe4fbe4     ................
    2154:	fbe4fbe4 fbe4fbe4 fbe4fbe4 fbe4fbe4     ................
    2164:	fbe4fbe4 fbe4fbe4 fbe4fbe4 fbe4fbe4     ................
    2174:	fbe4fbe4 fbe4fbe4 fbe4fbe4 fbe4fbe4     ................
    2184:	fffffbe4 fbe4ffff fbe4fbe4 fbe4fbe4     ................
    2194:	fbe4fbe4 fbe4fbe4 fbe4fbe4 fbe4fbe4     ................
    21a4:	fbe4fbe4 fbe4fbe4 fbe4fbe4 fbe4fbe4     ................
    21b4:	fbe4fbe4 fbe4fbe4 fbe4fbe4 fbe4fbe4     ................
    21c4:	fbe4ffff fbe4fbe4 fbe4fbe4 fbe4fbe4     ................
    21d4:	fbe4fbe4 fbe4fbe4 fbe4fbe4 fbe4fbe4     ................
    21e4:	fbe4fbe4 fbe4fbe4 fbe4fbe4 fbe4fbe4     ................
    21f4:	fbe4fbe4 fbe4fbe4 fbe4fbe4 fffffbe4     ................
    2204:	fbe4fbe4 fbe4fbe4 fbe4fbe4 fbe4fbe4     ................
    2214:	fbe4fbe4 fbe4fbe4 fbe4fbe4 fbe4fbe4     ................
    2224:	fbe4fbe4 fbe4fbe4 fbe4fbe4 fbe4fbe4     ................
    2234:	fbe4fbe4 fffffbe4 ffffffff ffffffff     ................
    2244:	ffffffff ffffffff ffffffff ffffffff     ................
    2254:	ffffffff ffffffff ffffffff ffffffff     ................
    2264:	ffffffff ffffffff ffffffff ffffffff     ................
    2274:	ffffffff ffffffff ffffffff ffffffff     ................
    2284:	ffffffff ffffffff ffffffff ffffffff     ................
    2294:	ffffffff ffffffff ffffffff ffffffff     ................
    22a4:	ffffffff ffffffff ffffffff ffffffff     ................
    22b4:	ffffffff ffffffff ffffffff ffffffff     ................
    22c4:	ffffffff ffffffff ffffffff ffffffff     ................
    22d4:	ffffffff ffffffff ffffffff ffffffff     ................
    22e4:	ffffffff ffffffff ffffffff fbe4ffff     ................
    22f4:	fbe4fbe4 fbe4fbe4 fbe4fbe4 fbe4fbe4     ................
    2304:	fbe4fbe4 fbe4fbe4 fbe4fbe4 fbe4fbe4     ................
    2314:	fbe4fbe4 fbe4fbe4 fbe4fbe4 fbe4fbe4     ................
    2324:	fbe4fbe4 fbe4fbe4 fbe4ffff fbe4fbe4     ................
    2334:	fbe4fbe4 fbe4fbe4 fbe4fbe4 fbe4fbe4     ................
    2344:	fbe4fbe4 fbe4fbe4 fbe4fbe4 fbe4fbe4     ................
    2354:	fbe4fbe4 fbe4fbe4 fbe4fbe4 fbe4fbe4     ................
    2364:	fbe4fbe4 fffffbe4 fbe4fbe4 fbe4fbe4     ................
    2374:	fbe4fbe4 fbe4fbe4 fbe4fbe4 fbe4fbe4     ................
    2384:	fbe4fbe4 fbe4fbe4 fbe4fbe4 fbe4fbe4     ................
    2394:	fbe4fbe4 fbe4fbe4 fbe4fbe4 fffffbe4     ................
    23a4:	fbe4ffff fbe4fbe4 fbe4fbe4 fbe4fbe4     ................
    23b4:	fbe4fbe4 fbe4fbe4 fbe4fbe4 fbe4fbe4     ................
    23c4:	fbe4fbe4 fbe4fbe4 fbe4fbe4 fbe4fbe4     ................
    23d4:	fbe4fbe4 fbe4fbe4 fbe4fbe4 fbe4ffff     ................
    23e4:	fbe4fbe4 fbe4fbe4 fbe4fbe4 fbe4fbe4     ................
    23f4:	fbe4fbe4 fbe4fbe4 fbe4fbe4 fbe4fbe4     ................
    2404:	fbe4fbe4 fbe4fbe4 fbe4fbe4 fbe4fbe4     ................
    2414:	fbe4fbe4 fbe4fbe4 fffffbe4 fbe4fbe4     ................
    2424:	fbe4fbe4 fbe4fbe4 fbe4fbe4 fbe4fbe4     ................
    2434:	fbe4fbe4 fbe4fbe4 fbe4fbe4 fbe4fbe4     ................
    2444:	fbe4fbe4 fbe4fbe4 fbe4fbe4 fbe4fbe4     ................
    2454:	fffffbe4 fbe4ffff fbe4fbe4 fbe4fbe4     ................
    2464:	fbe4fbe4 fbe4fbe4 fbe4fbe4 fbe4fbe4     ................
    2474:	fbe4fbe4 fbe4fbe4 fbe4fbe4 fbe4fbe4     ................
    2484:	fbe4fbe4 fbe4fbe4 fbe4fbe4 fbe4fbe4     ................
    2494:	fbe4ffff fbe4fbe4 fbe4fbe4 fbe4fbe4     ................
    24a4:	fbe4fbe4 fbe4fbe4 fbe4fbe4 fbe4fbe4     ................
    24b4:	fbe4fbe4 fbe4fbe4 fbe4fbe4 fbe4fbe4     ................
    24c4:	fbe4fbe4 fbe4fbe4 fbe4fbe4 fffffbe4     ................
    24d4:	fbe4fbe4 fbe4fbe4 fbe4fbe4 fbe4fbe4     ................
    24e4:	fbe4fbe4 fbe4fbe4 fbe4fbe4 fbe4fbe4     ................
    24f4:	fbe4fbe4 fbe4fbe4 fbe4fbe4 fbe4fbe4     ................
    2504:	fbe4fbe4 fffffbe4 fbe4ffff fbe4fbe4     ................
    2514:	fbe4fbe4 fbe4fbe4 fbe4fbe4 fbe4fbe4     ................
    2524:	fbe4fbe4 fbe4fbe4 fbe4fbe4 fbe4fbe4     ................
    2534:	fbe4fbe4 fbe4fbe4 fbe4fbe4 fbe4fbe4     ................
    2544:	fbe4fbe4 fbe4ffff fbe4fbe4 fbe4fbe4     ................
    2554:	fbe4fbe4 fbe4fbe4 fbe4fbe4 fbe4fbe4     ................
    2564:	fbe4fbe4 fbe4fbe4 fbe4fbe4 fbe4fbe4     ................
    2574:	fbe4fbe4 fbe4fbe4 fbe4fbe4 fbe4fbe4     ................
    2584:	fffffbe4 fbe4fbe4 fbe4fbe4 fbe4fbe4     ................
    2594:	fbe4fbe4 fbe4fbe4 fbe4fbe4 fbe4fbe4     ................
    25a4:	fbe4fbe4 fbe4fbe4 fbe4fbe4 fbe4fbe4     ................
    25b4:	fbe4fbe4 fbe4fbe4 fffffbe4 fbe4ffff     ................
    25c4:	fbe4fbe4 fbe4fbe4 fbe4fbe4 fbe4fbe4     ................
    25d4:	fbe4fbe4 fbe4fbe4 fbe4fbe4 fbe4fbe4     ................
    25e4:	fbe4fbe4 fbe4fbe4 fbe4fbe4 fbe4fbe4     ................
    25f4:	fbe4fbe4 fbe4fbe4 fbe4ffff fbe4fbe4     ................
    2604:	fbe4fbe4 fbe4fbe4 fbe4fbe4 fbe4fbe4     ................
    2614:	fbe4fbe4 fbe4fbe4 fbe4fbe4 fbe4fbe4     ................
    2624:	fbe4fbe4 fbe4fbe4 fbe4fbe4 fbe4fbe4     ................
    2634:	fbe4fbe4 fffffbe4 fbe4fbe4 fbe4fbe4     ................
    2644:	fbe4fbe4 fbe4fbe4 fbe4fbe4 fbe4fbe4     ................
    2654:	fbe4fbe4 fbe4fbe4 fbe4fbe4 fbe4fbe4     ................
    2664:	fbe4fbe4 fbe4fbe4 fbe4fbe4 fffffbe4     ................
    2674:	fbe4ffff fbe4fbe4 fbe4fbe4 fbe4fbe4     ................
    2684:	fbe4fbe4 fbe4fbe4 fbe4fbe4 fbe4fbe4     ................
    2694:	fbe4fbe4 fbe4fbe4 fbe4fbe4 fbe4fbe4     ................
    26a4:	fbe4fbe4 fbe4fbe4 fbe4fbe4 fbe4ffff     ................
    26b4:	fbe4fbe4 fbe4fbe4 fbe4fbe4 fbe4fbe4     ................
    26c4:	fbe4fbe4 fbe4fbe4 fbe4fbe4 fbe4fbe4     ................
    26d4:	fbe4fbe4 fbe4fbe4 fbe4fbe4 fbe4fbe4     ................
    26e4:	fbe4fbe4 fbe4fbe4 fffffbe4 fbe4fbe4     ................
    26f4:	fbe4fbe4 fbe4fbe4 fbe4fbe4 fbe4fbe4     ................
    2704:	fbe4fbe4 fbe4fbe4 fbe4fbe4 fbe4fbe4     ................
    2714:	fbe4fbe4 fbe4fbe4 fbe4fbe4 fbe4fbe4     ................
    2724:	fffffbe4 fbe4ffff fbe4fbe4 fbe4fbe4     ................
    2734:	fbe4fbe4 fbe4fbe4 fbe4fbe4 fbe4fbe4     ................
    2744:	fbe4fbe4 fbe4fbe4 fbe4fbe4 fbe4fbe4     ................
    2754:	fbe4fbe4 fbe4fbe4 fbe4fbe4 fbe4fbe4     ................
    2764:	fbe4ffff fbe4fbe4 fbe4fbe4 fbe4fbe4     ................
    2774:	fbe4fbe4 fbe4fbe4 fbe4fbe4 fbe4fbe4     ................
    2784:	fbe4fbe4 fbe4fbe4 fbe4fbe4 fbe4fbe4     ................
    2794:	fbe4fbe4 fbe4fbe4 fbe4fbe4 fffffbe4     ................
    27a4:	fbe4fbe4 fbe4fbe4 fbe4fbe4 fbe4fbe4     ................
    27b4:	fbe4fbe4 fbe4fbe4 fbe4fbe4 fbe4fbe4     ................
    27c4:	fbe4fbe4 fbe4fbe4 fbe4fbe4 fbe4fbe4     ................
    27d4:	fbe4fbe4 fffffbe4 fbe4ffff fbe4fbe4     ................
    27e4:	fbe4fbe4 fbe4fbe4 fbe4fbe4 fbe4fbe4     ................
    27f4:	fbe4fbe4 fbe4fbe4 fbe4fbe4 fbe4fbe4     ................
    2804:	fbe4fbe4 fbe4fbe4 fbe4fbe4 fbe4fbe4     ................
    2814:	fbe4fbe4 fbe4ffff fbe4fbe4 fbe4fbe4     ................
    2824:	fbe4fbe4 fbe4fbe4 fbe4fbe4 fbe4fbe4     ................
    2834:	fbe4fbe4 fbe4fbe4 fbe4fbe4 fbe4fbe4     ................
    2844:	fbe4fbe4 fbe4fbe4 fbe4fbe4 fbe4fbe4     ................
    2854:	fffffbe4 fbe4fbe4 fbe4fbe4 fbe4fbe4     ................
    2864:	fbe4fbe4 fbe4fbe4 fbe4fbe4 fbe4fbe4     ................
    2874:	fbe4fbe4 fbe4fbe4 fbe4fbe4 fbe4fbe4     ................
    2884:	fbe4fbe4 fbe4fbe4 fffffbe4 fbe4ffff     ................
    2894:	fbe4fbe4 fbe4fbe4 fbe4fbe4 fbe4fbe4     ................
    28a4:	fbe4fbe4 fbe4fbe4 fbe4fbe4 fbe4fbe4     ................
    28b4:	fbe4fbe4 fbe4fbe4 fbe4fbe4 fbe4fbe4     ................
    28c4:	fbe4fbe4 fbe4fbe4 fbe4ffff fbe4fbe4     ................
    28d4:	fbe4fbe4 fbe4fbe4 fbe4fbe4 fbe4fbe4     ................
    28e4:	fbe4fbe4 fbe4fbe4 fbe4fbe4 fbe4fbe4     ................
    28f4:	fbe4fbe4 fbe4fbe4 fbe4fbe4 fbe4fbe4     ................
    2904:	fbe4fbe4 fffffbe4 fbe4fbe4 fbe4fbe4     ................
    2914:	fbe4fbe4 fbe4fbe4 fbe4fbe4 fbe4fbe4     ................
    2924:	fbe4fbe4 fbe4fbe4 fbe4fbe4 fbe4fbe4     ................
    2934:	fbe4fbe4 fbe4fbe4 fbe4fbe4 fffffbe4     ................
    2944:	fbe4ffff fbe4fbe4 fbe4fbe4 fbe4fbe4     ................
    2954:	fbe4fbe4 fbe4fbe4 fbe4fbe4 fbe4fbe4     ................
    2964:	fbe4fbe4 fbe4fbe4 fbe4fbe4 fbe4fbe4     ................
    2974:	fbe4fbe4 fbe4fbe4 fbe4fbe4 fbe4ffff     ................
    2984:	fbe4fbe4 fbe4fbe4 fbe4fbe4 fbe4fbe4     ................
    2994:	fbe4fbe4 fbe4fbe4 fbe4fbe4 fbe4fbe4     ................
    29a4:	fbe4fbe4 fbe4fbe4 fbe4fbe4 fbe4fbe4     ................
    29b4:	fbe4fbe4 fbe4fbe4 fffffbe4 fbe4fbe4     ................
    29c4:	fbe4fbe4 fbe4fbe4 fbe4fbe4 fbe4fbe4     ................
    29d4:	fbe4fbe4 fbe4fbe4 fbe4fbe4 fbe4fbe4     ................
    29e4:	fbe4fbe4 fbe4fbe4 fbe4fbe4 fbe4fbe4     ................
    29f4:	fffffbe4 fbe4ffff fbe4fbe4 fbe4fbe4     ................
    2a04:	fbe4fbe4 fbe4fbe4 fbe4fbe4 fbe4fbe4     ................
    2a14:	fbe4fbe4 fbe4fbe4 fbe4fbe4 fbe4fbe4     ................
    2a24:	fbe4fbe4 fbe4fbe4 fbe4fbe4 fbe4fbe4     ................
    2a34:	fbe4ffff fbe4fbe4 fbe4fbe4 fbe4fbe4     ................
    2a44:	fbe4fbe4 fbe4fbe4 fbe4fbe4 fbe4fbe4     ................
    2a54:	fbe4fbe4 fbe4fbe4 fbe4fbe4 fbe4fbe4     ................
    2a64:	fbe4fbe4 fbe4fbe4 fbe4fbe4 fffffbe4     ................
    2a74:	fbe4fbe4 fbe4fbe4 fbe4fbe4 fbe4fbe4     ................
    2a84:	fbe4fbe4 fbe4fbe4 fbe4fbe4 fbe4fbe4     ................
    2a94:	fbe4fbe4 fbe4fbe4 fbe4fbe4 fbe4fbe4     ................
    2aa4:	fbe4fbe4 fffffbe4 fbe4ffff fbe4fbe4     ................
    2ab4:	fbe4fbe4 fbe4fbe4 fbe4fbe4 fbe4fbe4     ................
    2ac4:	fbe4fbe4 fbe4fbe4 fbe4fbe4 fbe4fbe4     ................
    2ad4:	fbe4fbe4 fbe4fbe4 fbe4fbe4 fbe4fbe4     ................
    2ae4:	fbe4fbe4 fbe4ffff fbe4fbe4 fbe4fbe4     ................
    2af4:	fbe4fbe4 fbe4fbe4 fbe4fbe4 fbe4fbe4     ................
    2b04:	fbe4fbe4 fbe4fbe4 fbe4fbe4 fbe4fbe4     ................
    2b14:	fbe4fbe4 fbe4fbe4 fbe4fbe4 fbe4fbe4     ................
    2b24:	fffffbe4 fbe4fbe4 fbe4fbe4 fbe4fbe4     ................
    2b34:	fbe4fbe4 fbe4fbe4 fbe4fbe4 fbe4fbe4     ................
    2b44:	fbe4fbe4 fbe4fbe4 fbe4fbe4 fbe4fbe4     ................
    2b54:	fbe4fbe4 fbe4fbe4 fffffbe4 fbe4ffff     ................
    2b64:	fbe4fbe4 fbe4fbe4 fbe4fbe4 fbe4fbe4     ................
    2b74:	fbe4fbe4 fbe4fbe4 fbe4fbe4 fbe4fbe4     ................
    2b84:	fbe4fbe4 fbe4fbe4 fbe4fbe4 fbe4fbe4     ................
    2b94:	fbe4fbe4 fbe4fbe4 fbe4ffff fbe4fbe4     ................
    2ba4:	fbe4fbe4 fbe4fbe4 fbe4fbe4 fbe4fbe4     ................
    2bb4:	fbe4fbe4 fbe4fbe4 fbe4fbe4 fbe4fbe4     ................
    2bc4:	fbe4fbe4 fbe4fbe4 fbe4fbe4 fbe4fbe4     ................
    2bd4:	fbe4fbe4 fffffbe4 fbe4fbe4 fbe4fbe4     ................
    2be4:	fbe4fbe4 fbe4fbe4 fbe4fbe4 fbe4fbe4     ................
    2bf4:	fbe4fbe4 fbe4fbe4 fbe4fbe4 fbe4fbe4     ................
    2c04:	fbe4fbe4 fbe4fbe4 fbe4fbe4 fffffbe4     ................
    2c14:	fbe4ffff fbe4fbe4 fbe4fbe4 fbe4fbe4     ................
    2c24:	fbe4fbe4 fbe4fbe4 fbe4fbe4 fbe4fbe4     ................
    2c34:	fbe4fbe4 fbe4fbe4 fbe4fbe4 fbe4fbe4     ................
    2c44:	fbe4fbe4 fbe4fbe4 fbe4fbe4 fbe4ffff     ................
    2c54:	fbe4fbe4 fbe4fbe4 fbe4fbe4 fbe4fbe4     ................
    2c64:	fbe4fbe4 fbe4fbe4 fbe4fbe4 fbe4fbe4     ................
    2c74:	fbe4fbe4 fbe4fbe4 fbe4fbe4 fbe4fbe4     ................
    2c84:	fbe4fbe4 fbe4fbe4 fffffbe4 fbe4fbe4     ................
    2c94:	fbe4fbe4 fbe4fbe4 fbe4fbe4 fbe4fbe4     ................
    2ca4:	fbe4fbe4 fbe4fbe4 fbe4fbe4 fbe4fbe4     ................
    2cb4:	fbe4fbe4 fbe4fbe4 fbe4fbe4 fbe4fbe4     ................
    2cc4:	fffffbe4 fbe4ffff fbe4fbe4 fbe4fbe4     ................
    2cd4:	fbe4fbe4 fbe4fbe4 fbe4fbe4 fbe4fbe4     ................
    2ce4:	fbe4fbe4 fbe4fbe4 fbe4fbe4 fbe4fbe4     ................
    2cf4:	fbe4fbe4 fbe4fbe4 fbe4fbe4 fbe4fbe4     ................
    2d04:	fbe4ffff fbe4fbe4 fbe4fbe4 fbe4fbe4     ................
    2d14:	fbe4fbe4 fbe4fbe4 fbe4fbe4 fbe4fbe4     ................
    2d24:	fbe4fbe4 fbe4fbe4 fbe4fbe4 fbe4fbe4     ................
    2d34:	fbe4fbe4 fbe4fbe4 fbe4fbe4 fffffbe4     ................
    2d44:	fbe4fbe4 fbe4fbe4 fbe4fbe4 fbe4fbe4     ................
    2d54:	fbe4fbe4 fbe4fbe4 fbe4fbe4 fbe4fbe4     ................
    2d64:	fbe4fbe4 fbe4fbe4 fbe4fbe4 fbe4fbe4     ................
    2d74:	fbe4fbe4 fffffbe4 fbe4ffff fbe4fbe4     ................
    2d84:	fbe4fbe4 fbe4fbe4 fbe4fbe4 fbe4fbe4     ................
    2d94:	fbe4fbe4 fbe4fbe4 fbe4fbe4 fbe4fbe4     ................
    2da4:	fbe4fbe4 fbe4fbe4 fbe4fbe4 fbe4fbe4     ................
    2db4:	fbe4fbe4 fbe4ffff fbe4fbe4 fbe4fbe4     ................
    2dc4:	fbe4fbe4 fbe4fbe4 fbe4fbe4 fbe4fbe4     ................
    2dd4:	fbe4fbe4 fbe4fbe4 fbe4fbe4 fbe4fbe4     ................
    2de4:	fbe4fbe4 fbe4fbe4 fbe4fbe4 fbe4fbe4     ................
    2df4:	fffffbe4 fbe4fbe4 fbe4fbe4 fbe4fbe4     ................
    2e04:	fbe4fbe4 fbe4fbe4 fbe4fbe4 fbe4fbe4     ................
    2e14:	fbe4fbe4 fbe4fbe4 fbe4fbe4 fbe4fbe4     ................
    2e24:	fbe4fbe4 fbe4fbe4 fffffbe4 fbe4ffff     ................
    2e34:	fbe4fbe4 fbe4fbe4 fbe4fbe4 fbe4fbe4     ................
    2e44:	fbe4fbe4 fbe4fbe4 fbe4fbe4 fbe4fbe4     ................
    2e54:	fbe4fbe4 fbe4fbe4 fbe4fbe4 fbe4fbe4     ................
    2e64:	fbe4fbe4 fbe4fbe4 fbe4ffff fbe4fbe4     ................
    2e74:	fbe4fbe4 fbe4fbe4 fbe4fbe4 fbe4fbe4     ................
    2e84:	fbe4fbe4 fbe4fbe4 fbe4fbe4 fbe4fbe4     ................
    2e94:	fbe4fbe4 fbe4fbe4 fbe4fbe4 fbe4fbe4     ................
    2ea4:	fbe4fbe4 fffffbe4 fbe4fbe4 fbe4fbe4     ................
    2eb4:	fbe4fbe4 fbe4fbe4 fbe4fbe4 fbe4fbe4     ................
    2ec4:	fbe4fbe4 fbe4fbe4 fbe4fbe4 fbe4fbe4     ................
    2ed4:	fbe4fbe4 fbe4fbe4 fbe4fbe4 fffffbe4     ................
    2ee4:	fbe4ffff fbe4fbe4 fbe4fbe4 fbe4fbe4     ................
    2ef4:	fbe4fbe4 fbe4fbe4 fbe4fbe4 fbe4fbe4     ................
    2f04:	fbe4fbe4 fbe4fbe4 fbe4fbe4 fbe4fbe4     ................
    2f14:	fbe4fbe4 fbe4fbe4 fbe4fbe4 fbe4ffff     ................
    2f24:	fbe4fbe4 fbe4fbe4 fbe4fbe4 fbe4fbe4     ................
    2f34:	fbe4fbe4 fbe4fbe4 fbe4fbe4 fbe4fbe4     ................
    2f44:	fbe4fbe4 fbe4fbe4 fbe4fbe4 fbe4fbe4     ................
    2f54:	fbe4fbe4 fbe4fbe4 fffffbe4 fbe4fbe4     ................
    2f64:	fbe4fbe4 fbe4fbe4 fbe4fbe4 fbe4fbe4     ................
    2f74:	fbe4fbe4 fbe4fbe4 fbe4fbe4 fbe4fbe4     ................
    2f84:	fbe4fbe4 fbe4fbe4 fbe4fbe4 fbe4fbe4     ................
    2f94:	fffffbe4 fbe4ffff fbe4fbe4 fbe4fbe4     ................
    2fa4:	fbe4fbe4 fbe4fbe4 fbe4fbe4 fbe4fbe4     ................
    2fb4:	fbe4fbe4 fbe4fbe4 fbe4fbe4 fbe4fbe4     ................
    2fc4:	fbe4fbe4 fbe4fbe4 fbe4fbe4 fbe4fbe4     ................
    2fd4:	fbe4ffff fbe4fbe4 fbe4fbe4 fbe4fbe4     ................
    2fe4:	fbe4fbe4 fbe4fbe4 fbe4fbe4 fbe4fbe4     ................
    2ff4:	fbe4fbe4 fbe4fbe4 fbe4fbe4 fbe4fbe4     ................
    3004:	fbe4fbe4 fbe4fbe4 fbe4fbe4 fffffbe4     ................
    3014:	fbe4fbe4 fbe4fbe4 fbe4fbe4 fbe4fbe4     ................
    3024:	fbe4fbe4 fbe4fbe4 fbe4fbe4 fbe4fbe4     ................
    3034:	fbe4fbe4 fbe4fbe4 fbe4fbe4 fbe4fbe4     ................
    3044:	fbe4fbe4 fffffbe4 fbe4ffff fbe4fbe4     ................
    3054:	fbe4fbe4 fbe4fbe4 fbe4fbe4 fbe4fbe4     ................
    3064:	fbe4fbe4 fbe4fbe4 fbe4fbe4 fbe4fbe4     ................
    3074:	fbe4fbe4 fbe4fbe4 fbe4fbe4 fbe4fbe4     ................
    3084:	fbe4fbe4 fbe4ffff fbe4fbe4 fbe4fbe4     ................
    3094:	fbe4fbe4 fbe4fbe4 fbe4fbe4 fbe4fbe4     ................
    30a4:	fbe4fbe4 fbe4fbe4 fbe4fbe4 fbe4fbe4     ................
    30b4:	fbe4fbe4 fbe4fbe4 fbe4fbe4 fbe4fbe4     ................
    30c4:	fffffbe4 fbe4fbe4 fbe4fbe4 fbe4fbe4     ................
    30d4:	fbe4fbe4 fbe4fbe4 fbe4fbe4 fbe4fbe4     ................
    30e4:	fbe4fbe4 fbe4fbe4 fbe4fbe4 fbe4fbe4     ................
    30f4:	fbe4fbe4 fbe4fbe4 fffffbe4 fbe4ffff     ................
    3104:	fbe4fbe4 fbe4fbe4 fbe4fbe4 fbe4fbe4     ................
    3114:	fbe4fbe4 fbe4fbe4 fbe4fbe4 fbe4fbe4     ................
    3124:	fbe4fbe4 fbe4fbe4 fbe4fbe4 fbe4fbe4     ................
    3134:	fbe4fbe4 fbe4fbe4 fbe4ffff fbe4fbe4     ................
    3144:	fbe4fbe4 fbe4fbe4 fbe4fbe4 fbe4fbe4     ................
    3154:	fbe4fbe4 fbe4fbe4 fbe4fbe4 fbe4fbe4     ................
    3164:	fbe4fbe4 fbe4fbe4 fbe4fbe4 fbe4fbe4     ................
    3174:	fbe4fbe4 fffffbe4 fbe4fbe4 fbe4fbe4     ................
    3184:	fbe4fbe4 fbe4fbe4 fbe4fbe4 fbe4fbe4     ................
    3194:	fbe4fbe4 fbe4fbe4 fbe4fbe4 fbe4fbe4     ................
    31a4:	fbe4fbe4 fbe4fbe4 fbe4fbe4 fffffbe4     ................
    31b4:	fbe4ffff fbe4fbe4 fbe4fbe4 fbe4fbe4     ................
    31c4:	fbe4fbe4 fbe4fbe4 fbe4fbe4 fbe4fbe4     ................
    31d4:	fbe4fbe4 fbe4fbe4 fbe4fbe4 fbe4fbe4     ................
    31e4:	fbe4fbe4 fbe4fbe4 fbe4fbe4 fbe4ffff     ................
    31f4:	fbe4fbe4 fbe4fbe4 fbe4fbe4 fbe4fbe4     ................
    3204:	fbe4fbe4 fbe4fbe4 fbe4fbe4 fbe4fbe4     ................
    3214:	fbe4fbe4 fbe4fbe4 fbe4fbe4 fbe4fbe4     ................
    3224:	fbe4fbe4 fbe4fbe4 fffffbe4 fbe4fbe4     ................
    3234:	fbe4fbe4 fbe4fbe4 fbe4fbe4 fbe4fbe4     ................
    3244:	fbe4fbe4 fbe4fbe4 fbe4fbe4 fbe4fbe4     ................
    3254:	fbe4fbe4 fbe4fbe4 fbe4fbe4 fbe4fbe4     ................
    3264:	fffffbe4 fbe4ffff fbe4fbe4 fbe4fbe4     ................
    3274:	fbe4fbe4 fbe4fbe4 fbe4fbe4 fbe4fbe4     ................
    3284:	fbe4fbe4 fbe4fbe4 fbe4fbe4 fbe4fbe4     ................
    3294:	fbe4fbe4 fbe4fbe4 fbe4fbe4 fbe4fbe4     ................
    32a4:	fbe4ffff fbe4fbe4 fbe4fbe4 fbe4fbe4     ................
    32b4:	fbe4fbe4 fbe4fbe4 fbe4fbe4 fbe4fbe4     ................
    32c4:	fbe4fbe4 fbe4fbe4 fbe4fbe4 fbe4fbe4     ................
    32d4:	fbe4fbe4 fbe4fbe4 fbe4fbe4 fffffbe4     ................
    32e4:	fbe4fbe4 fbe4fbe4 fbe4fbe4 fbe4fbe4     ................
    32f4:	fbe4fbe4 fbe4fbe4 fbe4fbe4 fbe4fbe4     ................
    3304:	fbe4fbe4 fbe4fbe4 fbe4fbe4 fbe4fbe4     ................
    3314:	fbe4fbe4 fffffbe4 fbe4ffff fbe4fbe4     ................
    3324:	fbe4fbe4 fbe4fbe4 fbe4fbe4 fbe4fbe4     ................
    3334:	fbe4fbe4 fbe4fbe4 fbe4fbe4 fbe4fbe4     ................
    3344:	fbe4fbe4 fbe4fbe4 fbe4fbe4 fbe4fbe4     ................
    3354:	fbe4fbe4 fbe4ffff fbe4fbe4 fbe4fbe4     ................
    3364:	fbe4fbe4 fbe4fbe4 fbe4fbe4 fbe4fbe4     ................
    3374:	fbe4fbe4 fbe4fbe4 fbe4fbe4 fbe4fbe4     ................
    3384:	fbe4fbe4 fbe4fbe4 fbe4fbe4 fbe4fbe4     ................
    3394:	fffffbe4 fbe4fbe4 fbe4fbe4 fbe4fbe4     ................
    33a4:	fbe4fbe4 fbe4fbe4 fbe4fbe4 fbe4fbe4     ................
    33b4:	fbe4fbe4 fbe4fbe4 fbe4fbe4 fbe4fbe4     ................
    33c4:	fbe4fbe4 fbe4fbe4 fffffbe4 fbe4ffff     ................
    33d4:	fbe4fbe4 fbe4fbe4 fbe4fbe4 fbe4fbe4     ................
    33e4:	fbe4fbe4 fbe4fbe4 fbe4fbe4 fbe4fbe4     ................
    33f4:	fbe4fbe4 fbe4fbe4 fbe4fbe4 fbe4fbe4     ................
    3404:	fbe4fbe4 fbe4fbe4 fbe4ffff fbe4fbe4     ................
    3414:	fbe4fbe4 fbe4fbe4 fbe4fbe4 fbe4fbe4     ................
    3424:	fbe4fbe4 fbe4fbe4 fbe4fbe4 fbe4fbe4     ................
    3434:	fbe4fbe4 fbe4fbe4 fbe4fbe4 fbe4fbe4     ................
    3444:	fbe4fbe4 fffffbe4 fbe4fbe4 fbe4fbe4     ................
    3454:	fbe4fbe4 fbe4fbe4 fbe4fbe4 fbe4fbe4     ................
    3464:	fbe4fbe4 fbe4fbe4 fbe4fbe4 fbe4fbe4     ................
    3474:	fbe4fbe4 fbe4fbe4 fbe4fbe4 fffffbe4     ................
    3484:	fbe4ffff fbe4fbe4 fbe4fbe4 fbe4fbe4     ................
    3494:	fbe4fbe4 fbe4fbe4 fbe4fbe4 fbe4fbe4     ................
    34a4:	fbe4fbe4 fbe4fbe4 fbe4fbe4 fbe4fbe4     ................
    34b4:	fbe4fbe4 fbe4fbe4 fbe4fbe4 fbe4ffff     ................
    34c4:	fbe4fbe4 fbe4fbe4 fbe4fbe4 fbe4fbe4     ................
    34d4:	fbe4fbe4 fbe4fbe4 fbe4fbe4 fbe4fbe4     ................
    34e4:	fbe4fbe4 fbe4fbe4 fbe4fbe4 fbe4fbe4     ................
    34f4:	fbe4fbe4 fbe4fbe4 fffffbe4 fbe4fbe4     ................
    3504:	fbe4fbe4 fbe4fbe4 fbe4fbe4 fbe4fbe4     ................
    3514:	fbe4fbe4 fbe4fbe4 fbe4fbe4 fbe4fbe4     ................
    3524:	fbe4fbe4 fbe4fbe4 fbe4fbe4 fbe4fbe4     ................
    3534:	fffffbe4 fbe4ffff fbe4fbe4 fbe4fbe4     ................
    3544:	fbe4fbe4 fbe4fbe4 fbe4fbe4 fbe4fbe4     ................
    3554:	fbe4fbe4 fbe4fbe4 fbe4fbe4 fbe4fbe4     ................
    3564:	fbe4fbe4 fbe4fbe4 fbe4fbe4 fbe4fbe4     ................
    3574:	fbe4ffff fbe4fbe4 fbe4fbe4 fbe4fbe4     ................
    3584:	fbe4fbe4 fbe4fbe4 fbe4fbe4 fbe4fbe4     ................
    3594:	fbe4fbe4 fbe4fbe4 fbe4fbe4 fbe4fbe4     ................
    35a4:	fbe4fbe4 fbe4fbe4 fbe4fbe4 fffffbe4     ................
    35b4:	fbe4fbe4 fbe4fbe4 fbe4fbe4 fbe4fbe4     ................
    35c4:	fbe4fbe4 fbe4fbe4 fbe4fbe4 fbe4fbe4     ................
    35d4:	fbe4fbe4 fbe4fbe4 fbe4fbe4 fbe4fbe4     ................
    35e4:	fbe4fbe4 fffffbe4 fbe4ffff fbe4fbe4     ................
    35f4:	fbe4fbe4 fbe4fbe4 fbe4fbe4 fbe4fbe4     ................
    3604:	fbe4fbe4 fbe4fbe4 fbe4fbe4 fbe4fbe4     ................
    3614:	fbe4fbe4 fbe4fbe4 fbe4fbe4 fbe4fbe4     ................
    3624:	fbe4fbe4 fbe4ffff fbe4fbe4 fbe4fbe4     ................
    3634:	fbe4fbe4 fbe4fbe4 fbe4fbe4 fbe4fbe4     ................
    3644:	fbe4fbe4 fbe4fbe4 fbe4fbe4 fbe4fbe4     ................
    3654:	fbe4fbe4 fbe4fbe4 fbe4fbe4 fbe4fbe4     ................
    3664:	fffffbe4 fbe4fbe4 fbe4fbe4 fbe4fbe4     ................
    3674:	fbe4fbe4 fbe4fbe4 fbe4fbe4 fbe4fbe4     ................
    3684:	fbe4fbe4 fbe4fbe4 fbe4fbe4 fbe4fbe4     ................
    3694:	fbe4fbe4 fbe4fbe4 fffffbe4 fbe4ffff     ................
    36a4:	fbe4fbe4 fbe4fbe4 fbe4fbe4 fbe4fbe4     ................
    36b4:	fbe4fbe4 fbe4fbe4 fbe4fbe4 fbe4fbe4     ................
    36c4:	fbe4fbe4 fbe4fbe4 fbe4fbe4 fbe4fbe4     ................
    36d4:	fbe4fbe4 fbe4fbe4 fbe4ffff fbe4fbe4     ................
    36e4:	fbe4fbe4 fbe4fbe4 fbe4fbe4 fbe4fbe4     ................
    36f4:	fbe4fbe4 fbe4fbe4 fbe4fbe4 fbe4fbe4     ................
    3704:	fbe4fbe4 fbe4fbe4 fbe4fbe4 fbe4fbe4     ................
    3714:	fbe4fbe4 fffffbe4 fbe4fbe4 fbe4fbe4     ................
    3724:	fbe4fbe4 fbe4fbe4 fbe4fbe4 fbe4fbe4     ................
    3734:	fbe4fbe4 fbe4fbe4 fbe4fbe4 fbe4fbe4     ................
    3744:	fbe4fbe4 fbe4fbe4 fbe4fbe4 fffffbe4     ................
    3754:	ffffffff ffffffff ffffffff ffffffff     ................
    3764:	ffffffff ffffffff ffffffff ffffffff     ................
    3774:	ffffffff ffffffff ffffffff ffffffff     ................
    3784:	ffffffff ffffffff ffffffff ffffffff     ................
    3794:	ffffffff ffffffff ffffffff ffffffff     ................
    37a4:	ffffffff ffffffff ffffffff ffffffff     ................
    37b4:	ffffffff ffffffff ffffffff ffffffff     ................
    37c4:	ffffffff ffffffff ffffffff ffffffff     ................
    37d4:	ffffffff ffffffff ffffffff ffffffff     ................
    37e4:	ffffffff ffffffff ffffffff ffffffff     ................
    37f4:	ffffffff ffffffff ffffffff ffffffff     ................
    3804:	ffffffff fbe4ffff fbe4fbe4 fbe4fbe4     ................
    3814:	fbe4fbe4 fbe4fbe4 fbe4fbe4 fbe4fbe4     ................
    3824:	fbe4fbe4 fbe4fbe4 fbe4fbe4 fbe4fbe4     ................
    3834:	fbe4fbe4 fbe4fbe4 fbe4fbe4 fbe4fbe4     ................
    3844:	fbe4ffff fbe4fbe4 fbe4fbe4 fbe4fbe4     ................
    3854:	fbe4fbe4 fbe4fbe4 fbe4fbe4 fbe4fbe4     ................
    3864:	fbe4fbe4 fbe4fbe4 fbe4fbe4 fbe4fbe4     ................
    3874:	fbe4fbe4 fbe4fbe4 fbe4fbe4 fffffbe4     ................
    3884:	fbe4fbe4 fbe4fbe4 fbe4fbe4 fbe4fbe4     ................
    3894:	fbe4fbe4 fbe4fbe4 fbe4fbe4 fbe4fbe4     ................
    38a4:	fbe4fbe4 fbe4fbe4 fbe4fbe4 fbe4fbe4     ................
    38b4:	fbe4fbe4 fffffbe4 fbe4ffff fbe4fbe4     ................
    38c4:	fbe4fbe4 fbe4fbe4 fbe4fbe4 fbe4fbe4     ................
    38d4:	fbe4fbe4 fbe4fbe4 fbe4fbe4 fbe4fbe4     ................
    38e4:	fbe4fbe4 fbe4fbe4 fbe4fbe4 fbe4fbe4     ................
    38f4:	fbe4fbe4 fbe4ffff fbe4fbe4 fbe4fbe4     ................
    3904:	fbe4fbe4 fbe4fbe4 fbe4fbe4 fbe4fbe4     ................
    3914:	fbe4fbe4 fbe4fbe4 fbe4fbe4 fbe4fbe4     ................
    3924:	fbe4fbe4 fbe4fbe4 fbe4fbe4 fbe4fbe4     ................
    3934:	fffffbe4 fbe4fbe4 fbe4fbe4 fbe4fbe4     ................
    3944:	fbe4fbe4 fbe4fbe4 fbe4fbe4 fbe4fbe4     ................
    3954:	fbe4fbe4 fbe4fbe4 fbe4fbe4 fbe4fbe4     ................
    3964:	fbe4fbe4 fbe4fbe4 fffffbe4 fbe4ffff     ................
    3974:	fbe4fbe4 fbe4fbe4 fbe4fbe4 fbe4fbe4     ................
    3984:	fbe4fbe4 fbe4fbe4 fbe4fbe4 fbe4fbe4     ................
    3994:	fbe4fbe4 fbe4fbe4 fbe4fbe4 fbe4fbe4     ................
    39a4:	fbe4fbe4 fbe4fbe4 fbe4ffff fbe4fbe4     ................
    39b4:	fbe4fbe4 fbe4fbe4 fbe4fbe4 fbe4fbe4     ................
    39c4:	fbe4fbe4 fbe4fbe4 fbe4fbe4 fbe4fbe4     ................
    39d4:	fbe4fbe4 fbe4fbe4 fbe4fbe4 fbe4fbe4     ................
    39e4:	fbe4fbe4 fffffbe4 fbe4fbe4 fbe4fbe4     ................
    39f4:	fbe4fbe4 fbe4fbe4 fbe4fbe4 fbe4fbe4     ................
    3a04:	fbe4fbe4 fbe4fbe4 fbe4fbe4 fbe4fbe4     ................
    3a14:	fbe4fbe4 fbe4fbe4 fbe4fbe4 fffffbe4     ................
    3a24:	fbe4ffff fbe4fbe4 fbe4fbe4 fbe4fbe4     ................
    3a34:	fbe4fbe4 fbe4fbe4 fbe4fbe4 fbe4fbe4     ................
    3a44:	fbe4fbe4 fbe4fbe4 fbe4fbe4 fbe4fbe4     ................
    3a54:	fbe4fbe4 fbe4fbe4 fbe4fbe4 fbe4ffff     ................
    3a64:	fbe4fbe4 fbe4fbe4 fbe4fbe4 fbe4fbe4     ................
    3a74:	fbe4fbe4 fbe4fbe4 fbe4fbe4 fbe4fbe4     ................
    3a84:	fbe4fbe4 fbe4fbe4 fbe4fbe4 fbe4fbe4     ................
    3a94:	fbe4fbe4 fbe4fbe4 fffffbe4 fbe4fbe4     ................
    3aa4:	fbe4fbe4 fbe4fbe4 fbe4fbe4 fbe4fbe4     ................
    3ab4:	fbe4fbe4 fbe4fbe4 fbe4fbe4 fbe4fbe4     ................
    3ac4:	fbe4fbe4 fbe4fbe4 fbe4fbe4 fbe4fbe4     ................
    3ad4:	fffffbe4 fbe4ffff fbe4fbe4 fbe4fbe4     ................
    3ae4:	fbe4fbe4 fbe4fbe4 fbe4fbe4 fbe4fbe4     ................
    3af4:	fbe4fbe4 fbe4fbe4 fbe4fbe4 fbe4fbe4     ................
    3b04:	fbe4fbe4 fbe4fbe4 fbe4fbe4 fbe4fbe4     ................
    3b14:	fbe4ffff fbe4fbe4 fbe4fbe4 fbe4fbe4     ................
    3b24:	fbe4fbe4 fbe4fbe4 fbe4fbe4 fbe4fbe4     ................
    3b34:	fbe4fbe4 fbe4fbe4 fbe4fbe4 fbe4fbe4     ................
    3b44:	fbe4fbe4 fbe4fbe4 fbe4fbe4 fffffbe4     ................
    3b54:	fbe4fbe4 fbe4fbe4 fbe4fbe4 fbe4fbe4     ................
    3b64:	fbe4fbe4 fbe4fbe4 fbe4fbe4 fbe4fbe4     ................
    3b74:	fbe4fbe4 fbe4fbe4 fbe4fbe4 fbe4fbe4     ................
    3b84:	fbe4fbe4 fffffbe4 fbe4ffff fbe4fbe4     ................
    3b94:	fbe4fbe4 fbe4fbe4 fbe4fbe4 fbe4fbe4     ................
    3ba4:	fbe4fbe4 fbe4fbe4 fbe4fbe4 fbe4fbe4     ................
    3bb4:	fbe4fbe4 fbe4fbe4 fbe4fbe4 fbe4fbe4     ................
    3bc4:	fbe4fbe4 fbe4ffff fbe4fbe4 fbe4fbe4     ................
    3bd4:	fbe4fbe4 fbe4fbe4 fbe4fbe4 fbe4fbe4     ................
    3be4:	fbe4fbe4 fbe4fbe4 fbe4fbe4 fbe4fbe4     ................
    3bf4:	fbe4fbe4 fbe4fbe4 fbe4fbe4 fbe4fbe4     ................
    3c04:	fffffbe4 fbe4fbe4 fbe4fbe4 fbe4fbe4     ................
    3c14:	fbe4fbe4 fbe4fbe4 fbe4fbe4 fbe4fbe4     ................
    3c24:	fbe4fbe4 fbe4fbe4 fbe4fbe4 fbe4fbe4     ................
    3c34:	fbe4fbe4 fbe4fbe4 fffffbe4 fbe4ffff     ................
    3c44:	fbe4fbe4 fbe4fbe4 fbe4fbe4 fbe4fbe4     ................
    3c54:	fbe4fbe4 fbe4fbe4 fbe4fbe4 fbe4fbe4     ................
    3c64:	fbe4fbe4 fbe4fbe4 fbe4fbe4 fbe4fbe4     ................
    3c74:	fbe4fbe4 fbe4fbe4 fbe4ffff fbe4fbe4     ................
    3c84:	fbe4fbe4 fbe4fbe4 fbe4fbe4 fbe4fbe4     ................
    3c94:	fbe4fbe4 fbe4fbe4 fbe4fbe4 fbe4fbe4     ................
    3ca4:	fbe4fbe4 fbe4fbe4 fbe4fbe4 fbe4fbe4     ................
    3cb4:	fbe4fbe4 fffffbe4 fbe4fbe4 fbe4fbe4     ................
    3cc4:	fbe4fbe4 fbe4fbe4 fbe4fbe4 fbe4fbe4     ................
    3cd4:	fbe4fbe4 fbe4fbe4 fbe4fbe4 fbe4fbe4     ................
    3ce4:	fbe4fbe4 fbe4fbe4 fbe4fbe4 fffffbe4     ................
    3cf4:	fbe4ffff fbe4fbe4 fbe4fbe4 fbe4fbe4     ................
    3d04:	fbe4fbe4 fbe4fbe4 fbe4fbe4 fbe4fbe4     ................
    3d14:	fbe4fbe4 fbe4fbe4 fbe4fbe4 fbe4fbe4     ................
    3d24:	fbe4fbe4 fbe4fbe4 fbe4fbe4 fbe4ffff     ................
    3d34:	fbe4fbe4 fbe4fbe4 fbe4fbe4 fbe4fbe4     ................
    3d44:	fbe4fbe4 fbe4fbe4 fbe4fbe4 fbe4fbe4     ................
    3d54:	fbe4fbe4 fbe4fbe4 fbe4fbe4 fbe4fbe4     ................
    3d64:	fbe4fbe4 fbe4fbe4 fffffbe4 fbe4fbe4     ................
    3d74:	fbe4fbe4 fbe4fbe4 fbe4fbe4 fbe4fbe4     ................
    3d84:	fbe4fbe4 fbe4fbe4 fbe4fbe4 fbe4fbe4     ................
    3d94:	fbe4fbe4 fbe4fbe4 fbe4fbe4 fbe4fbe4     ................
    3da4:	fffffbe4 fbe4ffff fbe4fbe4 fbe4fbe4     ................
    3db4:	fbe4fbe4 fbe4fbe4 fbe4fbe4 fbe4fbe4     ................
    3dc4:	fbe4fbe4 fbe4fbe4 fbe4fbe4 fbe4fbe4     ................
    3dd4:	fbe4fbe4 fbe4fbe4 fbe4fbe4 fbe4fbe4     ................
    3de4:	fbe4ffff fbe4fbe4 fbe4fbe4 fbe4fbe4     ................
    3df4:	fbe4fbe4 fbe4fbe4 fbe4fbe4 fbe4fbe4     ................
    3e04:	fbe4fbe4 fbe4fbe4 fbe4fbe4 fbe4fbe4     ................
    3e14:	fbe4fbe4 fbe4fbe4 fbe4fbe4 fffffbe4     ................
    3e24:	fbe4fbe4 fbe4fbe4 fbe4fbe4 fbe4fbe4     ................
    3e34:	fbe4fbe4 fbe4fbe4 fbe4fbe4 fbe4fbe4     ................
    3e44:	fbe4fbe4 fbe4fbe4 fbe4fbe4 fbe4fbe4     ................
    3e54:	fbe4fbe4 fffffbe4 fbe4ffff fbe4fbe4     ................
    3e64:	fbe4fbe4 fbe4fbe4 fbe4fbe4 fbe4fbe4     ................
    3e74:	fbe4fbe4 fbe4fbe4 fbe4fbe4 fbe4fbe4     ................
    3e84:	fbe4fbe4 fbe4fbe4 fbe4fbe4 fbe4fbe4     ................
    3e94:	fbe4fbe4 fbe4ffff fbe4fbe4 fbe4fbe4     ................
    3ea4:	fbe4fbe4 fbe4fbe4 fbe4fbe4 fbe4fbe4     ................
    3eb4:	fbe4fbe4 fbe4fbe4 fbe4fbe4 fbe4fbe4     ................
    3ec4:	fbe4fbe4 fbe4fbe4 fbe4fbe4 fbe4fbe4     ................
    3ed4:	fffffbe4 fbe4fbe4 fbe4fbe4 fbe4fbe4     ................
    3ee4:	fbe4fbe4 fbe4fbe4 fbe4fbe4 fbe4fbe4     ................
    3ef4:	fbe4fbe4 fbe4fbe4 fbe4fbe4 fbe4fbe4     ................
    3f04:	fbe4fbe4 fbe4fbe4 fffffbe4 fbe4ffff     ................
    3f14:	fbe4fbe4 fbe4fbe4 fbe4fbe4 fbe4fbe4     ................
    3f24:	fbe4fbe4 fbe4fbe4 fbe4fbe4 fbe4fbe4     ................
    3f34:	fbe4fbe4 fbe4fbe4 fbe4fbe4 fbe4fbe4     ................
    3f44:	fbe4fbe4 fbe4fbe4 fbe4ffff fbe4fbe4     ................
    3f54:	fbe4fbe4 fbe4fbe4 fbe4fbe4 fbe4fbe4     ................
    3f64:	fbe4fbe4 fbe4fbe4 fbe4fbe4 fbe4fbe4     ................
    3f74:	fbe4fbe4 fbe4fbe4 fbe4fbe4 fbe4fbe4     ................
    3f84:	fbe4fbe4 fffffbe4 fbe4fbe4 fbe4fbe4     ................
    3f94:	fbe4fbe4 fbe4fbe4 fbe4fbe4 fbe4fbe4     ................
    3fa4:	fbe4fbe4 fbe4fbe4 fbe4fbe4 fbe4fbe4     ................
    3fb4:	fbe4fbe4 fbe4fbe4 fbe4fbe4 fffffbe4     ................
    3fc4:	fbe4ffff fbe4fbe4 fbe4fbe4 fbe4fbe4     ................
    3fd4:	fbe4fbe4 fbe4fbe4 fbe4fbe4 fbe4fbe4     ................
    3fe4:	fbe4fbe4 fbe4fbe4 fbe4fbe4 fbe4fbe4     ................
    3ff4:	fbe4fbe4 fbe4fbe4 fbe4fbe4 fbe4ffff     ................
    4004:	fbe4fbe4 fbe4fbe4 fbe4fbe4 fbe4fbe4     ................
    4014:	fbe4fbe4 fbe4fbe4 fbe4fbe4 fbe4fbe4     ................
    4024:	fbe4fbe4 fbe4fbe4 fbe4fbe4 fbe4fbe4     ................
    4034:	fbe4fbe4 fbe4fbe4 fffffbe4 fbe4fbe4     ................
    4044:	fbe4fbe4 fbe4fbe4 fbe4fbe4 fbe4fbe4     ................
    4054:	fbe4fbe4 fbe4fbe4 fbe4fbe4 fbe4fbe4     ................
    4064:	fbe4fbe4 fbe4fbe4 fbe4fbe4 fbe4fbe4     ................
    4074:	fffffbe4 fbe4ffff fbe4fbe4 fbe4fbe4     ................
    4084:	fbe4fbe4 fbe4fbe4 fbe4fbe4 fbe4fbe4     ................
    4094:	fbe4fbe4 fbe4fbe4 fbe4fbe4 fbe4fbe4     ................
    40a4:	fbe4fbe4 fbe4fbe4 fbe4fbe4 fbe4fbe4     ................
    40b4:	fbe4ffff fbe4fbe4 fbe4fbe4 fbe4fbe4     ................
    40c4:	fbe4fbe4 fbe4fbe4 fbe4fbe4 fbe4fbe4     ................
    40d4:	fbe4fbe4 fbe4fbe4 fbe4fbe4 fbe4fbe4     ................
    40e4:	fbe4fbe4 fbe4fbe4 fbe4fbe4 fffffbe4     ................
    40f4:	fbe4fbe4 fbe4fbe4 fbe4fbe4 fbe4fbe4     ................
    4104:	fbe4fbe4 fbe4fbe4 fbe4fbe4 fbe4fbe4     ................
    4114:	fbe4fbe4 fbe4fbe4 fbe4fbe4 fbe4fbe4     ................
    4124:	fbe4fbe4 fffffbe4 fbe4ffff fbe4fbe4     ................
    4134:	fbe4fbe4 fbe4fbe4 fbe4fbe4 fbe4fbe4     ................
    4144:	fbe4fbe4 fbe4fbe4 fbe4fbe4 fbe4fbe4     ................
    4154:	fbe4fbe4 fbe4fbe4 fbe4fbe4 fbe4fbe4     ................
    4164:	fbe4fbe4 fbe4ffff fbe4fbe4 fbe4fbe4     ................
    4174:	fbe4fbe4 fbe4fbe4 fbe4fbe4 fbe4fbe4     ................
    4184:	fbe4fbe4 fbe4fbe4 fbe4fbe4 fbe4fbe4     ................
    4194:	fbe4fbe4 fbe4fbe4 fbe4fbe4 fbe4fbe4     ................
    41a4:	fffffbe4 fbe4fbe4 fbe4fbe4 fbe4fbe4     ................
    41b4:	fbe4fbe4 fbe4fbe4 fbe4fbe4 fbe4fbe4     ................
    41c4:	fbe4fbe4 fbe4fbe4 fbe4fbe4 fbe4fbe4     ................
    41d4:	fbe4fbe4 fbe4fbe4 fffffbe4 fbe4ffff     ................
    41e4:	fbe4fbe4 fbe4fbe4 fbe4fbe4 fbe4fbe4     ................
    41f4:	fbe4fbe4 fbe4fbe4 fbe4fbe4 fbe4fbe4     ................
    4204:	fbe4fbe4 fbe4fbe4 fbe4fbe4 fbe4fbe4     ................
    4214:	fbe4fbe4 fbe4fbe4 fbe4ffff fbe4fbe4     ................
    4224:	fbe4fbe4 fbe4fbe4 fbe4fbe4 fbe4fbe4     ................
    4234:	fbe4fbe4 fbe4fbe4 fbe4fbe4 fbe4fbe4     ................
    4244:	fbe4fbe4 fbe4fbe4 fbe4fbe4 fbe4fbe4     ................
    4254:	fbe4fbe4 fffffbe4 fbe4fbe4 fbe4fbe4     ................
    4264:	fbe4fbe4 fbe4fbe4 fbe4fbe4 fbe4fbe4     ................
    4274:	fbe4fbe4 fbe4fbe4 fbe4fbe4 fbe4fbe4     ................
    4284:	fbe4fbe4 fbe4fbe4 fbe4fbe4 fffffbe4     ................
    4294:	fbe4ffff fbe4fbe4 fbe4fbe4 fbe4fbe4     ................
    42a4:	fbe4fbe4 fbe4fbe4 fbe4fbe4 fbe4fbe4     ................
    42b4:	fbe4fbe4 fbe4fbe4 fbe4fbe4 fbe4fbe4     ................
    42c4:	fbe4fbe4 fbe4fbe4 fbe4fbe4 fbe4ffff     ................
    42d4:	fbe4fbe4 fbe4fbe4 fbe4fbe4 fbe4fbe4     ................
    42e4:	fbe4fbe4 fbe4fbe4 fbe4fbe4 fbe4fbe4     ................
    42f4:	fbe4fbe4 fbe4fbe4 fbe4fbe4 fbe4fbe4     ................
    4304:	fbe4fbe4 fbe4fbe4 fffffbe4 fbe4fbe4     ................
    4314:	fbe4fbe4 fbe4fbe4 fbe4fbe4 fbe4fbe4     ................
    4324:	fbe4fbe4 fbe4fbe4 fbe4fbe4 fbe4fbe4     ................
    4334:	fbe4fbe4 fbe4fbe4 fbe4fbe4 fbe4fbe4     ................
    4344:	fffffbe4 fbe4ffff fbe4fbe4 fbe4fbe4     ................
    4354:	fbe4fbe4 fbe4fbe4 fbe4fbe4 fbe4fbe4     ................
    4364:	fbe4fbe4 fbe4fbe4 fbe4fbe4 fbe4fbe4     ................
    4374:	fbe4fbe4 fbe4fbe4 fbe4fbe4 fbe4fbe4     ................
    4384:	fbe4ffff fbe4fbe4 fbe4fbe4 fbe4fbe4     ................
    4394:	fbe4fbe4 fbe4fbe4 fbe4fbe4 fbe4fbe4     ................
    43a4:	fbe4fbe4 fbe4fbe4 fbe4fbe4 fbe4fbe4     ................
    43b4:	fbe4fbe4 fbe4fbe4 fbe4fbe4 fffffbe4     ................
    43c4:	fbe4fbe4 fbe4fbe4 fbe4fbe4 fbe4fbe4     ................
    43d4:	fbe4fbe4 fbe4fbe4 fbe4fbe4 fbe4fbe4     ................
    43e4:	fbe4fbe4 fbe4fbe4 fbe4fbe4 fbe4fbe4     ................
    43f4:	fbe4fbe4 fffffbe4 fbe4ffff fbe4fbe4     ................
    4404:	fbe4fbe4 fbe4fbe4 fbe4fbe4 fbe4fbe4     ................
    4414:	fbe4fbe4 fbe4fbe4 fbe4fbe4 fbe4fbe4     ................
    4424:	fbe4fbe4 fbe4fbe4 fbe4fbe4 fbe4fbe4     ................
    4434:	fbe4fbe4 fbe4ffff fbe4fbe4 fbe4fbe4     ................
    4444:	fbe4fbe4 fbe4fbe4 fbe4fbe4 fbe4fbe4     ................
    4454:	fbe4fbe4 fbe4fbe4 fbe4fbe4 fbe4fbe4     ................
    4464:	fbe4fbe4 fbe4fbe4 fbe4fbe4 fbe4fbe4     ................
    4474:	fffffbe4 fbe4fbe4 fbe4fbe4 fbe4fbe4     ................
    4484:	fbe4fbe4 fbe4fbe4 fbe4fbe4 fbe4fbe4     ................
    4494:	fbe4fbe4 fbe4fbe4 fbe4fbe4 fbe4fbe4     ................
    44a4:	fbe4fbe4 fbe4fbe4 fffffbe4 fbe4ffff     ................
    44b4:	fbe4fbe4 fbe4fbe4 fbe4fbe4 fbe4fbe4     ................
    44c4:	fbe4fbe4 fbe4fbe4 fbe4fbe4 fbe4fbe4     ................
    44d4:	fbe4fbe4 fbe4fbe4 fbe4fbe4 fbe4fbe4     ................
    44e4:	fbe4fbe4 fbe4fbe4 fbe4ffff fbe4fbe4     ................
    44f4:	fbe4fbe4 fbe4fbe4 fbe4fbe4 fbe4fbe4     ................
    4504:	fbe4fbe4 fbe4fbe4 fbe4fbe4 fbe4fbe4     ................
    4514:	fbe4fbe4 fbe4fbe4 fbe4fbe4 fbe4fbe4     ................
    4524:	fbe4fbe4 fffffbe4 fbe4fbe4 fbe4fbe4     ................
    4534:	fbe4fbe4 fbe4fbe4 fbe4fbe4 fbe4fbe4     ................
    4544:	fbe4fbe4 fbe4fbe4 fbe4fbe4 fbe4fbe4     ................
    4554:	fbe4fbe4 fbe4fbe4 fbe4fbe4 fffffbe4     ................
    4564:	fbe4ffff fbe4fbe4 fbe4fbe4 fbe4fbe4     ................
    4574:	fbe4fbe4 fbe4fbe4 fbe4fbe4 fbe4fbe4     ................
    4584:	fbe4fbe4 fbe4fbe4 fbe4fbe4 fbe4fbe4     ................
    4594:	fbe4fbe4 fbe4fbe4 fbe4fbe4 fbe4ffff     ................
    45a4:	fbe4fbe4 fbe4fbe4 fbe4fbe4 fbe4fbe4     ................
    45b4:	fbe4fbe4 fbe4fbe4 fbe4fbe4 fbe4fbe4     ................
    45c4:	fbe4fbe4 fbe4fbe4 fbe4fbe4 fbe4fbe4     ................
    45d4:	fbe4fbe4 fbe4fbe4 fffffbe4 fbe4fbe4     ................
    45e4:	fbe4fbe4 fbe4fbe4 fbe4fbe4 fbe4fbe4     ................
    45f4:	fbe4fbe4 fbe4fbe4 fbe4fbe4 fbe4fbe4     ................
    4604:	fbe4fbe4 fbe4fbe4 fbe4fbe4 fbe4fbe4     ................
    4614:	fffffbe4 fbe4ffff fbe4fbe4 fbe4fbe4     ................
    4624:	fbe4fbe4 fbe4fbe4 fbe4fbe4 fbe4fbe4     ................
    4634:	fbe4fbe4 fbe4fbe4 fbe4fbe4 fbe4fbe4     ................
    4644:	fbe4fbe4 fbe4fbe4 fbe4fbe4 fbe4fbe4     ................
    4654:	fbe4ffff fbe4fbe4 fbe4fbe4 fbe4fbe4     ................
    4664:	fbe4fbe4 fbe4fbe4 fbe4fbe4 fbe4fbe4     ................
    4674:	fbe4fbe4 fbe4fbe4 fbe4fbe4 fbe4fbe4     ................
    4684:	fbe4fbe4 fbe4fbe4 fbe4fbe4 fffffbe4     ................
    4694:	fbe4fbe4 fbe4fbe4 fbe4fbe4 fbe4fbe4     ................
    46a4:	fbe4fbe4 fbe4fbe4 fbe4fbe4 fbe4fbe4     ................
    46b4:	fbe4fbe4 fbe4fbe4 fbe4fbe4 fbe4fbe4     ................
    46c4:	fbe4fbe4 fffffbe4 fbe4ffff fbe4fbe4     ................
    46d4:	fbe4fbe4 fbe4fbe4 fbe4fbe4 fbe4fbe4     ................
    46e4:	fbe4fbe4 fbe4fbe4 fbe4fbe4 fbe4fbe4     ................
    46f4:	fbe4fbe4 fbe4fbe4 fbe4fbe4 fbe4fbe4     ................
    4704:	fbe4fbe4 fbe4ffff fbe4fbe4 fbe4fbe4     ................
    4714:	fbe4fbe4 fbe4fbe4 fbe4fbe4 fbe4fbe4     ................
    4724:	fbe4fbe4 fbe4fbe4 fbe4fbe4 fbe4fbe4     ................
    4734:	fbe4fbe4 fbe4fbe4 fbe4fbe4 fbe4fbe4     ................
    4744:	fffffbe4 fbe4fbe4 fbe4fbe4 fbe4fbe4     ................
    4754:	fbe4fbe4 fbe4fbe4 fbe4fbe4 fbe4fbe4     ................
    4764:	fbe4fbe4 fbe4fbe4 fbe4fbe4 fbe4fbe4     ................
    4774:	fbe4fbe4 fbe4fbe4 fffffbe4 fbe4ffff     ................
    4784:	fbe4fbe4 fbe4fbe4 fbe4fbe4 fbe4fbe4     ................
    4794:	fbe4fbe4 fbe4fbe4 fbe4fbe4 fbe4fbe4     ................
    47a4:	fbe4fbe4 fbe4fbe4 fbe4fbe4 fbe4fbe4     ................
    47b4:	fbe4fbe4 fbe4fbe4 fbe4ffff fbe4fbe4     ................
    47c4:	fbe4fbe4 fbe4fbe4 fbe4fbe4 fbe4fbe4     ................
    47d4:	fbe4fbe4 fbe4fbe4 fbe4fbe4 fbe4fbe4     ................
    47e4:	fbe4fbe4 fbe4fbe4 fbe4fbe4 fbe4fbe4     ................
    47f4:	fbe4fbe4 fffffbe4 fbe4fbe4 fbe4fbe4     ................
    4804:	fbe4fbe4 fbe4fbe4 fbe4fbe4 fbe4fbe4     ................
    4814:	fbe4fbe4 fbe4fbe4 fbe4fbe4 fbe4fbe4     ................
    4824:	fbe4fbe4 fbe4fbe4 fbe4fbe4 fffffbe4     ................
    4834:	fbe4ffff fbe4fbe4 fbe4fbe4 fbe4fbe4     ................
    4844:	fbe4fbe4 fbe4fbe4 fbe4fbe4 fbe4fbe4     ................
    4854:	fbe4fbe4 fbe4fbe4 fbe4fbe4 fbe4fbe4     ................
    4864:	fbe4fbe4 fbe4fbe4 fbe4fbe4 fbe4ffff     ................
    4874:	fbe4fbe4 fbe4fbe4 fbe4fbe4 fbe4fbe4     ................
    4884:	fbe4fbe4 fbe4fbe4 fbe4fbe4 fbe4fbe4     ................
    4894:	fbe4fbe4 fbe4fbe4 fbe4fbe4 fbe4fbe4     ................
    48a4:	fbe4fbe4 fbe4fbe4 fffffbe4 fbe4fbe4     ................
    48b4:	fbe4fbe4 fbe4fbe4 fbe4fbe4 fbe4fbe4     ................
    48c4:	fbe4fbe4 fbe4fbe4 fbe4fbe4 fbe4fbe4     ................
    48d4:	fbe4fbe4 fbe4fbe4 fbe4fbe4 fbe4fbe4     ................
    48e4:	fffffbe4 fbe4ffff fbe4fbe4 fbe4fbe4     ................
    48f4:	fbe4fbe4 fbe4fbe4 fbe4fbe4 fbe4fbe4     ................
    4904:	fbe4fbe4 fbe4fbe4 fbe4fbe4 fbe4fbe4     ................
    4914:	fbe4fbe4 fbe4fbe4 fbe4fbe4 fbe4fbe4     ................
    4924:	fbe4ffff fbe4fbe4 fbe4fbe4 fbe4fbe4     ................
    4934:	fbe4fbe4 fbe4fbe4 fbe4fbe4 fbe4fbe4     ................
    4944:	fbe4fbe4 fbe4fbe4 fbe4fbe4 fbe4fbe4     ................
    4954:	fbe4fbe4 fbe4fbe4 fbe4fbe4 fffffbe4     ................
    4964:	fbe4fbe4 fbe4fbe4 fbe4fbe4 fbe4fbe4     ................
    4974:	fbe4fbe4 fbe4fbe4 fbe4fbe4 fbe4fbe4     ................
    4984:	fbe4fbe4 fbe4fbe4 fbe4fbe4 fbe4fbe4     ................
    4994:	fbe4fbe4 fffffbe4 fbe4ffff fbe4fbe4     ................
    49a4:	fbe4fbe4 fbe4fbe4 fbe4fbe4 fbe4fbe4     ................
    49b4:	fbe4fbe4 fbe4fbe4 fbe4fbe4 fbe4fbe4     ................
    49c4:	fbe4fbe4 fbe4fbe4 fbe4fbe4 fbe4fbe4     ................
    49d4:	fbe4fbe4 fbe4ffff fbe4fbe4 fbe4fbe4     ................
    49e4:	fbe4fbe4 fbe4fbe4 fbe4fbe4 fbe4fbe4     ................
    49f4:	fbe4fbe4 fbe4fbe4 fbe4fbe4 fbe4fbe4     ................
    4a04:	fbe4fbe4 fbe4fbe4 fbe4fbe4 fbe4fbe4     ................
    4a14:	fffffbe4 fbe4fbe4 fbe4fbe4 fbe4fbe4     ................
    4a24:	fbe4fbe4 fbe4fbe4 fbe4fbe4 fbe4fbe4     ................
    4a34:	fbe4fbe4 fbe4fbe4 fbe4fbe4 fbe4fbe4     ................
    4a44:	fbe4fbe4 fbe4fbe4 fffffbe4 fbe4ffff     ................
    4a54:	fbe4fbe4 fbe4fbe4 fbe4fbe4 fbe4fbe4     ................
    4a64:	fbe4fbe4 fbe4fbe4 fbe4fbe4 fbe4fbe4     ................
    4a74:	fbe4fbe4 fbe4fbe4 fbe4fbe4 fbe4fbe4     ................
    4a84:	fbe4fbe4 fbe4fbe4 fbe4ffff fbe4fbe4     ................
    4a94:	fbe4fbe4 fbe4fbe4 fbe4fbe4 fbe4fbe4     ................
    4aa4:	fbe4fbe4 fbe4fbe4 fbe4fbe4 fbe4fbe4     ................
    4ab4:	fbe4fbe4 fbe4fbe4 fbe4fbe4 fbe4fbe4     ................
    4ac4:	fbe4fbe4 fffffbe4 fbe4fbe4 fbe4fbe4     ................
    4ad4:	fbe4fbe4 fbe4fbe4 fbe4fbe4 fbe4fbe4     ................
    4ae4:	fbe4fbe4 fbe4fbe4 fbe4fbe4 fbe4fbe4     ................
    4af4:	fbe4fbe4 fbe4fbe4 fbe4fbe4 fffffbe4     ................
    4b04:	fbe4ffff fbe4fbe4 fbe4fbe4 fbe4fbe4     ................
    4b14:	fbe4fbe4 fbe4fbe4 fbe4fbe4 fbe4fbe4     ................
    4b24:	fbe4fbe4 fbe4fbe4 fbe4fbe4 fbe4fbe4     ................
    4b34:	fbe4fbe4 fbe4fbe4 fbe4fbe4 fbe4ffff     ................
    4b44:	fbe4fbe4 fbe4fbe4 fbe4fbe4 fbe4fbe4     ................
    4b54:	fbe4fbe4 fbe4fbe4 fbe4fbe4 fbe4fbe4     ................
    4b64:	fbe4fbe4 fbe4fbe4 fbe4fbe4 fbe4fbe4     ................
    4b74:	fbe4fbe4 fbe4fbe4 fffffbe4 fbe4fbe4     ................
    4b84:	fbe4fbe4 fbe4fbe4 fbe4fbe4 fbe4fbe4     ................
    4b94:	fbe4fbe4 fbe4fbe4 fbe4fbe4 fbe4fbe4     ................
    4ba4:	fbe4fbe4 fbe4fbe4 fbe4fbe4 fbe4fbe4     ................
    4bb4:	fffffbe4 ffffffff ffffffff ffffffff     ................
    4bc4:	ffffffff ffffffff ffffffff ffffffff     ................
    4bd4:	ffffffff ffffffff ffffffff ffffffff     ................
    4be4:	ffffffff ffffffff ffffffff ffffffff     ................
    4bf4:	ffffffff ffffffff ffffffff ffffffff     ................
    4c04:	ffffffff ffffffff ffffffff ffffffff     ................
    4c14:	ffffffff ffffffff ffffffff ffffffff     ................
    4c24:	ffffffff ffffffff ffffffff ffffffff     ................
    4c34:	ffffffff ffffffff ffffffff ffffffff     ................
    4c44:	ffffffff ffffffff ffffffff ffffffff     ................
    4c54:	ffffffff ffffffff ffffffff ffffffff     ................
	...

00004c6c <player>:
    4c6c:	fbe4fbe4 fbe4fbe4 fbe4fbe4 fbe4fbe4     ................
    4c7c:	fbe4fbe4 0000fbe4 00000000 00000000     ................
    4c8c:	00000000 fbe40000 fbe4fbe4 fbe4fbe4     ................
    4c9c:	fbe4fbe4 fbe4fbe4 fbe4fbe4 fbe4fbe4     ................
    4cac:	fbe4fbe4 fbe4fbe4 fbe4fbe4 0000fbe4     ................
    4cbc:	051d0000 051d051d 051d051d 051d051d     ................
    4ccc:	0000051d fbe40000 fbe4fbe4 fbe4fbe4     ................
    4cdc:	fbe4fbe4 fbe4fbe4 fbe4fbe4 fbe4fbe4     ................
    4cec:	fbe4fbe4 0000fbe4 051d0000 051d051d     ................
    4cfc:	051d051d 051d051d 051d051d 051d051d     ................
    4d0c:	0000051d fbe40000 fbe4fbe4 fbe4fbe4     ................
    4d1c:	fbe4fbe4 fbe4fbe4 fbe4fbe4 fbe4fbe4     ................
    4d2c:	051d0000 051d051d 051d051d 051d051d     ................
    4d3c:	051d051d 051d051d 051d051d 051d051d     ................
    4d4c:	0000051d fbe4fbe4 fbe4fbe4 fbe4fbe4     ................
    4d5c:	fbe4fbe4 fbe4fbe4 0000fbe4 051d051d     ................
    4d6c:	051d051d 051d051d 051d051d 051d051d     ................
    4d7c:	051d051d 051d051d 051d051d 051d051d     ................
    4d8c:	fbe40000 fbe4fbe4 fbe4fbe4 fbe4fbe4     ................
    4d9c:	fbe4fbe4 051d0000 051d051d 051d051d     ................
    4dac:	051d051d 051d051d 051d051d 051d051d     ................
    4dbc:	051d051d 051d051d 051d051d 0000051d     ................
    4dcc:	fbe4fbe4 fbe4fbe4 fbe4fbe4 0000fbe4     ................
    4ddc:	051d051d 051d051d 051d051d 051d051d     ................
    4dec:	051d051d 051d051d 051d051d 051d051d     ................
    4dfc:	051d051d 051d051d 051d051d fbe40000     ................
    4e0c:	fbe4fbe4 fbe4fbe4 051d0000 051d051d     ................
    4e1c:	051d051d 051d051d 051d051d 051d051d     ................
    4e2c:	051d051d 051d051d 051d051d 051d051d     ................
    4e3c:	051d051d 051d051d 0000051d fbe4fbe4     ................
    4e4c:	fbe4fbe4 051d0000 051d051d 051d051d     ................
    4e5c:	051d051d 051d051d 3a593a59 3a593a59     ........Y:Y:Y:Y:
    4e6c:	3a593a59 051d051d 051d051d 051d051d     Y:Y:............
    4e7c:	051d051d 0000051d fbe4fbe4 0000fbe4     ................
    4e8c:	051d051d 051d051d 051d051d 051d051d     ................
    4e9c:	3a59051d 3a593a59 3a593a59 3a593a59     ..Y:Y:Y:Y:Y:Y:Y:
    4eac:	3a593a59 051d051d 051d051d 051d051d     Y:Y:............
    4ebc:	051d051d fbe40000 0000fbe4 051d051d     ................
    4ecc:	051d051d 051d051d 3a59051d 3a593a59     ..........Y:Y:Y:
    4edc:	3a593a59 3a593a59 3a593a59 3a593a59     Y:Y:Y:Y:Y:Y:Y:Y:
    4eec:	051d3a59 051d051d 051d051d 051d051d     Y:..............
    4efc:	fbe40000 051d0000 051d051d 051d051d     ................
    4f0c:	051d051d 3a593a59 3a593a59 3a593a59     ....Y:Y:Y:Y:Y:Y:
    4f1c:	3a593a59 3a593a59 3a593a59 051d3a59     Y:Y:Y:Y:Y:Y:Y:..
    4f2c:	051d051d 051d051d 051d051d fbe40000     ................
    4f3c:	051d0000 051d051d 051d051d 051d051d     ................
    4f4c:	3a593a59 3a593a59 3a593a59 3a593a59     Y:Y:Y:Y:Y:Y:Y:Y:
    4f5c:	3a593a59 3a593a59 3a593a59 051d051d     Y:Y:Y:Y:Y:Y:....
    4f6c:	051d051d 051d051d 0000051d 051d0000     ................
    4f7c:	051d051d 051d051d 3a59051d 3a593a59     ..........Y:Y:Y:
    4f8c:	3a593a59 3a593a59 3a593a59 3a593a59     Y:Y:Y:Y:Y:Y:Y:Y:
    4f9c:	3a593a59 3a593a59 051d3a59 051d051d     Y:Y:Y:Y:Y:......
    4fac:	051d051d 0000051d 051d0000 051d051d     ................
    4fbc:	051d051d 3a59051d 3a593a59 3a593a59     ......Y:Y:Y:Y:Y:
    4fcc:	3a593a59 3a593a59 3a593a59 3a593a59     Y:Y:Y:Y:Y:Y:Y:Y:
    4fdc:	3a593a59 051d3a59 051d051d 051d051d     Y:Y:Y:..........
    4fec:	0000051d 051d0000 051d051d 051d051d     ................
    4ffc:	3a59051d 3a593a59 3a593a59 3a593a59     ..Y:Y:Y:Y:Y:Y:Y:
    500c:	3a593a59 3a593a59 3a593a59 3a593a59     Y:Y:Y:Y:Y:Y:Y:Y:
    501c:	051d3a59 051d051d 051d051d 0000051d     Y:..............
    502c:	051d0000 051d051d 051d051d 3a59051d     ..............Y:
    503c:	3a593a59 3a593a59 3a593a59 3a593a59     Y:Y:Y:Y:Y:Y:Y:Y:
    504c:	3a593a59 3a593a59 3a593a59 051d3a59     Y:Y:Y:Y:Y:Y:Y:..
    505c:	051d051d 051d051d 0000051d 051d0000     ................
    506c:	051d051d 051d051d 3a59051d 3a593a59     ..........Y:Y:Y:
    507c:	3a593a59 3a593a59 3a593a59 3a593a59     Y:Y:Y:Y:Y:Y:Y:Y:
    508c:	3a593a59 3a593a59 051d3a59 051d051d     Y:Y:Y:Y:Y:......
    509c:	051d051d 0000051d 051d0000 051d051d     ................
    50ac:	051d051d 051d051d 3a593a59 3a593a59     ........Y:Y:Y:Y:
    50bc:	3a593a59 3a593a59 3a593a59 3a593a59     Y:Y:Y:Y:Y:Y:Y:Y:
    50cc:	3a593a59 051d051d 051d051d 051d051d     Y:Y:............
    50dc:	fbe40000 0000fbe4 051d051d 051d051d     ................
    50ec:	051d051d 3a593a59 3a593a59 3a593a59     ....Y:Y:Y:Y:Y:Y:
    50fc:	3a593a59 3a593a59 3a593a59 3a593a59     Y:Y:Y:Y:Y:Y:Y:Y:
    510c:	051d051d 051d051d 051d051d fbe40000     ................
    511c:	0000fbe4 051d051d 051d051d 051d051d     ................
    512c:	3a59051d 3a593a59 3a593a59 3a593a59     ..Y:Y:Y:Y:Y:Y:Y:
    513c:	3a593a59 3a593a59 051d3a59 051d051d     Y:Y:Y:Y:Y:......
    514c:	051d051d 051d051d fbe40000 fbe4fbe4     ................
    515c:	051d0000 051d051d 051d051d 051d051d     ................
    516c:	3a59051d 3a593a59 3a593a59 3a593a59     ..Y:Y:Y:Y:Y:Y:Y:
    517c:	051d3a59 051d051d 051d051d 051d051d     Y:..............
    518c:	0000051d fbe4fbe4 fbe4fbe4 051d0000     ................
    519c:	051d051d 051d051d 051d051d 051d051d     ................
    51ac:	3a59051d 3a593a59 051d3a59 051d051d     ..Y:Y:Y:Y:......
    51bc:	051d051d 051d051d 051d051d 0000051d     ................
    51cc:	fbe4fbe4 fbe4fbe4 0000fbe4 051d051d     ................
    51dc:	051d051d 051d051d 051d051d 051d051d     ................
    51ec:	051d051d 051d051d 051d051d 051d051d     ................
    51fc:	051d051d 051d051d fbe40000 fbe4fbe4     ................
    520c:	fbe4fbe4 fbe4fbe4 051d0000 051d051d     ................
    521c:	051d051d 051d051d 051d051d 051d051d     ................
    522c:	051d051d 051d051d 051d051d 051d051d     ................
    523c:	0000051d fbe4fbe4 fbe4fbe4 fbe4fbe4     ................
    524c:	fbe4fbe4 0000fbe4 051d051d 051d051d     ................
    525c:	051d051d 051d051d 051d051d 051d051d     ................
    526c:	051d051d 051d051d 051d051d fbe40000     ................
    527c:	fbe4fbe4 fbe4fbe4 fbe4fbe4 fbe4fbe4     ................
    528c:	fbe4fbe4 051d0000 051d051d 051d051d     ................
    529c:	051d051d 051d051d 051d051d 051d051d     ................
    52ac:	051d051d 0000051d fbe4fbe4 fbe4fbe4     ................
    52bc:	fbe4fbe4 fbe4fbe4 fbe4fbe4 fbe4fbe4     ................
    52cc:	0000fbe4 051d0000 051d051d 051d051d     ................
    52dc:	051d051d 051d051d 051d051d 0000051d     ................
    52ec:	fbe40000 fbe4fbe4 fbe4fbe4 fbe4fbe4     ................
    52fc:	fbe4fbe4 fbe4fbe4 fbe4fbe4 fbe4fbe4     ................
    530c:	0000fbe4 00000000 051d051d 051d051d     ................
    531c:	051d051d 00000000 fbe40000 fbe4fbe4     ................
    532c:	fbe4fbe4 fbe4fbe4 fbe4fbe4 fbe4fbe4     ................
    533c:	fbe4fbe4 fbe4fbe4 fbe4fbe4 fbe4fbe4     ................
    534c:	fbe4fbe4 00000000 00000000 00000000     ................
    535c:	fbe4fbe4 fbe4fbe4 fbe4fbe4 fbe4fbe4     ................
	...

00005374 <obstacle>:
    5374:	ffffffff ffffffff ffffffff ffffffff     ................
    5384:	ffffffff 0000ffff 00000000 00000000     ................
    5394:	00000000 ffff0000 ffffffff ffffffff     ................
    53a4:	ffffffff ffffffff ffffffff ffffffff     ................
    53b4:	ffffffff ffffffff ffffffff 0000ffff     ................
    53c4:	e8e40000 e8e4e8e4 e8e4e8e4 e8e4e8e4     ................
    53d4:	0000e8e4 ffff0000 ffffffff ffffffff     ................
    53e4:	ffffffff ffffffff ffffffff ffffffff     ................
    53f4:	ffffffff 0000ffff e8e40000 e8e4e8e4     ................
    5404:	e8e4e8e4 e8e4e8e4 e8e4e8e4 e8e4e8e4     ................
    5414:	0000e8e4 ffff0000 ffffffff ffffffff     ................
    5424:	ffffffff ffffffff ffffffff ffffffff     ................
    5434:	e8e40000 e8e4e8e4 e8e4e8e4 e8e4e8e4     ................
    5444:	e8e4e8e4 e8e4e8e4 e8e4e8e4 e8e4e8e4     ................
    5454:	0000e8e4 ffffffff ffffffff ffffffff     ................
    5464:	ffffffff ffffffff 0000ffff e8e4e8e4     ................
    5474:	e8e4e8e4 e8e4e8e4 e8e4e8e4 e8e4e8e4     ................
    5484:	e8e4e8e4 e8e4e8e4 e8e4e8e4 e8e4e8e4     ................
    5494:	ffff0000 ffffffff ffffffff ffffffff     ................
    54a4:	ffffffff e8e40000 e8e4e8e4 e8e4e8e4     ................
    54b4:	e8e4e8e4 e8e4e8e4 e8e4e8e4 e8e4e8e4     ................
    54c4:	e8e4e8e4 e8e4e8e4 e8e4e8e4 0000e8e4     ................
    54d4:	ffffffff ffffffff ffffffff 0000ffff     ................
    54e4:	e8e4e8e4 e8e4e8e4 e8e4e8e4 e8e4e8e4     ................
    54f4:	e8e4e8e4 e8e4e8e4 e8e4e8e4 e8e4e8e4     ................
    5504:	e8e4e8e4 e8e4e8e4 e8e4e8e4 ffff0000     ................
    5514:	ffffffff ffffffff e8e40000 e8e4e8e4     ................
    5524:	e8e4e8e4 e8e4e8e4 e8e4e8e4 e8e4e8e4     ................
    5534:	e8e4e8e4 e8e4e8e4 e8e4e8e4 e8e4e8e4     ................
    5544:	e8e4e8e4 e8e4e8e4 0000e8e4 ffffffff     ................
    5554:	ffffffff e8e40000 e8e4e8e4 e8e4e8e4     ................
    5564:	e8e4e8e4 e8e4e8e4 fbe4fbe4 fbe4fbe4     ................
    5574:	fbe4fbe4 e8e4e8e4 e8e4e8e4 e8e4e8e4     ................
    5584:	e8e4e8e4 0000e8e4 ffffffff 0000ffff     ................
    5594:	e8e4e8e4 e8e4e8e4 e8e4e8e4 e8e4e8e4     ................
    55a4:	fbe4e8e4 fbe4fbe4 fbe4fbe4 fbe4fbe4     ................
    55b4:	fbe4fbe4 e8e4e8e4 e8e4e8e4 e8e4e8e4     ................
    55c4:	e8e4e8e4 ffff0000 0000ffff e8e4e8e4     ................
    55d4:	e8e4e8e4 e8e4e8e4 fbe4e8e4 fbe4fbe4     ................
    55e4:	fbe4fbe4 fbe4fbe4 fbe4fbe4 fbe4fbe4     ................
    55f4:	e8e4fbe4 e8e4e8e4 e8e4e8e4 e8e4e8e4     ................
    5604:	ffff0000 e8e40000 e8e4e8e4 e8e4e8e4     ................
    5614:	e8e4e8e4 fbe4fbe4 fbe4fbe4 fbe4fbe4     ................
    5624:	fbe4fbe4 fbe4fbe4 fbe4fbe4 e8e4fbe4     ................
    5634:	e8e4e8e4 e8e4e8e4 e8e4e8e4 ffff0000     ................
    5644:	e8e40000 e8e4e8e4 e8e4e8e4 e8e4e8e4     ................
    5654:	fbe4fbe4 fbe4fbe4 fbe4fbe4 fbe4fbe4     ................
    5664:	fbe4fbe4 fbe4fbe4 fbe4fbe4 e8e4e8e4     ................
    5674:	e8e4e8e4 e8e4e8e4 0000e8e4 e8e40000     ................
    5684:	e8e4e8e4 e8e4e8e4 fbe4e8e4 fbe4fbe4     ................
    5694:	fbe4fbe4 fbe4fbe4 fbe4fbe4 fbe4fbe4     ................
    56a4:	fbe4fbe4 fbe4fbe4 e8e4fbe4 e8e4e8e4     ................
    56b4:	e8e4e8e4 0000e8e4 e8e40000 e8e4e8e4     ................
    56c4:	e8e4e8e4 fbe4e8e4 fbe4fbe4 fbe4fbe4     ................
    56d4:	fbe4fbe4 fbe4fbe4 fbe4fbe4 fbe4fbe4     ................
    56e4:	fbe4fbe4 e8e4fbe4 e8e4e8e4 e8e4e8e4     ................
    56f4:	0000e8e4 e8e40000 e8e4e8e4 e8e4e8e4     ................
    5704:	fbe4e8e4 fbe4fbe4 fbe4fbe4 fbe4fbe4     ................
    5714:	fbe4fbe4 fbe4fbe4 fbe4fbe4 fbe4fbe4     ................
    5724:	e8e4fbe4 e8e4e8e4 e8e4e8e4 0000e8e4     ................
    5734:	e8e40000 e8e4e8e4 e8e4e8e4 fbe4e8e4     ................
    5744:	fbe4fbe4 fbe4fbe4 fbe4fbe4 fbe4fbe4     ................
    5754:	fbe4fbe4 fbe4fbe4 fbe4fbe4 e8e4fbe4     ................
    5764:	e8e4e8e4 e8e4e8e4 0000e8e4 e8e40000     ................
    5774:	e8e4e8e4 e8e4e8e4 fbe4e8e4 fbe4fbe4     ................
    5784:	fbe4fbe4 fbe4fbe4 fbe4fbe4 fbe4fbe4     ................
    5794:	fbe4fbe4 fbe4fbe4 e8e4fbe4 e8e4e8e4     ................
    57a4:	e8e4e8e4 0000e8e4 e8e40000 e8e4e8e4     ................
    57b4:	e8e4e8e4 e8e4e8e4 fbe4fbe4 fbe4fbe4     ................
    57c4:	fbe4fbe4 fbe4fbe4 fbe4fbe4 fbe4fbe4     ................
    57d4:	fbe4fbe4 e8e4e8e4 e8e4e8e4 e8e4e8e4     ................
    57e4:	ffff0000 0000ffff e8e4e8e4 e8e4e8e4     ................
    57f4:	e8e4e8e4 fbe4fbe4 fbe4fbe4 fbe4fbe4     ................
    5804:	fbe4fbe4 fbe4fbe4 fbe4fbe4 fbe4fbe4     ................
    5814:	e8e4e8e4 e8e4e8e4 e8e4e8e4 ffff0000     ................
    5824:	0000ffff e8e4e8e4 e8e4e8e4 e8e4e8e4     ................
    5834:	fbe4e8e4 fbe4fbe4 fbe4fbe4 fbe4fbe4     ................
    5844:	fbe4fbe4 fbe4fbe4 e8e4fbe4 e8e4e8e4     ................
    5854:	e8e4e8e4 e8e4e8e4 ffff0000 ffffffff     ................
    5864:	e8e40000 e8e4e8e4 e8e4e8e4 e8e4e8e4     ................
    5874:	fbe4e8e4 fbe4fbe4 fbe4fbe4 fbe4fbe4     ................
    5884:	e8e4fbe4 e8e4e8e4 e8e4e8e4 e8e4e8e4     ................
    5894:	0000e8e4 ffffffff ffffffff e8e40000     ................
    58a4:	e8e4e8e4 e8e4e8e4 e8e4e8e4 e8e4e8e4     ................
    58b4:	fbe4e8e4 fbe4fbe4 e8e4fbe4 e8e4e8e4     ................
    58c4:	e8e4e8e4 e8e4e8e4 e8e4e8e4 0000e8e4     ................
    58d4:	ffffffff ffffffff 0000ffff e8e4e8e4     ................
    58e4:	e8e4e8e4 e8e4e8e4 e8e4e8e4 e8e4e8e4     ................
    58f4:	e8e4e8e4 e8e4e8e4 e8e4e8e4 e8e4e8e4     ................
    5904:	e8e4e8e4 e8e4e8e4 ffff0000 ffffffff     ................
    5914:	ffffffff ffffffff e8e40000 e8e4e8e4     ................
    5924:	e8e4e8e4 e8e4e8e4 e8e4e8e4 e8e4e8e4     ................
    5934:	e8e4e8e4 e8e4e8e4 e8e4e8e4 e8e4e8e4     ................
    5944:	0000e8e4 ffffffff ffffffff ffffffff     ................
    5954:	ffffffff 0000ffff e8e4e8e4 e8e4e8e4     ................
    5964:	e8e4e8e4 e8e4e8e4 e8e4e8e4 e8e4e8e4     ................
    5974:	e8e4e8e4 e8e4e8e4 e8e4e8e4 ffff0000     ................
    5984:	ffffffff ffffffff ffffffff ffffffff     ................
    5994:	ffffffff e8e40000 e8e4e8e4 e8e4e8e4     ................
    59a4:	e8e4e8e4 e8e4e8e4 e8e4e8e4 e8e4e8e4     ................
    59b4:	e8e4e8e4 0000e8e4 ffffffff ffffffff     ................
    59c4:	ffffffff ffffffff ffffffff ffffffff     ................
    59d4:	0000ffff e8e40000 e8e4e8e4 e8e4e8e4     ................
    59e4:	e8e4e8e4 e8e4e8e4 e8e4e8e4 0000e8e4     ................
    59f4:	ffff0000 ffffffff ffffffff ffffffff     ................
    5a04:	ffffffff ffffffff ffffffff ffffffff     ................
    5a14:	0000ffff 00000000 e8e4e8e4 e8e4e8e4     ................
    5a24:	e8e4e8e4 00000000 ffff0000 ffffffff     ................
    5a34:	ffffffff ffffffff ffffffff ffffffff     ................
    5a44:	ffffffff ffffffff ffffffff ffffffff     ................
    5a54:	ffffffff 00000000 00000000 00000000     ................
    5a64:	ffffffff ffffffff ffffffff ffffffff     ................
	...

00005a7c <_global_impure_ptr>:
    5a7c:	00005af0 00000043                       .Z..C...

00005a84 <_init>:
    5a84:	e1a0c00d 	mov	r12, sp
    5a88:	e92ddff8 	push	{r3, r4, r5, r6, r7, r8, r9, r10, r11, r12, lr, pc}
    5a8c:	e24cb004 	sub	r11, r12, #4
    5a90:	e24bd028 	sub	sp, r11, #40	; 0x28
    5a94:	e89d6ff0 	ldm	sp, {r4, r5, r6, r7, r8, r9, r10, r11, sp, lr}
    5a98:	e12fff1e 	bx	lr

00005a9c <__init_array_start>:
    5a9c:	00000bb0 	.word	0x00000bb0

00005aa0 <__frame_dummy_init_array_entry>:
    5aa0:	00000208                                ....

00005aa4 <__libc_fini>:
    5aa4:	e1a0c00d 	mov	r12, sp
    5aa8:	e92ddff8 	push	{r3, r4, r5, r6, r7, r8, r9, r10, r11, r12, lr, pc}
    5aac:	e24cb004 	sub	r11, r12, #4
    5ab0:	e24bd028 	sub	sp, r11, #40	; 0x28
    5ab4:	e89d6ff0 	ldm	sp, {r4, r5, r6, r7, r8, r9, r10, r11, sp, lr}
    5ab8:	e12fff1e 	bx	lr

00005abc <__fini_array_start>:
    5abc:	000001c4 	.word	0x000001c4

00005ac0 <__cs3_regions>:
	...
    5acc:	00005f20 	.word	0x00005f20
    5ad0:	000002e8 	.word	0x000002e8

00005ad4 <__cs3_regions_end>:
    5ad4:	00000000 	.word	0x00000000
