
C:/Users/Steven/Desktop/ECE243-Final-Project/FinalProject.axf:     file format elf32-littlearm


Disassembly of section .text:

00000000 <__cs3_interrupt_vector>:
       0:	18 f0 9f e5 18 f0 9f e5 18 f0 9f e5 18 f0 9f e5     ................
      10:	18 f0 9f e5 18 f0 9f e5 18 f0 9f e5 18 f0 9f e5     ................
      20:	40 00 00 00 dc 10 00 00 e0 10 00 00 e4 10 00 00     @...............
      30:	e8 10 00 00 d8 10 00 00 ec 10 00 00 f0 10 00 00     ................

00000040 <__cs3_reset>:
      40:	ea000026 	b	e0 <__cs3_start_asm_sim>

00000044 <__cs3_start_c>:
      44:	e59f608c 	ldr	r6, [pc, #140]	; d8 <__cs3_start_c+0x94>
      48:	e3560000 	cmp	r6, #0
      4c:	e92d4080 	push	{r7, lr}
      50:	e2466001 	sub	r6, r6, #1
      54:	0a00001e 	beq	d4 <__cs3_start_c+0x90>
      58:	e59f507c 	ldr	r5, [pc, #124]	; dc <__cs3_start_c+0x98>
      5c:	e3a00000 	mov	r0, #0
      60:	e3a01000 	mov	r1, #0
      64:	e515200c 	ldr	r2, [r5, #-12]
      68:	e515e010 	ldr	lr, [r5, #-16]
      6c:	e5154008 	ldr	r4, [r5, #-8]
      70:	e15e0002 	cmp	lr, r2
      74:	00822004 	addeq	r2, r2, r4
      78:	0a000009 	beq	a4 <__cs3_start_c+0x60>
      7c:	e3540000 	cmp	r4, #0
      80:	0a000007 	beq	a4 <__cs3_start_c+0x60>
      84:	e1a07002 	mov	r7, r2
      88:	e1a0c002 	mov	r12, r2
      8c:	e8be000c 	ldm	lr!, {r2, r3}
      90:	e8ac000c 	stmia	r12!, {r2, r3}
      94:	e067300c 	rsb	r3, r7, r12
      98:	e1540003 	cmp	r4, r3
      9c:	e1a0200c 	mov	r2, r12
      a0:	1afffff9 	bne	8c <__cs3_start_c+0x48>
      a4:	e515e004 	ldr	lr, [r5, #-4]
      a8:	e35e0000 	cmp	lr, #0
      ac:	11a03002 	movne	r3, r2
      b0:	0a000003 	beq	c4 <__cs3_start_c+0x80>
      b4:	e8a30003 	stmia	r3!, {r0, r1}
      b8:	e062c003 	rsb	r12, r2, r3
      bc:	e15e000c 	cmp	lr, r12
      c0:	1afffffb 	bne	b4 <__cs3_start_c+0x70>
      c4:	e2466001 	sub	r6, r6, #1
      c8:	e3760001 	cmn	r6, #1
      cc:	e2855014 	add	r5, r5, #20
      d0:	1affffe3 	bne	64 <__cs3_start_c+0x20>
      d4:	eb0003e6 	bl	1074 <__cs3_premain>
      d8:	00000001 	.word	0x00000001
      dc:	0002b730 	.word	0x0002b730

000000e0 <__cs3_start_asm_sim>:
      e0:	e28f103c 	add	r1, pc, #60	; 0x3c
      e4:	e3a00016 	mov	r0, #22
      e8:	ef123456 	svc	0x00123456
      ec:	e3500000 	cmp	r0, #0
      f0:	ba000008 	blt	118 <__cs3_start_asm_sim+0x38>
      f4:	e59f2028 	ldr	r2, [pc, #40]	; 124 <__cs3_heap_start_ptr>
      f8:	e59fd01c 	ldr	sp, [pc, #28]	; 11c <__cs3_start_asm_sim+0x3c>
      fc:	e5920008 	ldr	r0, [r2, #8]
     100:	e3500000 	cmp	r0, #0
     104:	11a0d000 	movne	sp, r0
     108:	e59f1010 	ldr	r1, [pc, #16]	; 120 <__cs3_start_asm_sim+0x40>
     10c:	e5920004 	ldr	r0, [r2, #4]
     110:	e3500000 	cmp	r0, #0
     114:	15810000 	strne	r0, [r1]
     118:	eaffffc9 	b	44 <__cs3_start_c>
     11c:	3ffffff8 	.word	0x3ffffff8
     120:	0002bb70 	.word	0x0002bb70

00000124 <__cs3_heap_start_ptr>:
     124:	0002be60 	.word	0x0002be60

00000128 <_start>:
     128:	e51fd000 	ldr	sp, [pc, #-0]	; 130 <_start+0x8>
     12c:	eaffffc4 	b	44 <__cs3_start_c>
     130:	3ffffff8 	.word	0x3ffffff8

00000134 <deregister_tm_clones>:
     134:	e92d4008 	push	{r3, lr}
     138:	e59f002c 	ldr	r0, [pc, #44]	; 16c <deregister_tm_clones+0x38>
     13c:	e59f302c 	ldr	r3, [pc, #44]	; 170 <deregister_tm_clones+0x3c>
     140:	e0603003 	rsb	r3, r0, r3
     144:	e3530006 	cmp	r3, #6
     148:	8a000001 	bhi	154 <deregister_tm_clones+0x20>
     14c:	e8bd4008 	pop	{r3, lr}
     150:	e12fff1e 	bx	lr
     154:	e59f3018 	ldr	r3, [pc, #24]	; 174 <deregister_tm_clones+0x40>
     158:	e3530000 	cmp	r3, #0
     15c:	0afffffa 	beq	14c <deregister_tm_clones+0x18>
     160:	e1a0e00f 	mov	lr, pc
     164:	e12fff13 	bx	r3
     168:	eafffff7 	b	14c <deregister_tm_clones+0x18>
     16c:	0002bb78 	.word	0x0002bb78
     170:	0002bb7b 	.word	0x0002bb7b
     174:	00000000 	.word	0x00000000

00000178 <register_tm_clones>:
     178:	e92d4008 	push	{r3, lr}
     17c:	e59f0034 	ldr	r0, [pc, #52]	; 1b8 <register_tm_clones+0x40>
     180:	e59f3034 	ldr	r3, [pc, #52]	; 1bc <register_tm_clones+0x44>
     184:	e0603003 	rsb	r3, r0, r3
     188:	e1a03143 	asr	r3, r3, #2
     18c:	e0833fa3 	add	r3, r3, r3, lsr #31
     190:	e1b010c3 	asrs	r1, r3, #1
     194:	1a000001 	bne	1a0 <register_tm_clones+0x28>
     198:	e8bd4008 	pop	{r3, lr}
     19c:	e12fff1e 	bx	lr
     1a0:	e59f2018 	ldr	r2, [pc, #24]	; 1c0 <register_tm_clones+0x48>
     1a4:	e3520000 	cmp	r2, #0
     1a8:	0afffffa 	beq	198 <register_tm_clones+0x20>
     1ac:	e1a0e00f 	mov	lr, pc
     1b0:	e12fff12 	bx	r2
     1b4:	eafffff7 	b	198 <register_tm_clones+0x20>
     1b8:	0002bb78 	.word	0x0002bb78
     1bc:	0002bb78 	.word	0x0002bb78
     1c0:	00000000 	.word	0x00000000

000001c4 <__do_global_dtors_aux>:
     1c4:	e92d4010 	push	{r4, lr}
     1c8:	e59f402c 	ldr	r4, [pc, #44]	; 1fc <__do_global_dtors_aux+0x38>
     1cc:	e5d43000 	ldrb	r3, [r4]
     1d0:	e3530000 	cmp	r3, #0
     1d4:	1a000006 	bne	1f4 <__do_global_dtors_aux+0x30>
     1d8:	ebffffd5 	bl	134 <deregister_tm_clones>
     1dc:	e59f301c 	ldr	r3, [pc, #28]	; 200 <__do_global_dtors_aux+0x3c>
     1e0:	e3530000 	cmp	r3, #0
     1e4:	159f0018 	ldrne	r0, [pc, #24]	; 204 <__do_global_dtors_aux+0x40>
     1e8:	1320f000 	nopne	{0}
     1ec:	e3a03001 	mov	r3, #1
     1f0:	e5c43000 	strb	r3, [r4]
     1f4:	e8bd4010 	pop	{r4, lr}
     1f8:	e12fff1e 	bx	lr
     1fc:	0002bb78 	.word	0x0002bb78
     200:	00000000 	.word	0x00000000
     204:	0000117c 	.word	0x0000117c

00000208 <frame_dummy>:
     208:	e92d4008 	push	{r3, lr}
     20c:	e59f3034 	ldr	r3, [pc, #52]	; 248 <frame_dummy+0x40>
     210:	e3530000 	cmp	r3, #0
     214:	159f0030 	ldrne	r0, [pc, #48]	; 24c <frame_dummy+0x44>
     218:	159f1030 	ldrne	r1, [pc, #48]	; 250 <frame_dummy+0x48>
     21c:	1320f000 	nopne	{0}
     220:	e59f002c 	ldr	r0, [pc, #44]	; 254 <frame_dummy+0x4c>
     224:	e5903000 	ldr	r3, [r0]
     228:	e3530000 	cmp	r3, #0
     22c:	0a000003 	beq	240 <frame_dummy+0x38>
     230:	e59f3020 	ldr	r3, [pc, #32]	; 258 <frame_dummy+0x50>
     234:	e3530000 	cmp	r3, #0
     238:	11a0e00f 	movne	lr, pc
     23c:	112fff13 	bxne	r3
     240:	e8bd4008 	pop	{r3, lr}
     244:	eaffffcb 	b	178 <register_tm_clones>
     248:	00000000 	.word	0x00000000
     24c:	0000117c 	.word	0x0000117c
     250:	0002bb7c 	.word	0x0002bb7c
     254:	0002b730 	.word	0x0002b730
     258:	00000000 	.word	0x00000000

0000025c <changePlayerPos>:

}



void changePlayerPos() {
     25c:	e92d0030 	push	{r4, r5}
     260:	e30b3b94 	movw	r3, #48020	; 0xbb94
     264:	e3403002 	movt	r3, #2
     268:	e5930000 	ldr	r0, [r3]
     26c:	e593c004 	ldr	r12, [r3, #4]
     270:	e5934008 	ldr	r4, [r3, #8]
     274:	e593500c 	ldr	r5, [r3, #12]
     278:	e5932010 	ldr	r2, [r3, #16]
     27c:	e5931014 	ldr	r1, [r3, #20]

	int i, j;

	for (i = 0; i < 3; i++) {
		for (j = 0; j < 3; j++) {
			if (boards[i][j] == 1) {
     280:	e5933018 	ldr	r3, [r3, #24]
     284:	e3530001 	cmp	r3, #1
     288:	1a000005 	bne	2a4 <changePlayerPos+0x48>
				player_x = 114 + (i * 30);
				player_y = 74 + (j * 30);
     28c:	e3a0104a 	mov	r1, #74	; 0x4a
	int i, j;

	for (i = 0; i < 3; i++) {
		for (j = 0; j < 3; j++) {
			if (boards[i][j] == 1) {
				player_x = 114 + (i * 30);
     290:	e3a02072 	mov	r2, #114	; 0x72
				player_y = 74 + (j * 30);
     294:	e1a05001 	mov	r5, r1
	int i, j;

	for (i = 0; i < 3; i++) {
		for (j = 0; j < 3; j++) {
			if (boards[i][j] == 1) {
				player_x = 114 + (i * 30);
     298:	e1a04002 	mov	r4, r2
				player_y = 74 + (j * 30);
     29c:	e1a0c001 	mov	r12, r1
	int i, j;

	for (i = 0; i < 3; i++) {
		for (j = 0; j < 3; j++) {
			if (boards[i][j] == 1) {
				player_x = 114 + (i * 30);
     2a0:	e1a00002 	mov	r0, r2

	int i, j;

	for (i = 0; i < 3; i++) {
		for (j = 0; j < 3; j++) {
			if (boards[i][j] == 1) {
     2a4:	e30b3b94 	movw	r3, #48020	; 0xbb94
     2a8:	e3403002 	movt	r3, #2
     2ac:	e593301c 	ldr	r3, [r3, #28]
     2b0:	e3530001 	cmp	r3, #1
     2b4:	1a000005 	bne	2d0 <changePlayerPos+0x74>
				player_x = 114 + (i * 30);
				player_y = 74 + (j * 30);
     2b8:	e3a01068 	mov	r1, #104	; 0x68
	int i, j;

	for (i = 0; i < 3; i++) {
		for (j = 0; j < 3; j++) {
			if (boards[i][j] == 1) {
				player_x = 114 + (i * 30);
     2bc:	e3a02072 	mov	r2, #114	; 0x72
				player_y = 74 + (j * 30);
     2c0:	e1a05001 	mov	r5, r1
	int i, j;

	for (i = 0; i < 3; i++) {
		for (j = 0; j < 3; j++) {
			if (boards[i][j] == 1) {
				player_x = 114 + (i * 30);
     2c4:	e1a04002 	mov	r4, r2
				player_y = 74 + (j * 30);
     2c8:	e1a0c001 	mov	r12, r1
	int i, j;

	for (i = 0; i < 3; i++) {
		for (j = 0; j < 3; j++) {
			if (boards[i][j] == 1) {
				player_x = 114 + (i * 30);
     2cc:	e1a00002 	mov	r0, r2

	int i, j;

	for (i = 0; i < 3; i++) {
		for (j = 0; j < 3; j++) {
			if (boards[i][j] == 1) {
     2d0:	e30b3b94 	movw	r3, #48020	; 0xbb94
     2d4:	e3403002 	movt	r3, #2
     2d8:	e5933020 	ldr	r3, [r3, #32]
     2dc:	e3530001 	cmp	r3, #1
     2e0:	1a000005 	bne	2fc <__cs3_region_zero_size_ram+0x14>
				player_x = 114 + (i * 30);
				player_y = 74 + (j * 30);
     2e4:	e3a01086 	mov	r1, #134	; 0x86
	int i, j;

	for (i = 0; i < 3; i++) {
		for (j = 0; j < 3; j++) {
			if (boards[i][j] == 1) {
				player_x = 114 + (i * 30);
     2e8:	e3a02072 	mov	r2, #114	; 0x72
				player_y = 74 + (j * 30);
     2ec:	e1a05001 	mov	r5, r1
	int i, j;

	for (i = 0; i < 3; i++) {
		for (j = 0; j < 3; j++) {
			if (boards[i][j] == 1) {
				player_x = 114 + (i * 30);
     2f0:	e1a04002 	mov	r4, r2
				player_y = 74 + (j * 30);
     2f4:	e1a0c001 	mov	r12, r1
	int i, j;

	for (i = 0; i < 3; i++) {
		for (j = 0; j < 3; j++) {
			if (boards[i][j] == 1) {
				player_x = 114 + (i * 30);
     2f8:	e1a00002 	mov	r0, r2

	int i, j;

	for (i = 0; i < 3; i++) {
		for (j = 0; j < 3; j++) {
			if (boards[i][j] == 1) {
     2fc:	e30b3b94 	movw	r3, #48020	; 0xbb94
     300:	e3403002 	movt	r3, #2
     304:	e5933024 	ldr	r3, [r3, #36]	; 0x24
     308:	e3530001 	cmp	r3, #1
     30c:	1a000005 	bne	328 <__cs3_region_zero_size_ram+0x40>
				player_x = 114 + (i * 30);
				player_y = 74 + (j * 30);
     310:	e3a0104a 	mov	r1, #74	; 0x4a
	int i, j;

	for (i = 0; i < 3; i++) {
		for (j = 0; j < 3; j++) {
			if (boards[i][j] == 1) {
				player_x = 114 + (i * 30);
     314:	e3a02090 	mov	r2, #144	; 0x90
				player_y = 74 + (j * 30);
     318:	e1a05001 	mov	r5, r1
	int i, j;

	for (i = 0; i < 3; i++) {
		for (j = 0; j < 3; j++) {
			if (boards[i][j] == 1) {
				player_x = 114 + (i * 30);
     31c:	e1a04002 	mov	r4, r2
				player_y = 74 + (j * 30);
     320:	e1a0c001 	mov	r12, r1
	int i, j;

	for (i = 0; i < 3; i++) {
		for (j = 0; j < 3; j++) {
			if (boards[i][j] == 1) {
				player_x = 114 + (i * 30);
     324:	e1a00002 	mov	r0, r2

	int i, j;

	for (i = 0; i < 3; i++) {
		for (j = 0; j < 3; j++) {
			if (boards[i][j] == 1) {
     328:	e30b3b94 	movw	r3, #48020	; 0xbb94
     32c:	e3403002 	movt	r3, #2
     330:	e5933028 	ldr	r3, [r3, #40]	; 0x28
     334:	e3530001 	cmp	r3, #1
     338:	1a000005 	bne	354 <__cs3_region_zero_size_ram+0x6c>
				player_x = 114 + (i * 30);
				player_y = 74 + (j * 30);
     33c:	e3a01068 	mov	r1, #104	; 0x68
	int i, j;

	for (i = 0; i < 3; i++) {
		for (j = 0; j < 3; j++) {
			if (boards[i][j] == 1) {
				player_x = 114 + (i * 30);
     340:	e3a02090 	mov	r2, #144	; 0x90
				player_y = 74 + (j * 30);
     344:	e1a05001 	mov	r5, r1
	int i, j;

	for (i = 0; i < 3; i++) {
		for (j = 0; j < 3; j++) {
			if (boards[i][j] == 1) {
				player_x = 114 + (i * 30);
     348:	e1a04002 	mov	r4, r2
				player_y = 74 + (j * 30);
     34c:	e1a0c001 	mov	r12, r1
	int i, j;

	for (i = 0; i < 3; i++) {
		for (j = 0; j < 3; j++) {
			if (boards[i][j] == 1) {
				player_x = 114 + (i * 30);
     350:	e1a00002 	mov	r0, r2

	int i, j;

	for (i = 0; i < 3; i++) {
		for (j = 0; j < 3; j++) {
			if (boards[i][j] == 1) {
     354:	e30b3b94 	movw	r3, #48020	; 0xbb94
     358:	e3403002 	movt	r3, #2
     35c:	e593302c 	ldr	r3, [r3, #44]	; 0x2c
     360:	e3530001 	cmp	r3, #1
     364:	1a000005 	bne	380 <__cs3_region_zero_size_ram+0x98>
				player_x = 114 + (i * 30);
				player_y = 74 + (j * 30);
     368:	e3a01086 	mov	r1, #134	; 0x86
	int i, j;

	for (i = 0; i < 3; i++) {
		for (j = 0; j < 3; j++) {
			if (boards[i][j] == 1) {
				player_x = 114 + (i * 30);
     36c:	e3a02090 	mov	r2, #144	; 0x90
				player_y = 74 + (j * 30);
     370:	e1a05001 	mov	r5, r1
	int i, j;

	for (i = 0; i < 3; i++) {
		for (j = 0; j < 3; j++) {
			if (boards[i][j] == 1) {
				player_x = 114 + (i * 30);
     374:	e1a04002 	mov	r4, r2
				player_y = 74 + (j * 30);
     378:	e1a0c001 	mov	r12, r1
	int i, j;

	for (i = 0; i < 3; i++) {
		for (j = 0; j < 3; j++) {
			if (boards[i][j] == 1) {
				player_x = 114 + (i * 30);
     37c:	e1a00002 	mov	r0, r2

	int i, j;

	for (i = 0; i < 3; i++) {
		for (j = 0; j < 3; j++) {
			if (boards[i][j] == 1) {
     380:	e30b3b94 	movw	r3, #48020	; 0xbb94
     384:	e3403002 	movt	r3, #2
     388:	e5933030 	ldr	r3, [r3, #48]	; 0x30
     38c:	e3530001 	cmp	r3, #1
     390:	1a000015 	bne	3ec <__cs3_region_zero_size_ram+0x104>
     394:	ea00000e 	b	3d4 <__cs3_region_zero_size_ram+0xec>
				player_x = 114 + (i * 30);
				player_y = 74 + (j * 30);
     398:	e3a01086 	mov	r1, #134	; 0x86
	int i, j;

	for (i = 0; i < 3; i++) {
		for (j = 0; j < 3; j++) {
			if (boards[i][j] == 1) {
				player_x = 114 + (i * 30);
     39c:	e3a020ae 	mov	r2, #174	; 0xae
				player_y = 74 + (j * 30);
     3a0:	e1a05001 	mov	r5, r1
	int i, j;

	for (i = 0; i < 3; i++) {
		for (j = 0; j < 3; j++) {
			if (boards[i][j] == 1) {
				player_x = 114 + (i * 30);
     3a4:	e1a04002 	mov	r4, r2
				player_y = 74 + (j * 30);
     3a8:	e1a0c001 	mov	r12, r1
	int i, j;

	for (i = 0; i < 3; i++) {
		for (j = 0; j < 3; j++) {
			if (boards[i][j] == 1) {
				player_x = 114 + (i * 30);
     3ac:	e1a00002 	mov	r0, r2
     3b0:	e30b3b94 	movw	r3, #48020	; 0xbb94
     3b4:	e3403002 	movt	r3, #2
     3b8:	e5830000 	str	r0, [r3]
     3bc:	e583c004 	str	r12, [r3, #4]
     3c0:	e5834008 	str	r4, [r3, #8]
     3c4:	e583500c 	str	r5, [r3, #12]
     3c8:	e5832010 	str	r2, [r3, #16]
     3cc:	e5831014 	str	r1, [r3, #20]
     3d0:	ea000016 	b	430 <__cs3_region_zero_size_ram+0x148>
				player_y = 74 + (j * 30);
     3d4:	e3a0104a 	mov	r1, #74	; 0x4a
	int i, j;

	for (i = 0; i < 3; i++) {
		for (j = 0; j < 3; j++) {
			if (boards[i][j] == 1) {
				player_x = 114 + (i * 30);
     3d8:	e3a020ae 	mov	r2, #174	; 0xae
				player_y = 74 + (j * 30);
     3dc:	e1a05001 	mov	r5, r1
	int i, j;

	for (i = 0; i < 3; i++) {
		for (j = 0; j < 3; j++) {
			if (boards[i][j] == 1) {
				player_x = 114 + (i * 30);
     3e0:	e1a04002 	mov	r4, r2
				player_y = 74 + (j * 30);
     3e4:	e1a0c001 	mov	r12, r1
	int i, j;

	for (i = 0; i < 3; i++) {
		for (j = 0; j < 3; j++) {
			if (boards[i][j] == 1) {
				player_x = 114 + (i * 30);
     3e8:	e1a00002 	mov	r0, r2

	int i, j;

	for (i = 0; i < 3; i++) {
		for (j = 0; j < 3; j++) {
			if (boards[i][j] == 1) {
     3ec:	e30b3b94 	movw	r3, #48020	; 0xbb94
     3f0:	e3403002 	movt	r3, #2
     3f4:	e5933034 	ldr	r3, [r3, #52]	; 0x34
     3f8:	e3530001 	cmp	r3, #1
     3fc:	1a000005 	bne	418 <__cs3_region_zero_size_ram+0x130>
				player_x = 114 + (i * 30);
				player_y = 74 + (j * 30);
     400:	e3a01068 	mov	r1, #104	; 0x68
	int i, j;

	for (i = 0; i < 3; i++) {
		for (j = 0; j < 3; j++) {
			if (boards[i][j] == 1) {
				player_x = 114 + (i * 30);
     404:	e3a020ae 	mov	r2, #174	; 0xae
				player_y = 74 + (j * 30);
     408:	e1a05001 	mov	r5, r1
	int i, j;

	for (i = 0; i < 3; i++) {
		for (j = 0; j < 3; j++) {
			if (boards[i][j] == 1) {
				player_x = 114 + (i * 30);
     40c:	e1a04002 	mov	r4, r2
				player_y = 74 + (j * 30);
     410:	e1a0c001 	mov	r12, r1
	int i, j;

	for (i = 0; i < 3; i++) {
		for (j = 0; j < 3; j++) {
			if (boards[i][j] == 1) {
				player_x = 114 + (i * 30);
     414:	e1a00002 	mov	r0, r2

	int i, j;

	for (i = 0; i < 3; i++) {
		for (j = 0; j < 3; j++) {
			if (boards[i][j] == 1) {
     418:	e30b3b94 	movw	r3, #48020	; 0xbb94
     41c:	e3403002 	movt	r3, #2
     420:	e5933038 	ldr	r3, [r3, #56]	; 0x38
     424:	e3530001 	cmp	r3, #1
     428:	1affffe0 	bne	3b0 <__cs3_region_zero_size_ram+0xc8>
     42c:	eaffffd9 	b	398 <__cs3_region_zero_size_ram+0xb0>


		}
	}

}
     430:	e8bd0030 	pop	{r4, r5}
     434:	e12fff1e 	bx	lr

00000438 <update>:


}


void update() {
     438:	e92d45f8 	push	{r3, r4, r5, r6, r7, r8, r10, lr}
     43c:	e3a04000 	mov	r4, #0

	int i;

	for (i = 0; i < 12; i++) {

		if (pixel_buffer_start == 0xC0000000) {
     440:	e30b5b94 	movw	r5, #48020	; 0xbb94
     444:	e3405002 	movt	r5, #2
			obstacal_y[i] = 0 - rand() % 300;
			continue;
		}

		if (obstacal_y[i] > 240 && obstacleMov_y[i] == 1) {
			obstacleMov_y[i] = -1;
     448:	e3e08000 	mvn	r8, #0
			obstacal_y[i] = 240 + rand() % 300;
     44c:	e30861b5 	movw	r6, #33205	; 0x81b5
     450:	e3416b4e 	movt	r6, #6990	; 0x1b4e
     454:	e3a07f4b 	mov	r7, #300	; 0x12c
			obstacal_x[i] = 0 - rand() % 300;
			continue;
		}

		if (obstacal_y[i] < 0 && obstacleMov_y[i] == -1) {
			obstacleMov_y[i] = 1;
     458:	e3a0a001 	mov	r10, #1

	int i;

	for (i = 0; i < 12; i++) {

		if (pixel_buffer_start == 0xC0000000) {
     45c:	e595303c 	ldr	r3, [r5, #60]	; 0x3c
     460:	e3530103 	cmp	r3, #-1073741824	; 0xc0000000
     464:	1a000008 	bne	48c <update+0x54>
			obstacal_SDRAM_x[i] = obstacal_x[i];
     468:	e2853040 	add	r3, r5, #64	; 0x40
     46c:	e2852090 	add	r2, r5, #144	; 0x90
     470:	e7942002 	ldr	r2, [r4, r2]
     474:	e7842003 	str	r2, [r4, r3]
			obstacal_SDRAM_y[i] = obstacal_y[i];
     478:	e28530e0 	add	r3, r5, #224	; 0xe0
     47c:	e2852e13 	add	r2, r5, #304	; 0x130
     480:	e7942002 	ldr	r2, [r4, r2]
     484:	e7842003 	str	r2, [r4, r3]
     488:	ea00000a 	b	4b8 <update+0x80>
		}
		else if (pixel_buffer_start == 0xC8000000) {
     48c:	e595303c 	ldr	r3, [r5, #60]	; 0x3c
     490:	e3530332 	cmp	r3, #-939524096	; 0xc8000000
     494:	1a000007 	bne	4b8 <update+0x80>
			obstacal_ONCHIP_x[i] = obstacal_x[i];
     498:	e2853d06 	add	r3, r5, #384	; 0x180
     49c:	e2852090 	add	r2, r5, #144	; 0x90
     4a0:	e7942002 	ldr	r2, [r4, r2]
     4a4:	e7842003 	str	r2, [r4, r3]
			obstacal_ONCHIP_y[i] = obstacal_y[i];
     4a8:	e2853e1d 	add	r3, r5, #464	; 0x1d0
     4ac:	e2852e13 	add	r2, r5, #304	; 0x130
     4b0:	e7942002 	ldr	r2, [r4, r2]
     4b4:	e7842003 	str	r2, [r4, r3]
		}



		obstacal_x[i] += obstacleMov_x[i];
     4b8:	e2853e22 	add	r3, r5, #544	; 0x220
     4bc:	e7940003 	ldr	r0, [r4, r3]
     4c0:	e2852090 	add	r2, r5, #144	; 0x90
     4c4:	e7943002 	ldr	r3, [r4, r2]
     4c8:	e0803003 	add	r3, r0, r3
     4cc:	e7843002 	str	r3, [r4, r2]
		obstacal_y[i] += obstacleMov_y[i];
     4d0:	e2852e27 	add	r2, r5, #624	; 0x270
     4d4:	e794c002 	ldr	r12, [r4, r2]
     4d8:	e2851e13 	add	r1, r5, #304	; 0x130
     4dc:	e7942001 	ldr	r2, [r4, r1]
     4e0:	e08c2002 	add	r2, r12, r2
     4e4:	e7842001 	str	r2, [r4, r1]

    if(obstacal_x[i] == player_x && obstacal_y[i] == player_y){
     4e8:	e5951000 	ldr	r1, [r5]
     4ec:	e1530001 	cmp	r3, r1
     4f0:	1a000007 	bne	514 <update+0xdc>
     4f4:	e5951004 	ldr	r1, [r5, #4]
     4f8:	e1520001 	cmp	r2, r1
     4fc:	1a000004 	bne	514 <update+0xdc>
      over = true;
     500:	e30b3b94 	movw	r3, #48020	; 0xbb94
     504:	e3403002 	movt	r3, #2
     508:	e3a02001 	mov	r2, #1
     50c:	e5c322c0 	strb	r2, [r3, #704]	; 0x2c0
      break;
     510:	e8bd85f8 	pop	{r3, r4, r5, r6, r7, r8, r10, pc}
    }

		if (obstacal_x[i] > 320 && obstacleMov_x[i] == 1) {
     514:	e3530d05 	cmp	r3, #320	; 0x140
     518:	da00000d 	ble	554 <update+0x11c>
     51c:	e3500001 	cmp	r0, #1
     520:	1a00000b 	bne	554 <update+0x11c>
			obstacleMov_x[i] = -1;
     524:	e2853e22 	add	r3, r5, #544	; 0x220
     528:	e7848003 	str	r8, [r4, r3]
			obstacal_x[i] = 310 + rand() % 300;
     52c:	eb000203 	bl	d40 <rand>
     530:	e2852090 	add	r2, r5, #144	; 0x90
     534:	e0c13096 	smull	r3, r1, r6, r0
     538:	e1a03fc0 	asr	r3, r0, #31
     53c:	e06332c1 	rsb	r3, r3, r1, asr #5
     540:	e0630397 	mls	r3, r7, r3, r0
     544:	e2833f4d 	add	r3, r3, #308	; 0x134
     548:	e2833002 	add	r3, r3, #2
     54c:	e7843002 	str	r3, [r4, r2]
			continue;
     550:	ea00002b 	b	604 <update+0x1cc>
		}

		if (obstacal_x[i] < 0 && obstacleMov_x[i] == -1) {
     554:	e3530000 	cmp	r3, #0
     558:	aa00000c 	bge	590 <update+0x158>
     55c:	e3700001 	cmn	r0, #1
     560:	1a00000a 	bne	590 <update+0x158>
			obstacleMov_x[i] = 1;
     564:	e2853e22 	add	r3, r5, #544	; 0x220
     568:	e784a003 	str	r10, [r4, r3]
			obstacal_x[i] = 0 - rand() % 300;
     56c:	eb0001f3 	bl	d40 <rand>
     570:	e2853090 	add	r3, r5, #144	; 0x90
     574:	e0c12096 	smull	r2, r1, r6, r0
     578:	e1a02fc0 	asr	r2, r0, #31
     57c:	e06222c1 	rsb	r2, r2, r1, asr #5
     580:	e0600297 	mls	r0, r7, r2, r0
     584:	e2600000 	rsb	r0, r0, #0
     588:	e7840003 	str	r0, [r4, r3]
			continue;
     58c:	ea00001c 	b	604 <update+0x1cc>
		}

		if (obstacal_y[i] < 0 && obstacleMov_y[i] == -1) {
     590:	e3520000 	cmp	r2, #0
     594:	aa00000c 	bge	5cc <update+0x194>
     598:	e37c0001 	cmn	r12, #1
     59c:	1a00000a 	bne	5cc <update+0x194>
			obstacleMov_y[i] = 1;
     5a0:	e2853e27 	add	r3, r5, #624	; 0x270
     5a4:	e784a003 	str	r10, [r4, r3]
			obstacal_y[i] = 0 - rand() % 300;
     5a8:	eb0001e4 	bl	d40 <rand>
     5ac:	e2853e13 	add	r3, r5, #304	; 0x130
     5b0:	e0c12096 	smull	r2, r1, r6, r0
     5b4:	e1a02fc0 	asr	r2, r0, #31
     5b8:	e06222c1 	rsb	r2, r2, r1, asr #5
     5bc:	e0600297 	mls	r0, r7, r2, r0
     5c0:	e2600000 	rsb	r0, r0, #0
     5c4:	e7840003 	str	r0, [r4, r3]
			continue;
     5c8:	ea00000d 	b	604 <update+0x1cc>
		}

		if (obstacal_y[i] > 240 && obstacleMov_y[i] == 1) {
     5cc:	e35200f0 	cmp	r2, #240	; 0xf0
     5d0:	da00000b 	ble	604 <update+0x1cc>
     5d4:	e35c0001 	cmp	r12, #1
     5d8:	1a000009 	bne	604 <update+0x1cc>
			obstacleMov_y[i] = -1;
     5dc:	e2853e27 	add	r3, r5, #624	; 0x270
     5e0:	e7848003 	str	r8, [r4, r3]
			obstacal_y[i] = 240 + rand() % 300;
     5e4:	eb0001d5 	bl	d40 <rand>
     5e8:	e2853e13 	add	r3, r5, #304	; 0x130
     5ec:	e0c12096 	smull	r2, r1, r6, r0
     5f0:	e1a02fc0 	asr	r2, r0, #31
     5f4:	e06222c1 	rsb	r2, r2, r1, asr #5
     5f8:	e0600297 	mls	r0, r7, r2, r0
     5fc:	e28000f0 	add	r0, r0, #240	; 0xf0
     600:	e7840003 	str	r0, [r4, r3]
     604:	e2844004 	add	r4, r4, #4

void update() {

	int i;

	for (i = 0; i < 12; i++) {
     608:	e3540030 	cmp	r4, #48	; 0x30
     60c:	1affff92 	bne	45c <update+0x24>
     610:	e8bd85f8 	pop	{r3, r4, r5, r6, r7, r8, r10, pc}

00000614 <plot_pixel>:



void plot_pixel(int x, int y, short int line_color)
{
	*(short int *)(pixel_buffer_start + (y << 10) + (x << 1)) = line_color;
     614:	e30b3b94 	movw	r3, #48020	; 0xbb94
     618:	e3403002 	movt	r3, #2
     61c:	e593303c 	ldr	r3, [r3, #60]	; 0x3c
     620:	e1a00080 	lsl	r0, r0, #1
     624:	e0831501 	add	r1, r3, r1, lsl #10
     628:	e18120b0 	strh	r2, [r1, r0]
     62c:	e12fff1e 	bx	lr

00000630 <drawBoard>:
	drawPlayer(player_x, player_y);
	//draw player subroutine

}

void drawBoard(int xPos, int yPos) {
     630:	e92d4ff8 	push	{r3, r4, r5, r6, r7, r8, r9, r10, r11, lr}
     634:	e1a07000 	mov	r7, r0
     638:	e1a06001 	mov	r6, r1
     63c:	e3e08000 	mvn	r8, #0
     640:	e301a180 	movw	r10, #4480	; 0x1180
     644:	e340a000 	movt	r10, #0
     648:	e3a0b000 	mov	r11, #0

	int i, j;

	for (i = 0; i < 90; i++) {
     64c:	e3019fa3 	movw	r9, #8099	; 0x1fa3
     650:	ea00000a 	b	680 <drawBoard+0x50>
		for (j = 0; j < 90; j++) {

			plot_pixel(xPos + j, yPos + i, board[i * 90 + j]);
     654:	e0840007 	add	r0, r4, r7
     658:	e1a01006 	mov	r1, r6
     65c:	e1f520f2 	ldrsh	r2, [r5, #2]!
     660:	ebffffeb 	bl	614 <plot_pixel>
void drawBoard(int xPos, int yPos) {

	int i, j;

	for (i = 0; i < 90; i++) {
		for (j = 0; j < 90; j++) {
     664:	e2844001 	add	r4, r4, #1
     668:	e354005a 	cmp	r4, #90	; 0x5a
     66c:	1afffff8 	bne	654 <drawBoard+0x24>
     670:	e288805a 	add	r8, r8, #90	; 0x5a
     674:	e2866001 	add	r6, r6, #1

void drawBoard(int xPos, int yPos) {

	int i, j;

	for (i = 0; i < 90; i++) {
     678:	e1580009 	cmp	r8, r9
     67c:	08bd8ff8 	popeq	{r3, r4, r5, r6, r7, r8, r9, r10, r11, pc}
	drawPlayer(player_x, player_y);
	//draw player subroutine

}

void drawBoard(int xPos, int yPos) {
     680:	e08a5088 	add	r5, r10, r8, lsl #1
     684:	e1a0400b 	mov	r4, r11
     688:	eafffff1 	b	654 <drawBoard+0x24>

0000068c <drawPlayer>:

}



void drawPlayer(int x, int y) {
     68c:	e92d4ff8 	push	{r3, r4, r5, r6, r7, r8, r9, r10, r11, lr}
     690:	e1a07000 	mov	r7, r0
     694:	e1a06001 	mov	r6, r1
     698:	e3e08000 	mvn	r8, #0
     69c:	e59fb040 	ldr	r11, [pc, #64]	; 6e4 <drawPlayer+0x58>
     6a0:	e3a09000 	mov	r9, #0

	int i, j;

	for (i = 0; i < 30; i++) {
     6a4:	e300a383 	movw	r10, #899	; 0x383
     6a8:	ea00000a 	b	6d8 <drawPlayer+0x4c>
		for (j = 0; j < 30; j++) {

			plot_pixel(x + j, y + i, player[i * 30 + j]);
     6ac:	e0840007 	add	r0, r4, r7
     6b0:	e1a01006 	mov	r1, r6
     6b4:	e1f520f2 	ldrsh	r2, [r5, #2]!
     6b8:	ebffffd5 	bl	614 <plot_pixel>
void drawPlayer(int x, int y) {

	int i, j;

	for (i = 0; i < 30; i++) {
		for (j = 0; j < 30; j++) {
     6bc:	e2844001 	add	r4, r4, #1
     6c0:	e354001e 	cmp	r4, #30
     6c4:	1afffff8 	bne	6ac <drawPlayer+0x20>
     6c8:	e288801e 	add	r8, r8, #30
     6cc:	e2866001 	add	r6, r6, #1

void drawPlayer(int x, int y) {

	int i, j;

	for (i = 0; i < 30; i++) {
     6d0:	e158000a 	cmp	r8, r10
     6d4:	08bd8ff8 	popeq	{r3, r4, r5, r6, r7, r8, r9, r10, r11, pc}

}



void drawPlayer(int x, int y) {
     6d8:	e08b5088 	add	r5, r11, r8, lsl #1
     6dc:	e1a04009 	mov	r4, r9
     6e0:	eafffff1 	b	6ac <drawPlayer+0x20>
     6e4:	000050c8 	.word	0x000050c8

000006e8 <drawObstacle>:
	}

}
//hi

void drawObstacle(int x, int y) {
     6e8:	e92d4ff8 	push	{r3, r4, r5, r6, r7, r8, r9, r10, r11, lr}
     6ec:	e1a08000 	mov	r8, r0
     6f0:	e1a07001 	mov	r7, r1
     6f4:	e3e0a000 	mvn	r10, #0
     6f8:	e59fb050 	ldr	r11, [pc, #80]	; 750 <drawObstacle+0x68>
     6fc:	e3a09000 	mov	r9, #0
	int i, j;

	for (i = 0; i < 30; i++) {
		for (j = 0; j < 30; j++) {

			if (obstacle[i * 30 + j] != 0xFFFF) {
     700:	e30f6fff 	movw	r6, #65535	; 0xffff
     704:	ea00000e 	b	744 <drawObstacle+0x5c>
     708:	e1f520b2 	ldrh	r2, [r5, #2]!
     70c:	e1520006 	cmp	r2, r6
     710:	0a000003 	beq	724 <drawObstacle+0x3c>
				plot_pixel(x + j, y + i, obstacle[i * 30 + j]); //only draw the color part
     714:	e0840008 	add	r0, r4, r8
     718:	e1a01007 	mov	r1, r7
     71c:	e6bf2072 	sxth	r2, r2
     720:	ebffffbb 	bl	614 <plot_pixel>
void drawObstacle(int x, int y) {

	int i, j;

	for (i = 0; i < 30; i++) {
		for (j = 0; j < 30; j++) {
     724:	e2844001 	add	r4, r4, #1
     728:	e354001e 	cmp	r4, #30
     72c:	1afffff5 	bne	708 <drawObstacle+0x20>
     730:	e28aa01e 	add	r10, r10, #30
     734:	e2877001 	add	r7, r7, #1

void drawObstacle(int x, int y) {

	int i, j;

	for (i = 0; i < 30; i++) {
     738:	e3003383 	movw	r3, #899	; 0x383
     73c:	e15a0003 	cmp	r10, r3
     740:	08bd8ff8 	popeq	{r3, r4, r5, r6, r7, r8, r9, r10, r11, pc}
	}

}
//hi

void drawObstacle(int x, int y) {
     744:	e08b508a 	add	r5, r11, r10, lsl #1
     748:	e1a04009 	mov	r4, r9
     74c:	eaffffed 	b	708 <drawObstacle+0x20>
     750:	000057d0 	.word	0x000057d0

00000754 <draw>:
	}


}

void draw() {
     754:	e92d4038 	push	{r3, r4, r5, lr}
     758:	e3a04000 	mov	r4, #0

	int i, j;

	for (i = 0; i < 12; i++) {
		if ((obstacal_x[i] >= 0 && obstacal_x[i] <= 320) && (obstacal_y[i] >= 0 && obstacal_y[i] <= 240)) {
     75c:	e30b5b94 	movw	r5, #48020	; 0xbb94
     760:	e3405002 	movt	r5, #2
     764:	e2853090 	add	r3, r5, #144	; 0x90
     768:	e7940003 	ldr	r0, [r4, r3]
     76c:	e3500d05 	cmp	r0, #320	; 0x140
     770:	8a000004 	bhi	788 <draw+0x34>
     774:	e2853e13 	add	r3, r5, #304	; 0x130
     778:	e7941003 	ldr	r1, [r4, r3]
     77c:	e35100f0 	cmp	r1, #240	; 0xf0
     780:	8a000000 	bhi	788 <draw+0x34>
			drawObstacle(obstacal_x[i], obstacal_y[i]);
     784:	ebffffd7 	bl	6e8 <drawObstacle>
     788:	e2844004 	add	r4, r4, #4

void draw() {

	int i, j;

	for (i = 0; i < 12; i++) {
     78c:	e3540030 	cmp	r4, #48	; 0x30
     790:	1afffff3 	bne	764 <draw+0x10>
		if ((obstacal_x[i] >= 0 && obstacal_x[i] <= 320) && (obstacal_y[i] >= 0 && obstacal_y[i] <= 240)) {
			drawObstacle(obstacal_x[i], obstacal_y[i]);
		}
	}

	drawPlayer(player_x, player_y);
     794:	e30b3b94 	movw	r3, #48020	; 0xbb94
     798:	e3403002 	movt	r3, #2
     79c:	e5930000 	ldr	r0, [r3]
     7a0:	e5931004 	ldr	r1, [r3, #4]
     7a4:	ebffffb8 	bl	68c <drawPlayer>
     7a8:	e8bd8038 	pop	{r3, r4, r5, pc}

000007ac <clearObstacle>:
		}
	}

}
// 0 is on chip 1 is SDRam
void clearObstacle() {
     7ac:	e92d45f8 	push	{r3, r4, r5, r6, r7, r8, r10, lr}

	int i;

	int type;

	if (pixel_buffer_start == 0xC0000000) {
     7b0:	e30b3b94 	movw	r3, #48020	; 0xbb94
     7b4:	e3403002 	movt	r3, #2
     7b8:	e593303c 	ldr	r3, [r3, #60]	; 0x3c
     7bc:	e3530103 	cmp	r3, #-1073741824	; 0xc0000000
     7c0:	0a00003d 	beq	8bc <clearObstacle+0x110>
		type = 1;
	}
	else if (pixel_buffer_start == 0xC8000000) {
     7c4:	e30b3b94 	movw	r3, #48020	; 0xbb94
     7c8:	e3403002 	movt	r3, #2
     7cc:	e593303c 	ldr	r3, [r3, #60]	; 0x3c
     7d0:	e3a05000 	mov	r5, #0
		}
	}

}
// 0 is on chip 1 is SDRam
void clearObstacle() {
     7d4:	e1a0a005 	mov	r10, r5
		for (i = 0; i < 12; i++) {
			int k, j;
			for (k = 0; k < 30; k++) {
				for (j = 0; j < 30; j++) {

					if (obstacal_ONCHIP_x[i] + j < 320 && obstacal_ONCHIP_x[i] + j >= 0
     7d8:	e30b6b94 	movw	r6, #48020	; 0xbb94
     7dc:	e3406002 	movt	r6, #2
     7e0:	e300713f 	movw	r7, #319	; 0x13f
     7e4:	ea000018 	b	84c <clearObstacle+0xa0>
     7e8:	e2863d06 	add	r3, r6, #384	; 0x180
     7ec:	e7950003 	ldr	r0, [r5, r3]
     7f0:	e0840000 	add	r0, r4, r0
     7f4:	e1500007 	cmp	r0, r7
     7f8:	8a000008 	bhi	820 <clearObstacle+0x74>
							&& obstacal_ONCHIP_y[i] + k < 240 && obstacal_ONCHIP_y[i] + k >= 0) {
     7fc:	e2863e1d 	add	r3, r6, #464	; 0x1d0
     800:	e7951003 	ldr	r1, [r5, r3]
     804:	e0881001 	add	r1, r8, r1
     808:	e35100ef 	cmp	r1, #239	; 0xef
     80c:	ca000003 	bgt	820 <clearObstacle+0x74>
     810:	e3510000 	cmp	r1, #0
     814:	ba000001 	blt	820 <clearObstacle+0x74>
						plot_pixel(obstacal_ONCHIP_x[i] + j, obstacal_ONCHIP_y[i] + k, 0x0000);
     818:	e1a0200a 	mov	r2, r10
     81c:	ebffff7c 	bl	614 <plot_pixel>

	if (type == 0) {
		for (i = 0; i < 12; i++) {
			int k, j;
			for (k = 0; k < 30; k++) {
				for (j = 0; j < 30; j++) {
     820:	e2844001 	add	r4, r4, #1
     824:	e354001e 	cmp	r4, #30
     828:	1affffee 	bne	7e8 <clearObstacle+0x3c>


	if (type == 0) {
		for (i = 0; i < 12; i++) {
			int k, j;
			for (k = 0; k < 30; k++) {
     82c:	e2888001 	add	r8, r8, #1
     830:	e358001e 	cmp	r8, #30
     834:	0a000001 	beq	840 <clearObstacle+0x94>
		}
	}

}
// 0 is on chip 1 is SDRam
void clearObstacle() {
     838:	e1a0400a 	mov	r4, r10
     83c:	eaffffe9 	b	7e8 <clearObstacle+0x3c>
     840:	e2855004 	add	r5, r5, #4




	if (type == 0) {
		for (i = 0; i < 12; i++) {
     844:	e3550030 	cmp	r5, #48	; 0x30
     848:	08bd85f8 	popeq	{r3, r4, r5, r6, r7, r8, r10, pc}
		}
	}

}
// 0 is on chip 1 is SDRam
void clearObstacle() {
     84c:	e1a0800a 	mov	r8, r10
     850:	eafffff8 	b	838 <clearObstacle+0x8c>
		for (i = 0; i < 12; i++) {
			int k, j;
			for (k = 0; k < 30; k++) {
				for (j = 0; j < 30; j++) {

					if (obstacal_SDRAM_x[i] + j < 320 && obstacal_SDRAM_x[i] + j >= 0
     854:	e2863040 	add	r3, r6, #64	; 0x40
     858:	e7950003 	ldr	r0, [r5, r3]
     85c:	e0840000 	add	r0, r4, r0
     860:	e1500007 	cmp	r0, r7
     864:	8a000008 	bhi	88c <clearObstacle+0xe0>
						&& obstacal_SDRAM_y[i] + k < 240 && obstacal_SDRAM_y[i] + k >= 0) {
     868:	e28630e0 	add	r3, r6, #224	; 0xe0
     86c:	e7951003 	ldr	r1, [r5, r3]
     870:	e0881001 	add	r1, r8, r1
     874:	e35100ef 	cmp	r1, #239	; 0xef
     878:	ca000003 	bgt	88c <clearObstacle+0xe0>
     87c:	e3510000 	cmp	r1, #0
     880:	ba000001 	blt	88c <clearObstacle+0xe0>
						plot_pixel(obstacal_SDRAM_x[i] + j, obstacal_SDRAM_y[i] + k, 0x0000);
     884:	e1a0200a 	mov	r2, r10
     888:	ebffff61 	bl	614 <plot_pixel>
	}
	else if (type == 1) {
		for (i = 0; i < 12; i++) {
			int k, j;
			for (k = 0; k < 30; k++) {
				for (j = 0; j < 30; j++) {
     88c:	e2844001 	add	r4, r4, #1
     890:	e354001e 	cmp	r4, #30
     894:	1affffee 	bne	854 <clearObstacle+0xa8>
		}
	}
	else if (type == 1) {
		for (i = 0; i < 12; i++) {
			int k, j;
			for (k = 0; k < 30; k++) {
     898:	e2888001 	add	r8, r8, #1
     89c:	e358001e 	cmp	r8, #30
     8a0:	0a000001 	beq	8ac <clearObstacle+0x100>





	if (type == 0) {
     8a4:	e1a0400a 	mov	r4, r10
     8a8:	eaffffe9 	b	854 <clearObstacle+0xa8>
     8ac:	e2855004 	add	r5, r5, #4
				}
			}
		}
	}
	else if (type == 1) {
		for (i = 0; i < 12; i++) {
     8b0:	e3550030 	cmp	r5, #48	; 0x30
     8b4:	1a000005 	bne	8d0 <clearObstacle+0x124>
     8b8:	e8bd85f8 	pop	{r3, r4, r5, r6, r7, r8, r10, pc}

	int i;

	int type;

	if (pixel_buffer_start == 0xC0000000) {
     8bc:	e3a05000 	mov	r5, #0





	if (type == 0) {
     8c0:	e1a0a005 	mov	r10, r5
		for (i = 0; i < 12; i++) {
			int k, j;
			for (k = 0; k < 30; k++) {
				for (j = 0; j < 30; j++) {

					if (obstacal_SDRAM_x[i] + j < 320 && obstacal_SDRAM_x[i] + j >= 0
     8c4:	e30b6b94 	movw	r6, #48020	; 0xbb94
     8c8:	e3406002 	movt	r6, #2
     8cc:	e300713f 	movw	r7, #319	; 0x13f





	if (type == 0) {
     8d0:	e1a0800a 	mov	r8, r10
     8d4:	eafffff2 	b	8a4 <clearObstacle+0xf8>

000008d8 <drawBackground>:
  }


}

void drawBackground() {
     8d8:	e92d4070 	push	{r4, r5, r6, lr}

	int i = 0;
     8dc:	e3a05000 	mov	r5, #0
  }


}

void drawBackground() {
     8e0:	e1a06005 	mov	r6, r5
     8e4:	ea000009 	b	910 <drawBackground+0x38>

	int i = 0;
	for (; i < 320; i++) {
		int j = 0;
		for (; j < 240; j++) {
			plot_pixel(i, j, 0x0000);
     8e8:	e1a00005 	mov	r0, r5
     8ec:	e1a01004 	mov	r1, r4
     8f0:	e1a02006 	mov	r2, r6
     8f4:	ebffff46 	bl	614 <plot_pixel>
void drawBackground() {

	int i = 0;
	for (; i < 320; i++) {
		int j = 0;
		for (; j < 240; j++) {
     8f8:	e2844001 	add	r4, r4, #1
     8fc:	e35400f0 	cmp	r4, #240	; 0xf0
     900:	1afffff8 	bne	8e8 <drawBackground+0x10>
}

void drawBackground() {

	int i = 0;
	for (; i < 320; i++) {
     904:	e2855001 	add	r5, r5, #1
     908:	e3550d05 	cmp	r5, #320	; 0x140
     90c:	08bd8070 	popeq	{r4, r5, r6, pc}
  }


}

void drawBackground() {
     910:	e1a04006 	mov	r4, r6
     914:	eafffff3 	b	8e8 <drawBackground+0x10>

00000918 <drawGameOver>:
return 0;


}

void drawGameOver(){
     918:	e92d45f8 	push	{r3, r4, r5, r6, r7, r8, r10, lr}

  int i = 0;
     91c:	e3a06000 	mov	r6, #0
  int j = 0;
     920:	e1a04006 	mov	r4, r6
return 0;


}

void drawGameOver(){
     924:	e59fa04c 	ldr	r10, [pc, #76]	; 978 <drawGameOver+0x60>
     928:	e1a08006 	mov	r8, r6
     92c:	ea00000a 	b	95c <drawGameOver+0x44>
  int i = 0;
  int j = 0;
  for (; i < 320; i++) {

    for (; j < 240; j++) {
      plot_pixel(i, j, gameOver[ j*320 + i]);
     930:	e1a00006 	mov	r0, r6
     934:	e1a01004 	mov	r1, r4
     938:	e19720f5 	ldrsh	r2, [r7, r5]
     93c:	ebffff34 	bl	614 <plot_pixel>

  int i = 0;
  int j = 0;
  for (; i < 320; i++) {

    for (; j < 240; j++) {
     940:	e2844001 	add	r4, r4, #1
     944:	e2855d0a 	add	r5, r5, #640	; 0x280
     948:	e35400f0 	cmp	r4, #240	; 0xf0
     94c:	1afffff7 	bne	930 <drawGameOver+0x18>

void drawGameOver(){

  int i = 0;
  int j = 0;
  for (; i < 320; i++) {
     950:	e2866001 	add	r6, r6, #1
     954:	e3560d05 	cmp	r6, #320	; 0x140
     958:	08bd85f8 	popeq	{r3, r4, r5, r6, r7, r8, r10, pc}

    for (; j < 240; j++) {
     95c:	e35400ef 	cmp	r4, #239	; 0xef
     960:	cafffffa 	bgt	950 <drawGameOver+0x38>
return 0;


}

void drawGameOver(){
     964:	e0847104 	add	r7, r4, r4, lsl #2
     968:	e0867307 	add	r7, r6, r7, lsl #6
     96c:	e08a7087 	add	r7, r10, r7, lsl #1
     970:	e1a05008 	mov	r5, r8
     974:	eaffffed 	b	930 <drawGameOver+0x18>
     978:	00005ed8 	.word	0x00005ed8

0000097c <clear_screen>:
{
	*(short int *)(pixel_buffer_start + (y << 10) + (x << 1)) = line_color;
}


void clear_screen() {
     97c:	e92d4070 	push	{r4, r5, r6, lr}
	int i = 0;
     980:	e3a05000 	mov	r5, #0
{
	*(short int *)(pixel_buffer_start + (y << 10) + (x << 1)) = line_color;
}


void clear_screen() {
     984:	e1a06005 	mov	r6, r5
     988:	ea000009 	b	9b4 <clear_screen+0x38>
	int i = 0;
	for (; i < 320; i++) {
		int j = 0;
		for (; j < 240; j++) {
			plot_pixel(i, j, 0x0000);
     98c:	e1a00005 	mov	r0, r5
     990:	e1a01004 	mov	r1, r4
     994:	e1a02006 	mov	r2, r6
     998:	ebffff1d 	bl	614 <plot_pixel>

void clear_screen() {
	int i = 0;
	for (; i < 320; i++) {
		int j = 0;
		for (; j < 240; j++) {
     99c:	e2844001 	add	r4, r4, #1
     9a0:	e35400f0 	cmp	r4, #240	; 0xf0
     9a4:	1afffff8 	bne	98c <clear_screen+0x10>
}


void clear_screen() {
	int i = 0;
	for (; i < 320; i++) {
     9a8:	e2855001 	add	r5, r5, #1
     9ac:	e3550d05 	cmp	r5, #320	; 0x140
     9b0:	08bd8070 	popeq	{r4, r5, r6, pc}
{
	*(short int *)(pixel_buffer_start + (y << 10) + (x << 1)) = line_color;
}


void clear_screen() {
     9b4:	e1a04006 	mov	r4, r6
     9b8:	eafffff3 	b	98c <clear_screen+0x10>

000009bc <wait_for_vsync>:

void wait_for_vsync() {
	volatile int* pixel_ctrl_ptr = 0xFF203020;
	register int status;

	*pixel_ctrl_ptr = 1;
     9bc:	e3033fff 	movw	r3, #16383	; 0x3fff
     9c0:	e34f3f20 	movt	r3, #65312	; 0xff20
     9c4:	e3a02001 	mov	r2, #1
     9c8:	e5032fdf 	str	r2, [r3, #-4063]	; 0xfffff021

	status = *(pixel_ctrl_ptr + 3);
     9cc:	e5133fd3 	ldr	r3, [r3, #-4051]	; 0xfffff02d
	while ((status & 0x01) != 0) {
     9d0:	e3130001 	tst	r3, #1
     9d4:	012fff1e 	bxeq	lr
		status = *(pixel_ctrl_ptr + 3);
     9d8:	e3032fff 	movw	r2, #16383	; 0x3fff
     9dc:	e34f2f20 	movt	r2, #65312	; 0xff20
     9e0:	e5123fd3 	ldr	r3, [r2, #-4051]	; 0xfffff02d
	register int status;

	*pixel_ctrl_ptr = 1;

	status = *(pixel_ctrl_ptr + 3);
	while ((status & 0x01) != 0) {
     9e4:	e3130001 	tst	r3, #1
     9e8:	1afffffc 	bne	9e0 <wait_for_vsync+0x24>
     9ec:	e12fff1e 	bx	lr

000009f0 <main>:
//initialize playrt position




int main(void) {
     9f0:	e92d4ff8 	push	{r3, r4, r5, r6, r7, r8, r9, r10, r11, lr}
	boards[1][2] = 1; // when theres a 1 on the board, that means theres a player on it
     9f4:	e30b4b94 	movw	r4, #48020	; 0xbb94
     9f8:	e3404002 	movt	r4, #2
     9fc:	e3a03001 	mov	r3, #1
     a00:	e584302c 	str	r3, [r4, #44]	; 0x2c


	volatile int *pixel_ctrl_ptr = (int *)0xFF203020;

	*(pixel_ctrl_ptr + 1) = 0xC8000000; // first store the address in the
     a04:	e3035fff 	movw	r5, #16383	; 0x3fff
     a08:	e34f5f20 	movt	r5, #65312	; 0xff20
     a0c:	e3a03332 	mov	r3, #-939524096	; 0xc8000000
     a10:	e5053fdb 	str	r3, [r5, #-4059]	; 0xfffff025
										// back buffer
	wait_for_vsync();
     a14:	ebffffe8 	bl	9bc <wait_for_vsync>

	pixel_buffer_start = *pixel_ctrl_ptr;
     a18:	e5153fdf 	ldr	r3, [r5, #-4063]	; 0xfffff021
     a1c:	e584303c 	str	r3, [r4, #60]	; 0x3c

	*(pixel_ctrl_ptr + 1) = 0xC0000000;
     a20:	e3a03103 	mov	r3, #-1073741824	; 0xc0000000
     a24:	e5053fdb 	str	r3, [r5, #-4059]	; 0xfffff025
	pixel_buffer_start = *(pixel_ctrl_ptr + 1); // we draw on the back buffer
     a28:	e5153fdb 	ldr	r3, [r5, #-4059]	; 0xfffff025
     a2c:	e584303c 	str	r3, [r4, #60]	; 0x3c
	clear_screen();
     a30:	ebffffd1 	bl	97c <clear_screen>



	//initialize and load sprites here
	drawBackground();
     a34:	ebffffa7 	bl	8d8 <drawBackground>
     a38:	e3a04000 	mov	r4, #0



	//initialize all the obstacles
	int i;
	for (i = 0; i < 12; i++) {
     a3c:	e1a06004 	mov	r6, r4
			obstacal_SDRAM_y[i] = obstacal_y[i];


		}
		else {
			obstacal_x[i] = 114 + (rand() % 3) * 30; //+ rand()%70;
     a40:	e30b5b94 	movw	r5, #48020	; 0xbb94
     a44:	e3405002 	movt	r5, #2
     a48:	e3058556 	movw	r8, #21846	; 0x5556
     a4c:	e3458555 	movt	r8, #21845	; 0x5555
			obstacal_y[i] = 239 + rand() % 300;
     a50:	e30871b5 	movw	r7, #33205	; 0x81b5
     a54:	e3417b4e 	movt	r7, #6990	; 0x1b4e
     a58:	e3a09f4b 	mov	r9, #300	; 0x12c
			obstacleMov_x[i] = 0;
     a5c:	e1a0a004 	mov	r10, r4
	//initialize all the obstacles
	int i;
	for (i = 0; i < 12; i++) {

		//try to do horizontal movement first
		if (i % 4 == 0) {
     a60:	e3160003 	tst	r6, #3
     a64:	1a000020 	bne	aec <main+0xfc>
			obstacal_x[i] = 0 - rand() % 300;
     a68:	eb0000b4 	bl	d40 <rand>
     a6c:	e285b090 	add	r11, r5, #144	; 0x90
     a70:	e0c21097 	smull	r1, r2, r7, r0
     a74:	e1a03fc0 	asr	r3, r0, #31
     a78:	e06332c2 	rsb	r3, r3, r2, asr #5
     a7c:	e0630399 	mls	r3, r9, r3, r0
     a80:	e2633000 	rsb	r3, r3, #0
     a84:	e784300b 	str	r3, [r4, r11]
			obstacal_y[i] = 74 + (rand() % 3) * 30;
     a88:	eb0000ac 	bl	d40 <rand>
     a8c:	e0c32098 	smull	r2, r3, r8, r0
     a90:	e0433fc0 	sub	r3, r3, r0, asr #31
     a94:	e0833083 	add	r3, r3, r3, lsl #1
     a98:	e0630000 	rsb	r0, r3, r0
     a9c:	e0600200 	rsb	r0, r0, r0, lsl #4
     aa0:	e1a03080 	lsl	r3, r0, #1
     aa4:	e283304a 	add	r3, r3, #74	; 0x4a
     aa8:	e2852e13 	add	r2, r5, #304	; 0x130
     aac:	e7843002 	str	r3, [r4, r2]
			obstacleMov_x[i] = 1;
     ab0:	e2852e22 	add	r2, r5, #544	; 0x220
     ab4:	e3a01001 	mov	r1, #1
     ab8:	e7841002 	str	r1, [r4, r2]
			obstacleMov_y[i] = 0;
     abc:	e2852e27 	add	r2, r5, #624	; 0x270
     ac0:	e784a002 	str	r10, [r4, r2]

			obstacal_ONCHIP_x[i] = obstacal_x[i];
     ac4:	e794200b 	ldr	r2, [r4, r11]
     ac8:	e2851d06 	add	r1, r5, #384	; 0x180
     acc:	e7842001 	str	r2, [r4, r1]
			obstacal_ONCHIP_y[i] = obstacal_y[i];
     ad0:	e2851e1d 	add	r1, r5, #464	; 0x1d0
     ad4:	e7843001 	str	r3, [r4, r1]
			obstacal_SDRAM_x[i] = obstacal_x[i];
     ad8:	e2851040 	add	r1, r5, #64	; 0x40
     adc:	e7842001 	str	r2, [r4, r1]
			obstacal_SDRAM_y[i] = obstacal_y[i];
     ae0:	e28520e0 	add	r2, r5, #224	; 0xe0
     ae4:	e7843002 	str	r3, [r4, r2]
     ae8:	ea00006b 	b	c9c <main+0x2ac>




		}
		else if (i % 4 == 1) {
     aec:	e1a03fc6 	asr	r3, r6, #31
     af0:	e1a03f23 	lsr	r3, r3, #30
     af4:	e0862003 	add	r2, r6, r3
     af8:	e2022003 	and	r2, r2, #3
     afc:	e0633002 	rsb	r3, r3, r2
     b00:	e3530001 	cmp	r3, #1
     b04:	1a000021 	bne	b90 <main+0x1a0>
			obstacal_x[i] = 310 + rand() % 300;
     b08:	eb00008c 	bl	d40 <rand>
     b0c:	e285b090 	add	r11, r5, #144	; 0x90
     b10:	e0c23097 	smull	r3, r2, r7, r0
     b14:	e1a03fc0 	asr	r3, r0, #31
     b18:	e06332c2 	rsb	r3, r3, r2, asr #5
     b1c:	e0630399 	mls	r3, r9, r3, r0
     b20:	e2833f4d 	add	r3, r3, #308	; 0x134
     b24:	e2833002 	add	r3, r3, #2
     b28:	e784300b 	str	r3, [r4, r11]
			obstacal_y[i] = 74 + (rand() % 3) * 30;
     b2c:	eb000083 	bl	d40 <rand>
     b30:	e0c31098 	smull	r1, r3, r8, r0
     b34:	e0433fc0 	sub	r3, r3, r0, asr #31
     b38:	e0833083 	add	r3, r3, r3, lsl #1
     b3c:	e0630000 	rsb	r0, r3, r0
     b40:	e0600200 	rsb	r0, r0, r0, lsl #4
     b44:	e1a03080 	lsl	r3, r0, #1
     b48:	e283304a 	add	r3, r3, #74	; 0x4a
     b4c:	e2852e13 	add	r2, r5, #304	; 0x130
     b50:	e7843002 	str	r3, [r4, r2]
			obstacleMov_x[i] = -1;
     b54:	e2852e22 	add	r2, r5, #544	; 0x220
     b58:	e3e01000 	mvn	r1, #0
     b5c:	e7841002 	str	r1, [r4, r2]
			obstacleMov_y[i] = 0;
     b60:	e2852e27 	add	r2, r5, #624	; 0x270
     b64:	e784a002 	str	r10, [r4, r2]

			obstacal_ONCHIP_x[i] = obstacal_x[i];
     b68:	e794200b 	ldr	r2, [r4, r11]
     b6c:	e2851d06 	add	r1, r5, #384	; 0x180
     b70:	e7842001 	str	r2, [r4, r1]
			obstacal_ONCHIP_y[i] = obstacal_y[i];
     b74:	e2851e1d 	add	r1, r5, #464	; 0x1d0
     b78:	e7843001 	str	r3, [r4, r1]
			obstacal_SDRAM_x[i] = obstacal_x[i];
     b7c:	e2851040 	add	r1, r5, #64	; 0x40
     b80:	e7842001 	str	r2, [r4, r1]
			obstacal_SDRAM_y[i] = obstacal_y[i];
     b84:	e28520e0 	add	r2, r5, #224	; 0xe0
     b88:	e7843002 	str	r3, [r4, r2]
     b8c:	ea000042 	b	c9c <main+0x2ac>



		}
		else if (i % 4 == 2) {
     b90:	e3530002 	cmp	r3, #2
     b94:	1a000020 	bne	c1c <main+0x22c>

			obstacal_x[i] = 114 + (rand() % 3) * 30; //+ rand()%70;
     b98:	eb000068 	bl	d40 <rand>
     b9c:	e285b090 	add	r11, r5, #144	; 0x90
     ba0:	e0c32098 	smull	r2, r3, r8, r0
     ba4:	e0433fc0 	sub	r3, r3, r0, asr #31
     ba8:	e0833083 	add	r3, r3, r3, lsl #1
     bac:	e0630000 	rsb	r0, r3, r0
     bb0:	e0600200 	rsb	r0, r0, r0, lsl #4
     bb4:	e1a03080 	lsl	r3, r0, #1
     bb8:	e2833072 	add	r3, r3, #114	; 0x72
     bbc:	e784300b 	str	r3, [r4, r11]
			obstacal_y[i] = 0 - rand() % 300;
     bc0:	eb00005e 	bl	d40 <rand>
     bc4:	e0c23097 	smull	r3, r2, r7, r0
     bc8:	e1a03fc0 	asr	r3, r0, #31
     bcc:	e06332c2 	rsb	r3, r3, r2, asr #5
     bd0:	e0630399 	mls	r3, r9, r3, r0
     bd4:	e2633000 	rsb	r3, r3, #0
     bd8:	e2852e13 	add	r2, r5, #304	; 0x130
     bdc:	e7843002 	str	r3, [r4, r2]
			obstacleMov_x[i] = 0;
     be0:	e2852e22 	add	r2, r5, #544	; 0x220
     be4:	e784a002 	str	r10, [r4, r2]
			obstacleMov_y[i] = 1;
     be8:	e2852e27 	add	r2, r5, #624	; 0x270
     bec:	e3a01001 	mov	r1, #1
     bf0:	e7841002 	str	r1, [r4, r2]

			obstacal_ONCHIP_x[i] = obstacal_x[i];
     bf4:	e794200b 	ldr	r2, [r4, r11]
     bf8:	e2851d06 	add	r1, r5, #384	; 0x180
     bfc:	e7842001 	str	r2, [r4, r1]
			obstacal_ONCHIP_y[i] = obstacal_y[i];
     c00:	e2851e1d 	add	r1, r5, #464	; 0x1d0
     c04:	e7843001 	str	r3, [r4, r1]
			obstacal_SDRAM_x[i] = obstacal_x[i];
     c08:	e2851040 	add	r1, r5, #64	; 0x40
     c0c:	e7842001 	str	r2, [r4, r1]
			obstacal_SDRAM_y[i] = obstacal_y[i];
     c10:	e28520e0 	add	r2, r5, #224	; 0xe0
     c14:	e7843002 	str	r3, [r4, r2]
     c18:	ea00001f 	b	c9c <main+0x2ac>


		}
		else {
			obstacal_x[i] = 114 + (rand() % 3) * 30; //+ rand()%70;
     c1c:	eb000047 	bl	d40 <rand>
     c20:	e285b090 	add	r11, r5, #144	; 0x90
     c24:	e0c31098 	smull	r1, r3, r8, r0
     c28:	e0433fc0 	sub	r3, r3, r0, asr #31
     c2c:	e0833083 	add	r3, r3, r3, lsl #1
     c30:	e0630000 	rsb	r0, r3, r0
     c34:	e0600200 	rsb	r0, r0, r0, lsl #4
     c38:	e1a03080 	lsl	r3, r0, #1
     c3c:	e2833072 	add	r3, r3, #114	; 0x72
     c40:	e784300b 	str	r3, [r4, r11]
			obstacal_y[i] = 239 + rand() % 300;
     c44:	eb00003d 	bl	d40 <rand>
     c48:	e0c23097 	smull	r3, r2, r7, r0
     c4c:	e1a03fc0 	asr	r3, r0, #31
     c50:	e06332c2 	rsb	r3, r3, r2, asr #5
     c54:	e0630399 	mls	r3, r9, r3, r0
     c58:	e28330ef 	add	r3, r3, #239	; 0xef
     c5c:	e2852e13 	add	r2, r5, #304	; 0x130
     c60:	e7843002 	str	r3, [r4, r2]
			obstacleMov_x[i] = 0;
     c64:	e2852e22 	add	r2, r5, #544	; 0x220
     c68:	e784a002 	str	r10, [r4, r2]
			obstacleMov_y[i] = -1;
     c6c:	e2852e27 	add	r2, r5, #624	; 0x270
     c70:	e3e01000 	mvn	r1, #0
     c74:	e7841002 	str	r1, [r4, r2]

			obstacal_ONCHIP_x[i] = obstacal_x[i];
     c78:	e794200b 	ldr	r2, [r4, r11]
     c7c:	e2851d06 	add	r1, r5, #384	; 0x180
     c80:	e7842001 	str	r2, [r4, r1]
			obstacal_ONCHIP_y[i] = obstacal_y[i];
     c84:	e2851e1d 	add	r1, r5, #464	; 0x1d0
     c88:	e7843001 	str	r3, [r4, r1]
			obstacal_SDRAM_x[i] = obstacal_x[i];
     c8c:	e2851040 	add	r1, r5, #64	; 0x40
     c90:	e7842001 	str	r2, [r4, r1]
			obstacal_SDRAM_y[i] = obstacal_y[i];
     c94:	e28520e0 	add	r2, r5, #224	; 0xe0
     c98:	e7843002 	str	r3, [r4, r2]



	//initialize all the obstacles
	int i;
	for (i = 0; i < 12; i++) {
     c9c:	e2866001 	add	r6, r6, #1
     ca0:	e2844004 	add	r4, r4, #4
     ca4:	e356000c 	cmp	r6, #12
     ca8:	1affff6c 	bne	a60 <main+0x70>
    drawGameOver();



		wait_for_vsync();
		pixel_buffer_start = *(pixel_ctrl_ptr + 1); //new back buffer
     cac:	e3035fff 	movw	r5, #16383	; 0x3fff
     cb0:	e34f5f20 	movt	r5, #65312	; 0xff20
     cb4:	e30b4b94 	movw	r4, #48020	; 0xbb94
     cb8:	e3404002 	movt	r4, #2
      draw();
      update();
    }else{
      drawGameOver();
    }*/
    drawGameOver();
     cbc:	ebffff15 	bl	918 <drawGameOver>



		wait_for_vsync();
     cc0:	ebffff3d 	bl	9bc <wait_for_vsync>
		pixel_buffer_start = *(pixel_ctrl_ptr + 1); //new back buffer
     cc4:	e5153fdb 	ldr	r3, [r5, #-4059]	; 0xfffff025
     cc8:	e584303c 	str	r3, [r4, #60]	; 0x3c
     ccc:	eafffffa 	b	cbc <main+0x2cc>

00000cd0 <atexit>:
     cd0:	e1a01000 	mov	r1, r0
     cd4:	e3a00000 	mov	r0, #0
     cd8:	e92d4008 	push	{r3, lr}
     cdc:	e1a02000 	mov	r2, r0
     ce0:	e1a03000 	mov	r3, r0
     ce4:	eb00002c 	bl	d9c <__register_exitproc>
     ce8:	e8bd4008 	pop	{r3, lr}
     cec:	e12fff1e 	bx	lr

00000cf0 <exit>:
     cf0:	e92d4008 	push	{r3, lr}
     cf4:	e3a01000 	mov	r1, #0
     cf8:	e1a04000 	mov	r4, r0
     cfc:	eb000063 	bl	e90 <__call_exitprocs>
     d00:	e59f3018 	ldr	r3, [pc, #24]	; d20 <exit+0x30>
     d04:	e5930000 	ldr	r0, [r3]
     d08:	e590303c 	ldr	r3, [r0, #60]	; 0x3c
     d0c:	e3530000 	cmp	r3, #0
     d10:	11a0e00f 	movne	lr, pc
     d14:	112fff13 	bxne	r3
     d18:	e1a00004 	mov	r0, r4
     d1c:	eb0000e7 	bl	10c0 <_exit>
     d20:	0002b6d8 	.word	0x0002b6d8

00000d24 <srand>:
     d24:	e59f3010 	ldr	r3, [pc, #16]	; d3c <srand+0x18>
     d28:	e5933000 	ldr	r3, [r3]
     d2c:	e3a02000 	mov	r2, #0
     d30:	e58300a8 	str	r0, [r3, #168]	; 0xa8
     d34:	e58320ac 	str	r2, [r3, #172]	; 0xac
     d38:	e12fff1e 	bx	lr
     d3c:	0002b740 	.word	0x0002b740

00000d40 <rand>:
     d40:	e52d4004 	push	{r4}		; (str r4, [sp, #-4]!)
     d44:	e59f3044 	ldr	r3, [pc, #68]	; d90 <rand+0x50>
     d48:	e593c000 	ldr	r12, [r3]
     d4c:	e59f4040 	ldr	r4, [pc, #64]	; d94 <rand+0x54>
     d50:	e59c20a8 	ldr	r2, [r12, #168]	; 0xa8
     d54:	e0040492 	mul	r4, r2, r4
     d58:	e59c10ac 	ldr	r1, [r12, #172]	; 0xac
     d5c:	e59f3034 	ldr	r3, [pc, #52]	; d98 <rand+0x58>
     d60:	e0244193 	mla	r4, r3, r1, r4
     d64:	e0810392 	umull	r0, r1, r2, r3
     d68:	e3a02001 	mov	r2, #1
     d6c:	e0922000 	adds	r2, r2, r0
     d70:	e0841001 	add	r1, r4, r1
     d74:	e3a03000 	mov	r3, #0
     d78:	e0a33001 	adc	r3, r3, r1
     d7c:	e58c20a8 	str	r2, [r12, #168]	; 0xa8
     d80:	e58c30ac 	str	r3, [r12, #172]	; 0xac
     d84:	e3c30102 	bic	r0, r3, #-2147483648	; 0x80000000
     d88:	e8bd0010 	ldmfd	sp!, {r4}
     d8c:	e12fff1e 	bx	lr
     d90:	0002b740 	.word	0x0002b740
     d94:	5851f42d 	.word	0x5851f42d
     d98:	4c957f2d 	.word	0x4c957f2d

00000d9c <__register_exitproc>:
     d9c:	e59fc0e4 	ldr	r12, [pc, #228]	; e88 <__register_exitproc+0xec>
     da0:	e92d41f0 	push	{r4, r5, r6, r7, r8, lr}
     da4:	e59c4000 	ldr	r4, [r12]
     da8:	e594c148 	ldr	r12, [r4, #328]	; 0x148
     dac:	e35c0000 	cmp	r12, #0
     db0:	0284cf53 	addeq	r12, r4, #332	; 0x14c
     db4:	e59c5004 	ldr	r5, [r12, #4]
     db8:	0584c148 	streq	r12, [r4, #328]	; 0x148
     dbc:	e355001f 	cmp	r5, #31
     dc0:	e24dd010 	sub	sp, sp, #16
     dc4:	e1a06000 	mov	r6, r0
     dc8:	da000015 	ble	e24 <__register_exitproc+0x88>
     dcc:	e59f00b8 	ldr	r0, [pc, #184]	; e8c <__register_exitproc+0xf0>
     dd0:	e3500000 	cmp	r0, #0
     dd4:	1a000001 	bne	de0 <__register_exitproc+0x44>
     dd8:	e3e00000 	mvn	r0, #0
     ddc:	ea000018 	b	e44 <__register_exitproc+0xa8>
     de0:	e3a00e19 	mov	r0, #400	; 0x190
     de4:	e58d100c 	str	r1, [sp, #12]
     de8:	e58d2008 	str	r2, [sp, #8]
     dec:	e58d3004 	str	r3, [sp, #4]
     df0:	e320f000 	nop	{0}
     df4:	e250c000 	subs	r12, r0, #0
     df8:	e59d100c 	ldr	r1, [sp, #12]
     dfc:	e59d2008 	ldr	r2, [sp, #8]
     e00:	e59d3004 	ldr	r3, [sp, #4]
     e04:	0afffff3 	beq	dd8 <__register_exitproc+0x3c>
     e08:	e5945148 	ldr	r5, [r4, #328]	; 0x148
     e0c:	e3a00000 	mov	r0, #0
     e10:	e58c0004 	str	r0, [r12, #4]
     e14:	e58c5000 	str	r5, [r12]
     e18:	e584c148 	str	r12, [r4, #328]	; 0x148
     e1c:	e58c0188 	str	r0, [r12, #392]	; 0x188
     e20:	e58c018c 	str	r0, [r12, #396]	; 0x18c
     e24:	e3560000 	cmp	r6, #0
     e28:	e59c4004 	ldr	r4, [r12, #4]
     e2c:	1a000007 	bne	e50 <__register_exitproc+0xb4>
     e30:	e2843002 	add	r3, r4, #2
     e34:	e2844001 	add	r4, r4, #1
     e38:	e78c1103 	str	r1, [r12, r3, lsl #2]
     e3c:	e58c4004 	str	r4, [r12, #4]
     e40:	e3a00000 	mov	r0, #0
     e44:	e28dd010 	add	sp, sp, #16
     e48:	e8bd41f0 	pop	{r4, r5, r6, r7, r8, lr}
     e4c:	e12fff1e 	bx	lr
     e50:	e3a00001 	mov	r0, #1
     e54:	e1a00410 	lsl	r0, r0, r4
     e58:	e08c8104 	add	r8, r12, r4, lsl #2
     e5c:	e3560002 	cmp	r6, #2
     e60:	e59c7188 	ldr	r7, [r12, #392]	; 0x188
     e64:	e5883108 	str	r3, [r8, #264]	; 0x108
     e68:	059c318c 	ldreq	r3, [r12, #396]	; 0x18c
     e6c:	e1877000 	orr	r7, r7, r0
     e70:	01830000 	orreq	r0, r3, r0
     e74:	e1a05008 	mov	r5, r8
     e78:	e5882088 	str	r2, [r8, #136]	; 0x88
     e7c:	e58c7188 	str	r7, [r12, #392]	; 0x188
     e80:	058c018c 	streq	r0, [r12, #396]	; 0x18c
     e84:	eaffffe9 	b	e30 <__register_exitproc+0x94>
     e88:	0002b6d8 	.word	0x0002b6d8
     e8c:	00000000 	.word	0x00000000

00000e90 <__call_exitprocs>:
     e90:	e92d4ff0 	push	{r4, r5, r6, r7, r8, r9, r10, r11, lr}
     e94:	e59f3168 	ldr	r3, [pc, #360]	; 1004 <__call_exitprocs+0x174>
     e98:	e5933000 	ldr	r3, [r3]
     e9c:	e24dd014 	sub	sp, sp, #20
     ea0:	e58d3004 	str	r3, [sp, #4]
     ea4:	e2833f52 	add	r3, r3, #328	; 0x148
     ea8:	e58d0008 	str	r0, [sp, #8]
     eac:	e58d300c 	str	r3, [sp, #12]
     eb0:	e1a07001 	mov	r7, r1
     eb4:	e3a08001 	mov	r8, #1
     eb8:	e59d3004 	ldr	r3, [sp, #4]
     ebc:	e5936148 	ldr	r6, [r3, #328]	; 0x148
     ec0:	e3560000 	cmp	r6, #0
     ec4:	e59db00c 	ldr	r11, [sp, #12]
     ec8:	0a000033 	beq	f9c <__call_exitprocs+0x10c>
     ecc:	e5965004 	ldr	r5, [r6, #4]
     ed0:	e2554001 	subs	r4, r5, #1
     ed4:	5286a088 	addpl	r10, r6, #136	; 0x88
     ed8:	5285501f 	addpl	r5, r5, #31
     edc:	508a5105 	addpl	r5, r10, r5, lsl #2
     ee0:	5a000007 	bpl	f04 <__call_exitprocs+0x74>
     ee4:	ea000029 	b	f90 <__call_exitprocs+0x100>
     ee8:	e5953000 	ldr	r3, [r5]
     eec:	e1530007 	cmp	r3, r7
     ef0:	0a000005 	beq	f0c <__call_exitprocs+0x7c>
     ef4:	e2444001 	sub	r4, r4, #1
     ef8:	e3740001 	cmn	r4, #1
     efc:	e2455004 	sub	r5, r5, #4
     f00:	0a000022 	beq	f90 <__call_exitprocs+0x100>
     f04:	e3570000 	cmp	r7, #0
     f08:	1afffff6 	bne	ee8 <__call_exitprocs+0x58>
     f0c:	e5963004 	ldr	r3, [r6, #4]
     f10:	e06a2005 	rsb	r2, r10, r5
     f14:	e2433001 	sub	r3, r3, #1
     f18:	e0862002 	add	r2, r6, r2
     f1c:	e1530004 	cmp	r3, r4
     f20:	e5123078 	ldr	r3, [r2, #-120]	; 0xffffff88
     f24:	13a01000 	movne	r1, #0
     f28:	05864004 	streq	r4, [r6, #4]
     f2c:	15021078 	strne	r1, [r2, #-120]	; 0xffffff88
     f30:	e3530000 	cmp	r3, #0
     f34:	0affffee 	beq	ef4 <__call_exitprocs+0x64>
     f38:	e1a02418 	lsl	r2, r8, r4
     f3c:	e5961188 	ldr	r1, [r6, #392]	; 0x188
     f40:	e1120001 	tst	r2, r1
     f44:	e5969004 	ldr	r9, [r6, #4]
     f48:	0a000016 	beq	fa8 <__call_exitprocs+0x118>
     f4c:	e596118c 	ldr	r1, [r6, #396]	; 0x18c
     f50:	e1120001 	tst	r2, r1
     f54:	1a000016 	bne	fb4 <__call_exitprocs+0x124>
     f58:	e59d0008 	ldr	r0, [sp, #8]
     f5c:	e5151080 	ldr	r1, [r5, #-128]	; 0xffffff80
     f60:	e1a0e00f 	mov	lr, pc
     f64:	e12fff13 	bx	r3
     f68:	e5963004 	ldr	r3, [r6, #4]
     f6c:	e1530009 	cmp	r3, r9
     f70:	1affffd0 	bne	eb8 <__call_exitprocs+0x28>
     f74:	e59b3000 	ldr	r3, [r11]
     f78:	e1530006 	cmp	r3, r6
     f7c:	1affffcd 	bne	eb8 <__call_exitprocs+0x28>
     f80:	e2444001 	sub	r4, r4, #1
     f84:	e3740001 	cmn	r4, #1
     f88:	e2455004 	sub	r5, r5, #4
     f8c:	1affffdc 	bne	f04 <__call_exitprocs+0x74>
     f90:	e59f1070 	ldr	r1, [pc, #112]	; 1008 <__call_exitprocs+0x178>
     f94:	e3510000 	cmp	r1, #0
     f98:	1a000009 	bne	fc4 <__call_exitprocs+0x134>
     f9c:	e28dd014 	add	sp, sp, #20
     fa0:	e8bd4ff0 	pop	{r4, r5, r6, r7, r8, r9, r10, r11, lr}
     fa4:	e12fff1e 	bx	lr
     fa8:	e1a0e00f 	mov	lr, pc
     fac:	e12fff13 	bx	r3
     fb0:	eaffffec 	b	f68 <__call_exitprocs+0xd8>
     fb4:	e5150080 	ldr	r0, [r5, #-128]	; 0xffffff80
     fb8:	e1a0e00f 	mov	lr, pc
     fbc:	e12fff13 	bx	r3
     fc0:	eaffffe8 	b	f68 <__call_exitprocs+0xd8>
     fc4:	e5963004 	ldr	r3, [r6, #4]
     fc8:	e3530000 	cmp	r3, #0
     fcc:	e5963000 	ldr	r3, [r6]
     fd0:	1a000008 	bne	ff8 <__call_exitprocs+0x168>
     fd4:	e3530000 	cmp	r3, #0
     fd8:	0a000006 	beq	ff8 <__call_exitprocs+0x168>
     fdc:	e1a00006 	mov	r0, r6
     fe0:	e58b3000 	str	r3, [r11]
     fe4:	e320f000 	nop	{0}
     fe8:	e59b6000 	ldr	r6, [r11]
     fec:	e3560000 	cmp	r6, #0
     ff0:	1affffb5 	bne	ecc <__call_exitprocs+0x3c>
     ff4:	eaffffe8 	b	f9c <__call_exitprocs+0x10c>
     ff8:	e1a0b006 	mov	r11, r6
     ffc:	e1a06003 	mov	r6, r3
    1000:	eafffff9 	b	fec <__call_exitprocs+0x15c>
    1004:	0002b6d8 	.word	0x0002b6d8
    1008:	00000000 	.word	0x00000000

0000100c <register_fini>:
    100c:	e92d4008 	push	{r3, lr}
    1010:	e59f3010 	ldr	r3, [pc, #16]	; 1028 <register_fini+0x1c>
    1014:	e3530000 	cmp	r3, #0
    1018:	159f000c 	ldrne	r0, [pc, #12]	; 102c <register_fini+0x20>
    101c:	1bffff2b 	blne	cd0 <atexit>
    1020:	e8bd4008 	pop	{r3, lr}
    1024:	e12fff1e 	bx	lr
    1028:	0002b700 	.word	0x0002b700
    102c:	00001030 	.word	0x00001030

00001030 <__libc_fini_array>:
    1030:	e92d4038 	push	{r3, r4, r5, lr}
    1034:	e59f5030 	ldr	r5, [pc, #48]	; 106c <__libc_fini_array+0x3c>
    1038:	e59f4030 	ldr	r4, [pc, #48]	; 1070 <__libc_fini_array+0x40>
    103c:	e0654004 	rsb	r4, r5, r4
    1040:	e1b04144 	asrs	r4, r4, #2
    1044:	10855104 	addne	r5, r5, r4, lsl #2
    1048:	0a000004 	beq	1060 <__libc_fini_array+0x30>
    104c:	e5353004 	ldr	r3, [r5, #-4]!
    1050:	e1a0e00f 	mov	lr, pc
    1054:	e12fff13 	bx	r3
    1058:	e2544001 	subs	r4, r4, #1
    105c:	1afffffa 	bne	104c <__libc_fini_array+0x1c>
    1060:	eb00a9a6 	bl	2b700 <__libc_fini>
    1064:	e8bd4038 	pop	{r3, r4, r5, lr}
    1068:	e12fff1e 	bx	lr
    106c:	0002b718 	.word	0x0002b718
    1070:	0002b71c 	.word	0x0002b71c

00001074 <__cs3_premain>:
    1074:	e92d4008 	push	{r3, lr}
    1078:	eb00001d 	bl	10f4 <__libc_init_array>
    107c:	e59f3030 	ldr	r3, [pc, #48]	; 10b4 <__cs3_premain+0x40>
    1080:	e3530000 	cmp	r3, #0
    1084:	15930000 	ldrne	r0, [r3]
    1088:	01a00003 	moveq	r0, r3
    108c:	e59f3024 	ldr	r3, [pc, #36]	; 10b8 <__cs3_premain+0x44>
    1090:	e3530000 	cmp	r3, #0
    1094:	15931000 	ldrne	r1, [r3]
    1098:	01a01003 	moveq	r1, r3
    109c:	e3a02000 	mov	r2, #0
    10a0:	ebfffe52 	bl	9f0 <main>
    10a4:	e59f3010 	ldr	r3, [pc, #16]	; 10bc <__cs3_premain+0x48>
    10a8:	e3530000 	cmp	r3, #0
    10ac:	1bffff0f 	blne	cf0 <exit>
    10b0:	eafffffe 	b	10b0 <__cs3_premain+0x3c>
	...
    10bc:	00000cf0 	.word	0x00000cf0

000010c0 <_exit>:
    10c0:	e52de004 	push	{lr}		; (str lr, [sp, #-4]!)
    10c4:	e3a00018 	mov	r0, #24
    10c8:	e59f1004 	ldr	r1, [pc, #4]	; 10d4 <_exit+0x14>
    10cc:	ef123456 	svc	0x00123456
    10d0:	eafffffe 	b	10d0 <_exit+0x10>
    10d4:	00020026 	.word	0x00020026

000010d8 <__cs3_isr_interrupt>:
    10d8:	eafffffe 	b	10d8 <__cs3_isr_interrupt>

000010dc <__cs3_isr_undef>:
    10dc:	eafffffe 	b	10dc <__cs3_isr_undef>

000010e0 <__cs3_isr_swi>:
    10e0:	eafffffe 	b	10e0 <__cs3_isr_swi>

000010e4 <__cs3_isr_pabort>:
    10e4:	eafffffe 	b	10e4 <__cs3_isr_pabort>

000010e8 <__cs3_isr_dabort>:
    10e8:	eafffffe 	b	10e8 <__cs3_isr_dabort>

000010ec <__cs3_isr_irq>:
    10ec:	eafffffe 	b	10ec <__cs3_isr_irq>

000010f0 <__cs3_isr_fiq>:
    10f0:	eafffffe 	b	10f0 <__cs3_isr_fiq>

000010f4 <__libc_init_array>:
    10f4:	e92d4070 	push	{r4, r5, r6, lr}
    10f8:	e59f506c 	ldr	r5, [pc, #108]	; 116c <__libc_init_array+0x78>
    10fc:	e59f606c 	ldr	r6, [pc, #108]	; 1170 <__libc_init_array+0x7c>
    1100:	e0656006 	rsb	r6, r5, r6
    1104:	e1b06146 	asrs	r6, r6, #2
    1108:	12455004 	subne	r5, r5, #4
    110c:	13a04000 	movne	r4, #0
    1110:	0a000005 	beq	112c <__libc_init_array+0x38>
    1114:	e5b53004 	ldr	r3, [r5, #4]!
    1118:	e2844001 	add	r4, r4, #1
    111c:	e1a0e00f 	mov	lr, pc
    1120:	e12fff13 	bx	r3
    1124:	e1560004 	cmp	r6, r4
    1128:	1afffff9 	bne	1114 <__libc_init_array+0x20>
    112c:	e59f5040 	ldr	r5, [pc, #64]	; 1174 <__libc_init_array+0x80>
    1130:	e59f6040 	ldr	r6, [pc, #64]	; 1178 <__libc_init_array+0x84>
    1134:	e0656006 	rsb	r6, r5, r6
    1138:	eb00a968 	bl	2b6e0 <_init>
    113c:	e1b06146 	asrs	r6, r6, #2
    1140:	12455004 	subne	r5, r5, #4
    1144:	13a04000 	movne	r4, #0
    1148:	0a000005 	beq	1164 <__libc_init_array+0x70>
    114c:	e5b53004 	ldr	r3, [r5, #4]!
    1150:	e2844001 	add	r4, r4, #1
    1154:	e1a0e00f 	mov	lr, pc
    1158:	e12fff13 	bx	r3
    115c:	e1560004 	cmp	r6, r4
    1160:	1afffff9 	bne	114c <__libc_init_array+0x58>
    1164:	e8bd4070 	pop	{r4, r5, r6, lr}
    1168:	e12fff1e 	bx	lr
    116c:	0002b6f8 	.word	0x0002b6f8
    1170:	0002b6f8 	.word	0x0002b6f8
    1174:	0002b6f8 	.word	0x0002b6f8
    1178:	0002b700 	.word	0x0002b700

Disassembly of section .rodata:

00001180 <board>:
    1180:	ffffffff ffffffff ffffffff ffffffff     ................
    1190:	ffffffff ffffffff ffffffff ffffffff     ................
    11a0:	ffffffff ffffffff ffffffff ffffffff     ................
    11b0:	ffffffff ffffffff ffffffff ffffffff     ................
    11c0:	ffffffff ffffffff ffffffff ffffffff     ................
    11d0:	ffffffff ffffffff ffffffff ffffffff     ................
    11e0:	ffffffff ffffffff ffffffff ffffffff     ................
    11f0:	ffffffff ffffffff ffffffff ffffffff     ................
    1200:	ffffffff ffffffff ffffffff ffffffff     ................
    1210:	ffffffff ffffffff ffffffff ffffffff     ................
    1220:	ffffffff ffffffff ffffffff ffffffff     ................
    1230:	ffffffff fbe4ffff fbe4fbe4 fbe4fbe4     ................
    1240:	fbe4fbe4 fbe4fbe4 fbe4fbe4 fbe4fbe4     ................
    1250:	fbe4fbe4 fbe4fbe4 fbe4fbe4 fbe4fbe4     ................
    1260:	fbe4fbe4 fbe4fbe4 fbe4fbe4 fbe4fbe4     ................
    1270:	fbe4ffff fbe4fbe4 fbe4fbe4 fbe4fbe4     ................
    1280:	fbe4fbe4 fbe4fbe4 fbe4fbe4 fbe4fbe4     ................
    1290:	fbe4fbe4 fbe4fbe4 fbe4fbe4 fbe4fbe4     ................
    12a0:	fbe4fbe4 fbe4fbe4 fbe4fbe4 fffffbe4     ................
    12b0:	fbe4fbe4 fbe4fbe4 fbe4fbe4 fbe4fbe4     ................
    12c0:	fbe4fbe4 fbe4fbe4 fbe4fbe4 fbe4fbe4     ................
    12d0:	fbe4fbe4 fbe4fbe4 fbe4fbe4 fbe4fbe4     ................
    12e0:	fbe4fbe4 fffffbe4 fbe4ffff fbe4fbe4     ................
    12f0:	fbe4fbe4 fbe4fbe4 fbe4fbe4 fbe4fbe4     ................
    1300:	fbe4fbe4 fbe4fbe4 fbe4fbe4 fbe4fbe4     ................
    1310:	fbe4fbe4 fbe4fbe4 fbe4fbe4 fbe4fbe4     ................
    1320:	fbe4fbe4 fbe4ffff fbe4fbe4 fbe4fbe4     ................
    1330:	fbe4fbe4 fbe4fbe4 fbe4fbe4 fbe4fbe4     ................
    1340:	fbe4fbe4 fbe4fbe4 fbe4fbe4 fbe4fbe4     ................
    1350:	fbe4fbe4 fbe4fbe4 fbe4fbe4 fbe4fbe4     ................
    1360:	fffffbe4 fbe4fbe4 fbe4fbe4 fbe4fbe4     ................
    1370:	fbe4fbe4 fbe4fbe4 fbe4fbe4 fbe4fbe4     ................
    1380:	fbe4fbe4 fbe4fbe4 fbe4fbe4 fbe4fbe4     ................
    1390:	fbe4fbe4 fbe4fbe4 fffffbe4 fbe4ffff     ................
    13a0:	fbe4fbe4 fbe4fbe4 fbe4fbe4 fbe4fbe4     ................
    13b0:	fbe4fbe4 fbe4fbe4 fbe4fbe4 fbe4fbe4     ................
    13c0:	fbe4fbe4 fbe4fbe4 fbe4fbe4 fbe4fbe4     ................
    13d0:	fbe4fbe4 fbe4fbe4 fbe4ffff fbe4fbe4     ................
    13e0:	fbe4fbe4 fbe4fbe4 fbe4fbe4 fbe4fbe4     ................
    13f0:	fbe4fbe4 fbe4fbe4 fbe4fbe4 fbe4fbe4     ................
    1400:	fbe4fbe4 fbe4fbe4 fbe4fbe4 fbe4fbe4     ................
    1410:	fbe4fbe4 fffffbe4 fbe4fbe4 fbe4fbe4     ................
    1420:	fbe4fbe4 fbe4fbe4 fbe4fbe4 fbe4fbe4     ................
    1430:	fbe4fbe4 fbe4fbe4 fbe4fbe4 fbe4fbe4     ................
    1440:	fbe4fbe4 fbe4fbe4 fbe4fbe4 fffffbe4     ................
    1450:	fbe4ffff fbe4fbe4 fbe4fbe4 fbe4fbe4     ................
    1460:	fbe4fbe4 fbe4fbe4 fbe4fbe4 fbe4fbe4     ................
    1470:	fbe4fbe4 fbe4fbe4 fbe4fbe4 fbe4fbe4     ................
    1480:	fbe4fbe4 fbe4fbe4 fbe4fbe4 fbe4ffff     ................
    1490:	fbe4fbe4 fbe4fbe4 fbe4fbe4 fbe4fbe4     ................
    14a0:	fbe4fbe4 fbe4fbe4 fbe4fbe4 fbe4fbe4     ................
    14b0:	fbe4fbe4 fbe4fbe4 fbe4fbe4 fbe4fbe4     ................
    14c0:	fbe4fbe4 fbe4fbe4 fffffbe4 fbe4fbe4     ................
    14d0:	fbe4fbe4 fbe4fbe4 fbe4fbe4 fbe4fbe4     ................
    14e0:	fbe4fbe4 fbe4fbe4 fbe4fbe4 fbe4fbe4     ................
    14f0:	fbe4fbe4 fbe4fbe4 fbe4fbe4 fbe4fbe4     ................
    1500:	fffffbe4 fbe4ffff fbe4fbe4 fbe4fbe4     ................
    1510:	fbe4fbe4 fbe4fbe4 fbe4fbe4 fbe4fbe4     ................
    1520:	fbe4fbe4 fbe4fbe4 fbe4fbe4 fbe4fbe4     ................
    1530:	fbe4fbe4 fbe4fbe4 fbe4fbe4 fbe4fbe4     ................
    1540:	fbe4ffff fbe4fbe4 fbe4fbe4 fbe4fbe4     ................
    1550:	fbe4fbe4 fbe4fbe4 fbe4fbe4 fbe4fbe4     ................
    1560:	fbe4fbe4 fbe4fbe4 fbe4fbe4 fbe4fbe4     ................
    1570:	fbe4fbe4 fbe4fbe4 fbe4fbe4 fffffbe4     ................
    1580:	fbe4fbe4 fbe4fbe4 fbe4fbe4 fbe4fbe4     ................
    1590:	fbe4fbe4 fbe4fbe4 fbe4fbe4 fbe4fbe4     ................
    15a0:	fbe4fbe4 fbe4fbe4 fbe4fbe4 fbe4fbe4     ................
    15b0:	fbe4fbe4 fffffbe4 fbe4ffff fbe4fbe4     ................
    15c0:	fbe4fbe4 fbe4fbe4 fbe4fbe4 fbe4fbe4     ................
    15d0:	fbe4fbe4 fbe4fbe4 fbe4fbe4 fbe4fbe4     ................
    15e0:	fbe4fbe4 fbe4fbe4 fbe4fbe4 fbe4fbe4     ................
    15f0:	fbe4fbe4 fbe4ffff fbe4fbe4 fbe4fbe4     ................
    1600:	fbe4fbe4 fbe4fbe4 fbe4fbe4 fbe4fbe4     ................
    1610:	fbe4fbe4 fbe4fbe4 fbe4fbe4 fbe4fbe4     ................
    1620:	fbe4fbe4 fbe4fbe4 fbe4fbe4 fbe4fbe4     ................
    1630:	fffffbe4 fbe4fbe4 fbe4fbe4 fbe4fbe4     ................
    1640:	fbe4fbe4 fbe4fbe4 fbe4fbe4 fbe4fbe4     ................
    1650:	fbe4fbe4 fbe4fbe4 fbe4fbe4 fbe4fbe4     ................
    1660:	fbe4fbe4 fbe4fbe4 fffffbe4 fbe4ffff     ................
    1670:	fbe4fbe4 fbe4fbe4 fbe4fbe4 fbe4fbe4     ................
    1680:	fbe4fbe4 fbe4fbe4 fbe4fbe4 fbe4fbe4     ................
    1690:	fbe4fbe4 fbe4fbe4 fbe4fbe4 fbe4fbe4     ................
    16a0:	fbe4fbe4 fbe4fbe4 fbe4ffff fbe4fbe4     ................
    16b0:	fbe4fbe4 fbe4fbe4 fbe4fbe4 fbe4fbe4     ................
    16c0:	fbe4fbe4 fbe4fbe4 fbe4fbe4 fbe4fbe4     ................
    16d0:	fbe4fbe4 fbe4fbe4 fbe4fbe4 fbe4fbe4     ................
    16e0:	fbe4fbe4 fffffbe4 fbe4fbe4 fbe4fbe4     ................
    16f0:	fbe4fbe4 fbe4fbe4 fbe4fbe4 fbe4fbe4     ................
    1700:	fbe4fbe4 fbe4fbe4 fbe4fbe4 fbe4fbe4     ................
    1710:	fbe4fbe4 fbe4fbe4 fbe4fbe4 fffffbe4     ................
    1720:	fbe4ffff fbe4fbe4 fbe4fbe4 fbe4fbe4     ................
    1730:	fbe4fbe4 fbe4fbe4 fbe4fbe4 fbe4fbe4     ................
    1740:	fbe4fbe4 fbe4fbe4 fbe4fbe4 fbe4fbe4     ................
    1750:	fbe4fbe4 fbe4fbe4 fbe4fbe4 fbe4ffff     ................
    1760:	fbe4fbe4 fbe4fbe4 fbe4fbe4 fbe4fbe4     ................
    1770:	fbe4fbe4 fbe4fbe4 fbe4fbe4 fbe4fbe4     ................
    1780:	fbe4fbe4 fbe4fbe4 fbe4fbe4 fbe4fbe4     ................
    1790:	fbe4fbe4 fbe4fbe4 fffffbe4 fbe4fbe4     ................
    17a0:	fbe4fbe4 fbe4fbe4 fbe4fbe4 fbe4fbe4     ................
    17b0:	fbe4fbe4 fbe4fbe4 fbe4fbe4 fbe4fbe4     ................
    17c0:	fbe4fbe4 fbe4fbe4 fbe4fbe4 fbe4fbe4     ................
    17d0:	fffffbe4 fbe4ffff fbe4fbe4 fbe4fbe4     ................
    17e0:	fbe4fbe4 fbe4fbe4 fbe4fbe4 fbe4fbe4     ................
    17f0:	fbe4fbe4 fbe4fbe4 fbe4fbe4 fbe4fbe4     ................
    1800:	fbe4fbe4 fbe4fbe4 fbe4fbe4 fbe4fbe4     ................
    1810:	fbe4ffff fbe4fbe4 fbe4fbe4 fbe4fbe4     ................
    1820:	fbe4fbe4 fbe4fbe4 fbe4fbe4 fbe4fbe4     ................
    1830:	fbe4fbe4 fbe4fbe4 fbe4fbe4 fbe4fbe4     ................
    1840:	fbe4fbe4 fbe4fbe4 fbe4fbe4 fffffbe4     ................
    1850:	fbe4fbe4 fbe4fbe4 fbe4fbe4 fbe4fbe4     ................
    1860:	fbe4fbe4 fbe4fbe4 fbe4fbe4 fbe4fbe4     ................
    1870:	fbe4fbe4 fbe4fbe4 fbe4fbe4 fbe4fbe4     ................
    1880:	fbe4fbe4 fffffbe4 fbe4ffff fbe4fbe4     ................
    1890:	fbe4fbe4 fbe4fbe4 fbe4fbe4 fbe4fbe4     ................
    18a0:	fbe4fbe4 fbe4fbe4 fbe4fbe4 fbe4fbe4     ................
    18b0:	fbe4fbe4 fbe4fbe4 fbe4fbe4 fbe4fbe4     ................
    18c0:	fbe4fbe4 fbe4ffff fbe4fbe4 fbe4fbe4     ................
    18d0:	fbe4fbe4 fbe4fbe4 fbe4fbe4 fbe4fbe4     ................
    18e0:	fbe4fbe4 fbe4fbe4 fbe4fbe4 fbe4fbe4     ................
    18f0:	fbe4fbe4 fbe4fbe4 fbe4fbe4 fbe4fbe4     ................
    1900:	fffffbe4 fbe4fbe4 fbe4fbe4 fbe4fbe4     ................
    1910:	fbe4fbe4 fbe4fbe4 fbe4fbe4 fbe4fbe4     ................
    1920:	fbe4fbe4 fbe4fbe4 fbe4fbe4 fbe4fbe4     ................
    1930:	fbe4fbe4 fbe4fbe4 fffffbe4 fbe4ffff     ................
    1940:	fbe4fbe4 fbe4fbe4 fbe4fbe4 fbe4fbe4     ................
    1950:	fbe4fbe4 fbe4fbe4 fbe4fbe4 fbe4fbe4     ................
    1960:	fbe4fbe4 fbe4fbe4 fbe4fbe4 fbe4fbe4     ................
    1970:	fbe4fbe4 fbe4fbe4 fbe4ffff fbe4fbe4     ................
    1980:	fbe4fbe4 fbe4fbe4 fbe4fbe4 fbe4fbe4     ................
    1990:	fbe4fbe4 fbe4fbe4 fbe4fbe4 fbe4fbe4     ................
    19a0:	fbe4fbe4 fbe4fbe4 fbe4fbe4 fbe4fbe4     ................
    19b0:	fbe4fbe4 fffffbe4 fbe4fbe4 fbe4fbe4     ................
    19c0:	fbe4fbe4 fbe4fbe4 fbe4fbe4 fbe4fbe4     ................
    19d0:	fbe4fbe4 fbe4fbe4 fbe4fbe4 fbe4fbe4     ................
    19e0:	fbe4fbe4 fbe4fbe4 fbe4fbe4 fffffbe4     ................
    19f0:	fbe4ffff fbe4fbe4 fbe4fbe4 fbe4fbe4     ................
    1a00:	fbe4fbe4 fbe4fbe4 fbe4fbe4 fbe4fbe4     ................
    1a10:	fbe4fbe4 fbe4fbe4 fbe4fbe4 fbe4fbe4     ................
    1a20:	fbe4fbe4 fbe4fbe4 fbe4fbe4 fbe4ffff     ................
    1a30:	fbe4fbe4 fbe4fbe4 fbe4fbe4 fbe4fbe4     ................
    1a40:	fbe4fbe4 fbe4fbe4 fbe4fbe4 fbe4fbe4     ................
    1a50:	fbe4fbe4 fbe4fbe4 fbe4fbe4 fbe4fbe4     ................
    1a60:	fbe4fbe4 fbe4fbe4 fffffbe4 fbe4fbe4     ................
    1a70:	fbe4fbe4 fbe4fbe4 fbe4fbe4 fbe4fbe4     ................
    1a80:	fbe4fbe4 fbe4fbe4 fbe4fbe4 fbe4fbe4     ................
    1a90:	fbe4fbe4 fbe4fbe4 fbe4fbe4 fbe4fbe4     ................
    1aa0:	fffffbe4 fbe4ffff fbe4fbe4 fbe4fbe4     ................
    1ab0:	fbe4fbe4 fbe4fbe4 fbe4fbe4 fbe4fbe4     ................
    1ac0:	fbe4fbe4 fbe4fbe4 fbe4fbe4 fbe4fbe4     ................
    1ad0:	fbe4fbe4 fbe4fbe4 fbe4fbe4 fbe4fbe4     ................
    1ae0:	fbe4ffff fbe4fbe4 fbe4fbe4 fbe4fbe4     ................
    1af0:	fbe4fbe4 fbe4fbe4 fbe4fbe4 fbe4fbe4     ................
    1b00:	fbe4fbe4 fbe4fbe4 fbe4fbe4 fbe4fbe4     ................
    1b10:	fbe4fbe4 fbe4fbe4 fbe4fbe4 fffffbe4     ................
    1b20:	fbe4fbe4 fbe4fbe4 fbe4fbe4 fbe4fbe4     ................
    1b30:	fbe4fbe4 fbe4fbe4 fbe4fbe4 fbe4fbe4     ................
    1b40:	fbe4fbe4 fbe4fbe4 fbe4fbe4 fbe4fbe4     ................
    1b50:	fbe4fbe4 fffffbe4 fbe4ffff fbe4fbe4     ................
    1b60:	fbe4fbe4 fbe4fbe4 fbe4fbe4 fbe4fbe4     ................
    1b70:	fbe4fbe4 fbe4fbe4 fbe4fbe4 fbe4fbe4     ................
    1b80:	fbe4fbe4 fbe4fbe4 fbe4fbe4 fbe4fbe4     ................
    1b90:	fbe4fbe4 fbe4ffff fbe4fbe4 fbe4fbe4     ................
    1ba0:	fbe4fbe4 fbe4fbe4 fbe4fbe4 fbe4fbe4     ................
    1bb0:	fbe4fbe4 fbe4fbe4 fbe4fbe4 fbe4fbe4     ................
    1bc0:	fbe4fbe4 fbe4fbe4 fbe4fbe4 fbe4fbe4     ................
    1bd0:	fffffbe4 fbe4fbe4 fbe4fbe4 fbe4fbe4     ................
    1be0:	fbe4fbe4 fbe4fbe4 fbe4fbe4 fbe4fbe4     ................
    1bf0:	fbe4fbe4 fbe4fbe4 fbe4fbe4 fbe4fbe4     ................
    1c00:	fbe4fbe4 fbe4fbe4 fffffbe4 fbe4ffff     ................
    1c10:	fbe4fbe4 fbe4fbe4 fbe4fbe4 fbe4fbe4     ................
    1c20:	fbe4fbe4 fbe4fbe4 fbe4fbe4 fbe4fbe4     ................
    1c30:	fbe4fbe4 fbe4fbe4 fbe4fbe4 fbe4fbe4     ................
    1c40:	fbe4fbe4 fbe4fbe4 fbe4ffff fbe4fbe4     ................
    1c50:	fbe4fbe4 fbe4fbe4 fbe4fbe4 fbe4fbe4     ................
    1c60:	fbe4fbe4 fbe4fbe4 fbe4fbe4 fbe4fbe4     ................
    1c70:	fbe4fbe4 fbe4fbe4 fbe4fbe4 fbe4fbe4     ................
    1c80:	fbe4fbe4 fffffbe4 fbe4fbe4 fbe4fbe4     ................
    1c90:	fbe4fbe4 fbe4fbe4 fbe4fbe4 fbe4fbe4     ................
    1ca0:	fbe4fbe4 fbe4fbe4 fbe4fbe4 fbe4fbe4     ................
    1cb0:	fbe4fbe4 fbe4fbe4 fbe4fbe4 fffffbe4     ................
    1cc0:	fbe4ffff fbe4fbe4 fbe4fbe4 fbe4fbe4     ................
    1cd0:	fbe4fbe4 fbe4fbe4 fbe4fbe4 fbe4fbe4     ................
    1ce0:	fbe4fbe4 fbe4fbe4 fbe4fbe4 fbe4fbe4     ................
    1cf0:	fbe4fbe4 fbe4fbe4 fbe4fbe4 fbe4ffff     ................
    1d00:	fbe4fbe4 fbe4fbe4 fbe4fbe4 fbe4fbe4     ................
    1d10:	fbe4fbe4 fbe4fbe4 fbe4fbe4 fbe4fbe4     ................
    1d20:	fbe4fbe4 fbe4fbe4 fbe4fbe4 fbe4fbe4     ................
    1d30:	fbe4fbe4 fbe4fbe4 fffffbe4 fbe4fbe4     ................
    1d40:	fbe4fbe4 fbe4fbe4 fbe4fbe4 fbe4fbe4     ................
    1d50:	fbe4fbe4 fbe4fbe4 fbe4fbe4 fbe4fbe4     ................
    1d60:	fbe4fbe4 fbe4fbe4 fbe4fbe4 fbe4fbe4     ................
    1d70:	fffffbe4 fbe4ffff fbe4fbe4 fbe4fbe4     ................
    1d80:	fbe4fbe4 fbe4fbe4 fbe4fbe4 fbe4fbe4     ................
    1d90:	fbe4fbe4 fbe4fbe4 fbe4fbe4 fbe4fbe4     ................
    1da0:	fbe4fbe4 fbe4fbe4 fbe4fbe4 fbe4fbe4     ................
    1db0:	fbe4ffff fbe4fbe4 fbe4fbe4 fbe4fbe4     ................
    1dc0:	fbe4fbe4 fbe4fbe4 fbe4fbe4 fbe4fbe4     ................
    1dd0:	fbe4fbe4 fbe4fbe4 fbe4fbe4 fbe4fbe4     ................
    1de0:	fbe4fbe4 fbe4fbe4 fbe4fbe4 fffffbe4     ................
    1df0:	fbe4fbe4 fbe4fbe4 fbe4fbe4 fbe4fbe4     ................
    1e00:	fbe4fbe4 fbe4fbe4 fbe4fbe4 fbe4fbe4     ................
    1e10:	fbe4fbe4 fbe4fbe4 fbe4fbe4 fbe4fbe4     ................
    1e20:	fbe4fbe4 fffffbe4 fbe4ffff fbe4fbe4     ................
    1e30:	fbe4fbe4 fbe4fbe4 fbe4fbe4 fbe4fbe4     ................
    1e40:	fbe4fbe4 fbe4fbe4 fbe4fbe4 fbe4fbe4     ................
    1e50:	fbe4fbe4 fbe4fbe4 fbe4fbe4 fbe4fbe4     ................
    1e60:	fbe4fbe4 fbe4ffff fbe4fbe4 fbe4fbe4     ................
    1e70:	fbe4fbe4 fbe4fbe4 fbe4fbe4 fbe4fbe4     ................
    1e80:	fbe4fbe4 fbe4fbe4 fbe4fbe4 fbe4fbe4     ................
    1e90:	fbe4fbe4 fbe4fbe4 fbe4fbe4 fbe4fbe4     ................
    1ea0:	fffffbe4 fbe4fbe4 fbe4fbe4 fbe4fbe4     ................
    1eb0:	fbe4fbe4 fbe4fbe4 fbe4fbe4 fbe4fbe4     ................
    1ec0:	fbe4fbe4 fbe4fbe4 fbe4fbe4 fbe4fbe4     ................
    1ed0:	fbe4fbe4 fbe4fbe4 fffffbe4 fbe4ffff     ................
    1ee0:	fbe4fbe4 fbe4fbe4 fbe4fbe4 fbe4fbe4     ................
    1ef0:	fbe4fbe4 fbe4fbe4 fbe4fbe4 fbe4fbe4     ................
    1f00:	fbe4fbe4 fbe4fbe4 fbe4fbe4 fbe4fbe4     ................
    1f10:	fbe4fbe4 fbe4fbe4 fbe4ffff fbe4fbe4     ................
    1f20:	fbe4fbe4 fbe4fbe4 fbe4fbe4 fbe4fbe4     ................
    1f30:	fbe4fbe4 fbe4fbe4 fbe4fbe4 fbe4fbe4     ................
    1f40:	fbe4fbe4 fbe4fbe4 fbe4fbe4 fbe4fbe4     ................
    1f50:	fbe4fbe4 fffffbe4 fbe4fbe4 fbe4fbe4     ................
    1f60:	fbe4fbe4 fbe4fbe4 fbe4fbe4 fbe4fbe4     ................
    1f70:	fbe4fbe4 fbe4fbe4 fbe4fbe4 fbe4fbe4     ................
    1f80:	fbe4fbe4 fbe4fbe4 fbe4fbe4 fffffbe4     ................
    1f90:	fbe4ffff fbe4fbe4 fbe4fbe4 fbe4fbe4     ................
    1fa0:	fbe4fbe4 fbe4fbe4 fbe4fbe4 fbe4fbe4     ................
    1fb0:	fbe4fbe4 fbe4fbe4 fbe4fbe4 fbe4fbe4     ................
    1fc0:	fbe4fbe4 fbe4fbe4 fbe4fbe4 fbe4ffff     ................
    1fd0:	fbe4fbe4 fbe4fbe4 fbe4fbe4 fbe4fbe4     ................
    1fe0:	fbe4fbe4 fbe4fbe4 fbe4fbe4 fbe4fbe4     ................
    1ff0:	fbe4fbe4 fbe4fbe4 fbe4fbe4 fbe4fbe4     ................
    2000:	fbe4fbe4 fbe4fbe4 fffffbe4 fbe4fbe4     ................
    2010:	fbe4fbe4 fbe4fbe4 fbe4fbe4 fbe4fbe4     ................
    2020:	fbe4fbe4 fbe4fbe4 fbe4fbe4 fbe4fbe4     ................
    2030:	fbe4fbe4 fbe4fbe4 fbe4fbe4 fbe4fbe4     ................
    2040:	fffffbe4 fbe4ffff fbe4fbe4 fbe4fbe4     ................
    2050:	fbe4fbe4 fbe4fbe4 fbe4fbe4 fbe4fbe4     ................
    2060:	fbe4fbe4 fbe4fbe4 fbe4fbe4 fbe4fbe4     ................
    2070:	fbe4fbe4 fbe4fbe4 fbe4fbe4 fbe4fbe4     ................
    2080:	fbe4ffff fbe4fbe4 fbe4fbe4 fbe4fbe4     ................
    2090:	fbe4fbe4 fbe4fbe4 fbe4fbe4 fbe4fbe4     ................
    20a0:	fbe4fbe4 fbe4fbe4 fbe4fbe4 fbe4fbe4     ................
    20b0:	fbe4fbe4 fbe4fbe4 fbe4fbe4 fffffbe4     ................
    20c0:	fbe4fbe4 fbe4fbe4 fbe4fbe4 fbe4fbe4     ................
    20d0:	fbe4fbe4 fbe4fbe4 fbe4fbe4 fbe4fbe4     ................
    20e0:	fbe4fbe4 fbe4fbe4 fbe4fbe4 fbe4fbe4     ................
    20f0:	fbe4fbe4 fffffbe4 fbe4ffff fbe4fbe4     ................
    2100:	fbe4fbe4 fbe4fbe4 fbe4fbe4 fbe4fbe4     ................
    2110:	fbe4fbe4 fbe4fbe4 fbe4fbe4 fbe4fbe4     ................
    2120:	fbe4fbe4 fbe4fbe4 fbe4fbe4 fbe4fbe4     ................
    2130:	fbe4fbe4 fbe4ffff fbe4fbe4 fbe4fbe4     ................
    2140:	fbe4fbe4 fbe4fbe4 fbe4fbe4 fbe4fbe4     ................
    2150:	fbe4fbe4 fbe4fbe4 fbe4fbe4 fbe4fbe4     ................
    2160:	fbe4fbe4 fbe4fbe4 fbe4fbe4 fbe4fbe4     ................
    2170:	fffffbe4 fbe4fbe4 fbe4fbe4 fbe4fbe4     ................
    2180:	fbe4fbe4 fbe4fbe4 fbe4fbe4 fbe4fbe4     ................
    2190:	fbe4fbe4 fbe4fbe4 fbe4fbe4 fbe4fbe4     ................
    21a0:	fbe4fbe4 fbe4fbe4 fffffbe4 fbe4ffff     ................
    21b0:	fbe4fbe4 fbe4fbe4 fbe4fbe4 fbe4fbe4     ................
    21c0:	fbe4fbe4 fbe4fbe4 fbe4fbe4 fbe4fbe4     ................
    21d0:	fbe4fbe4 fbe4fbe4 fbe4fbe4 fbe4fbe4     ................
    21e0:	fbe4fbe4 fbe4fbe4 fbe4ffff fbe4fbe4     ................
    21f0:	fbe4fbe4 fbe4fbe4 fbe4fbe4 fbe4fbe4     ................
    2200:	fbe4fbe4 fbe4fbe4 fbe4fbe4 fbe4fbe4     ................
    2210:	fbe4fbe4 fbe4fbe4 fbe4fbe4 fbe4fbe4     ................
    2220:	fbe4fbe4 fffffbe4 fbe4fbe4 fbe4fbe4     ................
    2230:	fbe4fbe4 fbe4fbe4 fbe4fbe4 fbe4fbe4     ................
    2240:	fbe4fbe4 fbe4fbe4 fbe4fbe4 fbe4fbe4     ................
    2250:	fbe4fbe4 fbe4fbe4 fbe4fbe4 fffffbe4     ................
    2260:	fbe4ffff fbe4fbe4 fbe4fbe4 fbe4fbe4     ................
    2270:	fbe4fbe4 fbe4fbe4 fbe4fbe4 fbe4fbe4     ................
    2280:	fbe4fbe4 fbe4fbe4 fbe4fbe4 fbe4fbe4     ................
    2290:	fbe4fbe4 fbe4fbe4 fbe4fbe4 fbe4ffff     ................
    22a0:	fbe4fbe4 fbe4fbe4 fbe4fbe4 fbe4fbe4     ................
    22b0:	fbe4fbe4 fbe4fbe4 fbe4fbe4 fbe4fbe4     ................
    22c0:	fbe4fbe4 fbe4fbe4 fbe4fbe4 fbe4fbe4     ................
    22d0:	fbe4fbe4 fbe4fbe4 fffffbe4 fbe4fbe4     ................
    22e0:	fbe4fbe4 fbe4fbe4 fbe4fbe4 fbe4fbe4     ................
    22f0:	fbe4fbe4 fbe4fbe4 fbe4fbe4 fbe4fbe4     ................
    2300:	fbe4fbe4 fbe4fbe4 fbe4fbe4 fbe4fbe4     ................
    2310:	fffffbe4 fbe4ffff fbe4fbe4 fbe4fbe4     ................
    2320:	fbe4fbe4 fbe4fbe4 fbe4fbe4 fbe4fbe4     ................
    2330:	fbe4fbe4 fbe4fbe4 fbe4fbe4 fbe4fbe4     ................
    2340:	fbe4fbe4 fbe4fbe4 fbe4fbe4 fbe4fbe4     ................
    2350:	fbe4ffff fbe4fbe4 fbe4fbe4 fbe4fbe4     ................
    2360:	fbe4fbe4 fbe4fbe4 fbe4fbe4 fbe4fbe4     ................
    2370:	fbe4fbe4 fbe4fbe4 fbe4fbe4 fbe4fbe4     ................
    2380:	fbe4fbe4 fbe4fbe4 fbe4fbe4 fffffbe4     ................
    2390:	fbe4fbe4 fbe4fbe4 fbe4fbe4 fbe4fbe4     ................
    23a0:	fbe4fbe4 fbe4fbe4 fbe4fbe4 fbe4fbe4     ................
    23b0:	fbe4fbe4 fbe4fbe4 fbe4fbe4 fbe4fbe4     ................
    23c0:	fbe4fbe4 fffffbe4 fbe4ffff fbe4fbe4     ................
    23d0:	fbe4fbe4 fbe4fbe4 fbe4fbe4 fbe4fbe4     ................
    23e0:	fbe4fbe4 fbe4fbe4 fbe4fbe4 fbe4fbe4     ................
    23f0:	fbe4fbe4 fbe4fbe4 fbe4fbe4 fbe4fbe4     ................
    2400:	fbe4fbe4 fbe4ffff fbe4fbe4 fbe4fbe4     ................
    2410:	fbe4fbe4 fbe4fbe4 fbe4fbe4 fbe4fbe4     ................
    2420:	fbe4fbe4 fbe4fbe4 fbe4fbe4 fbe4fbe4     ................
    2430:	fbe4fbe4 fbe4fbe4 fbe4fbe4 fbe4fbe4     ................
    2440:	fffffbe4 fbe4fbe4 fbe4fbe4 fbe4fbe4     ................
    2450:	fbe4fbe4 fbe4fbe4 fbe4fbe4 fbe4fbe4     ................
    2460:	fbe4fbe4 fbe4fbe4 fbe4fbe4 fbe4fbe4     ................
    2470:	fbe4fbe4 fbe4fbe4 fffffbe4 fbe4ffff     ................
    2480:	fbe4fbe4 fbe4fbe4 fbe4fbe4 fbe4fbe4     ................
    2490:	fbe4fbe4 fbe4fbe4 fbe4fbe4 fbe4fbe4     ................
    24a0:	fbe4fbe4 fbe4fbe4 fbe4fbe4 fbe4fbe4     ................
    24b0:	fbe4fbe4 fbe4fbe4 fbe4ffff fbe4fbe4     ................
    24c0:	fbe4fbe4 fbe4fbe4 fbe4fbe4 fbe4fbe4     ................
    24d0:	fbe4fbe4 fbe4fbe4 fbe4fbe4 fbe4fbe4     ................
    24e0:	fbe4fbe4 fbe4fbe4 fbe4fbe4 fbe4fbe4     ................
    24f0:	fbe4fbe4 fffffbe4 fbe4fbe4 fbe4fbe4     ................
    2500:	fbe4fbe4 fbe4fbe4 fbe4fbe4 fbe4fbe4     ................
    2510:	fbe4fbe4 fbe4fbe4 fbe4fbe4 fbe4fbe4     ................
    2520:	fbe4fbe4 fbe4fbe4 fbe4fbe4 fffffbe4     ................
    2530:	fbe4ffff fbe4fbe4 fbe4fbe4 fbe4fbe4     ................
    2540:	fbe4fbe4 fbe4fbe4 fbe4fbe4 fbe4fbe4     ................
    2550:	fbe4fbe4 fbe4fbe4 fbe4fbe4 fbe4fbe4     ................
    2560:	fbe4fbe4 fbe4fbe4 fbe4fbe4 fbe4ffff     ................
    2570:	fbe4fbe4 fbe4fbe4 fbe4fbe4 fbe4fbe4     ................
    2580:	fbe4fbe4 fbe4fbe4 fbe4fbe4 fbe4fbe4     ................
    2590:	fbe4fbe4 fbe4fbe4 fbe4fbe4 fbe4fbe4     ................
    25a0:	fbe4fbe4 fbe4fbe4 fffffbe4 fbe4fbe4     ................
    25b0:	fbe4fbe4 fbe4fbe4 fbe4fbe4 fbe4fbe4     ................
    25c0:	fbe4fbe4 fbe4fbe4 fbe4fbe4 fbe4fbe4     ................
    25d0:	fbe4fbe4 fbe4fbe4 fbe4fbe4 fbe4fbe4     ................
    25e0:	fffffbe4 fbe4ffff fbe4fbe4 fbe4fbe4     ................
    25f0:	fbe4fbe4 fbe4fbe4 fbe4fbe4 fbe4fbe4     ................
    2600:	fbe4fbe4 fbe4fbe4 fbe4fbe4 fbe4fbe4     ................
    2610:	fbe4fbe4 fbe4fbe4 fbe4fbe4 fbe4fbe4     ................
    2620:	fbe4ffff fbe4fbe4 fbe4fbe4 fbe4fbe4     ................
    2630:	fbe4fbe4 fbe4fbe4 fbe4fbe4 fbe4fbe4     ................
    2640:	fbe4fbe4 fbe4fbe4 fbe4fbe4 fbe4fbe4     ................
    2650:	fbe4fbe4 fbe4fbe4 fbe4fbe4 fffffbe4     ................
    2660:	fbe4fbe4 fbe4fbe4 fbe4fbe4 fbe4fbe4     ................
    2670:	fbe4fbe4 fbe4fbe4 fbe4fbe4 fbe4fbe4     ................
    2680:	fbe4fbe4 fbe4fbe4 fbe4fbe4 fbe4fbe4     ................
    2690:	fbe4fbe4 fffffbe4 ffffffff ffffffff     ................
    26a0:	ffffffff ffffffff ffffffff ffffffff     ................
    26b0:	ffffffff ffffffff ffffffff ffffffff     ................
    26c0:	ffffffff ffffffff ffffffff ffffffff     ................
    26d0:	ffffffff ffffffff ffffffff ffffffff     ................
    26e0:	ffffffff ffffffff ffffffff ffffffff     ................
    26f0:	ffffffff ffffffff ffffffff ffffffff     ................
    2700:	ffffffff ffffffff ffffffff ffffffff     ................
    2710:	ffffffff ffffffff ffffffff ffffffff     ................
    2720:	ffffffff ffffffff ffffffff ffffffff     ................
    2730:	ffffffff ffffffff ffffffff ffffffff     ................
    2740:	ffffffff ffffffff ffffffff fbe4ffff     ................
    2750:	fbe4fbe4 fbe4fbe4 fbe4fbe4 fbe4fbe4     ................
    2760:	fbe4fbe4 fbe4fbe4 fbe4fbe4 fbe4fbe4     ................
    2770:	fbe4fbe4 fbe4fbe4 fbe4fbe4 fbe4fbe4     ................
    2780:	fbe4fbe4 fbe4fbe4 fbe4ffff fbe4fbe4     ................
    2790:	fbe4fbe4 fbe4fbe4 fbe4fbe4 fbe4fbe4     ................
    27a0:	fbe4fbe4 fbe4fbe4 fbe4fbe4 fbe4fbe4     ................
    27b0:	fbe4fbe4 fbe4fbe4 fbe4fbe4 fbe4fbe4     ................
    27c0:	fbe4fbe4 fffffbe4 fbe4fbe4 fbe4fbe4     ................
    27d0:	fbe4fbe4 fbe4fbe4 fbe4fbe4 fbe4fbe4     ................
    27e0:	fbe4fbe4 fbe4fbe4 fbe4fbe4 fbe4fbe4     ................
    27f0:	fbe4fbe4 fbe4fbe4 fbe4fbe4 fffffbe4     ................
    2800:	fbe4ffff fbe4fbe4 fbe4fbe4 fbe4fbe4     ................
    2810:	fbe4fbe4 fbe4fbe4 fbe4fbe4 fbe4fbe4     ................
    2820:	fbe4fbe4 fbe4fbe4 fbe4fbe4 fbe4fbe4     ................
    2830:	fbe4fbe4 fbe4fbe4 fbe4fbe4 fbe4ffff     ................
    2840:	fbe4fbe4 fbe4fbe4 fbe4fbe4 fbe4fbe4     ................
    2850:	fbe4fbe4 fbe4fbe4 fbe4fbe4 fbe4fbe4     ................
    2860:	fbe4fbe4 fbe4fbe4 fbe4fbe4 fbe4fbe4     ................
    2870:	fbe4fbe4 fbe4fbe4 fffffbe4 fbe4fbe4     ................
    2880:	fbe4fbe4 fbe4fbe4 fbe4fbe4 fbe4fbe4     ................
    2890:	fbe4fbe4 fbe4fbe4 fbe4fbe4 fbe4fbe4     ................
    28a0:	fbe4fbe4 fbe4fbe4 fbe4fbe4 fbe4fbe4     ................
    28b0:	fffffbe4 fbe4ffff fbe4fbe4 fbe4fbe4     ................
    28c0:	fbe4fbe4 fbe4fbe4 fbe4fbe4 fbe4fbe4     ................
    28d0:	fbe4fbe4 fbe4fbe4 fbe4fbe4 fbe4fbe4     ................
    28e0:	fbe4fbe4 fbe4fbe4 fbe4fbe4 fbe4fbe4     ................
    28f0:	fbe4ffff fbe4fbe4 fbe4fbe4 fbe4fbe4     ................
    2900:	fbe4fbe4 fbe4fbe4 fbe4fbe4 fbe4fbe4     ................
    2910:	fbe4fbe4 fbe4fbe4 fbe4fbe4 fbe4fbe4     ................
    2920:	fbe4fbe4 fbe4fbe4 fbe4fbe4 fffffbe4     ................
    2930:	fbe4fbe4 fbe4fbe4 fbe4fbe4 fbe4fbe4     ................
    2940:	fbe4fbe4 fbe4fbe4 fbe4fbe4 fbe4fbe4     ................
    2950:	fbe4fbe4 fbe4fbe4 fbe4fbe4 fbe4fbe4     ................
    2960:	fbe4fbe4 fffffbe4 fbe4ffff fbe4fbe4     ................
    2970:	fbe4fbe4 fbe4fbe4 fbe4fbe4 fbe4fbe4     ................
    2980:	fbe4fbe4 fbe4fbe4 fbe4fbe4 fbe4fbe4     ................
    2990:	fbe4fbe4 fbe4fbe4 fbe4fbe4 fbe4fbe4     ................
    29a0:	fbe4fbe4 fbe4ffff fbe4fbe4 fbe4fbe4     ................
    29b0:	fbe4fbe4 fbe4fbe4 fbe4fbe4 fbe4fbe4     ................
    29c0:	fbe4fbe4 fbe4fbe4 fbe4fbe4 fbe4fbe4     ................
    29d0:	fbe4fbe4 fbe4fbe4 fbe4fbe4 fbe4fbe4     ................
    29e0:	fffffbe4 fbe4fbe4 fbe4fbe4 fbe4fbe4     ................
    29f0:	fbe4fbe4 fbe4fbe4 fbe4fbe4 fbe4fbe4     ................
    2a00:	fbe4fbe4 fbe4fbe4 fbe4fbe4 fbe4fbe4     ................
    2a10:	fbe4fbe4 fbe4fbe4 fffffbe4 fbe4ffff     ................
    2a20:	fbe4fbe4 fbe4fbe4 fbe4fbe4 fbe4fbe4     ................
    2a30:	fbe4fbe4 fbe4fbe4 fbe4fbe4 fbe4fbe4     ................
    2a40:	fbe4fbe4 fbe4fbe4 fbe4fbe4 fbe4fbe4     ................
    2a50:	fbe4fbe4 fbe4fbe4 fbe4ffff fbe4fbe4     ................
    2a60:	fbe4fbe4 fbe4fbe4 fbe4fbe4 fbe4fbe4     ................
    2a70:	fbe4fbe4 fbe4fbe4 fbe4fbe4 fbe4fbe4     ................
    2a80:	fbe4fbe4 fbe4fbe4 fbe4fbe4 fbe4fbe4     ................
    2a90:	fbe4fbe4 fffffbe4 fbe4fbe4 fbe4fbe4     ................
    2aa0:	fbe4fbe4 fbe4fbe4 fbe4fbe4 fbe4fbe4     ................
    2ab0:	fbe4fbe4 fbe4fbe4 fbe4fbe4 fbe4fbe4     ................
    2ac0:	fbe4fbe4 fbe4fbe4 fbe4fbe4 fffffbe4     ................
    2ad0:	fbe4ffff fbe4fbe4 fbe4fbe4 fbe4fbe4     ................
    2ae0:	fbe4fbe4 fbe4fbe4 fbe4fbe4 fbe4fbe4     ................
    2af0:	fbe4fbe4 fbe4fbe4 fbe4fbe4 fbe4fbe4     ................
    2b00:	fbe4fbe4 fbe4fbe4 fbe4fbe4 fbe4ffff     ................
    2b10:	fbe4fbe4 fbe4fbe4 fbe4fbe4 fbe4fbe4     ................
    2b20:	fbe4fbe4 fbe4fbe4 fbe4fbe4 fbe4fbe4     ................
    2b30:	fbe4fbe4 fbe4fbe4 fbe4fbe4 fbe4fbe4     ................
    2b40:	fbe4fbe4 fbe4fbe4 fffffbe4 fbe4fbe4     ................
    2b50:	fbe4fbe4 fbe4fbe4 fbe4fbe4 fbe4fbe4     ................
    2b60:	fbe4fbe4 fbe4fbe4 fbe4fbe4 fbe4fbe4     ................
    2b70:	fbe4fbe4 fbe4fbe4 fbe4fbe4 fbe4fbe4     ................
    2b80:	fffffbe4 fbe4ffff fbe4fbe4 fbe4fbe4     ................
    2b90:	fbe4fbe4 fbe4fbe4 fbe4fbe4 fbe4fbe4     ................
    2ba0:	fbe4fbe4 fbe4fbe4 fbe4fbe4 fbe4fbe4     ................
    2bb0:	fbe4fbe4 fbe4fbe4 fbe4fbe4 fbe4fbe4     ................
    2bc0:	fbe4ffff fbe4fbe4 fbe4fbe4 fbe4fbe4     ................
    2bd0:	fbe4fbe4 fbe4fbe4 fbe4fbe4 fbe4fbe4     ................
    2be0:	fbe4fbe4 fbe4fbe4 fbe4fbe4 fbe4fbe4     ................
    2bf0:	fbe4fbe4 fbe4fbe4 fbe4fbe4 fffffbe4     ................
    2c00:	fbe4fbe4 fbe4fbe4 fbe4fbe4 fbe4fbe4     ................
    2c10:	fbe4fbe4 fbe4fbe4 fbe4fbe4 fbe4fbe4     ................
    2c20:	fbe4fbe4 fbe4fbe4 fbe4fbe4 fbe4fbe4     ................
    2c30:	fbe4fbe4 fffffbe4 fbe4ffff fbe4fbe4     ................
    2c40:	fbe4fbe4 fbe4fbe4 fbe4fbe4 fbe4fbe4     ................
    2c50:	fbe4fbe4 fbe4fbe4 fbe4fbe4 fbe4fbe4     ................
    2c60:	fbe4fbe4 fbe4fbe4 fbe4fbe4 fbe4fbe4     ................
    2c70:	fbe4fbe4 fbe4ffff fbe4fbe4 fbe4fbe4     ................
    2c80:	fbe4fbe4 fbe4fbe4 fbe4fbe4 fbe4fbe4     ................
    2c90:	fbe4fbe4 fbe4fbe4 fbe4fbe4 fbe4fbe4     ................
    2ca0:	fbe4fbe4 fbe4fbe4 fbe4fbe4 fbe4fbe4     ................
    2cb0:	fffffbe4 fbe4fbe4 fbe4fbe4 fbe4fbe4     ................
    2cc0:	fbe4fbe4 fbe4fbe4 fbe4fbe4 fbe4fbe4     ................
    2cd0:	fbe4fbe4 fbe4fbe4 fbe4fbe4 fbe4fbe4     ................
    2ce0:	fbe4fbe4 fbe4fbe4 fffffbe4 fbe4ffff     ................
    2cf0:	fbe4fbe4 fbe4fbe4 fbe4fbe4 fbe4fbe4     ................
    2d00:	fbe4fbe4 fbe4fbe4 fbe4fbe4 fbe4fbe4     ................
    2d10:	fbe4fbe4 fbe4fbe4 fbe4fbe4 fbe4fbe4     ................
    2d20:	fbe4fbe4 fbe4fbe4 fbe4ffff fbe4fbe4     ................
    2d30:	fbe4fbe4 fbe4fbe4 fbe4fbe4 fbe4fbe4     ................
    2d40:	fbe4fbe4 fbe4fbe4 fbe4fbe4 fbe4fbe4     ................
    2d50:	fbe4fbe4 fbe4fbe4 fbe4fbe4 fbe4fbe4     ................
    2d60:	fbe4fbe4 fffffbe4 fbe4fbe4 fbe4fbe4     ................
    2d70:	fbe4fbe4 fbe4fbe4 fbe4fbe4 fbe4fbe4     ................
    2d80:	fbe4fbe4 fbe4fbe4 fbe4fbe4 fbe4fbe4     ................
    2d90:	fbe4fbe4 fbe4fbe4 fbe4fbe4 fffffbe4     ................
    2da0:	fbe4ffff fbe4fbe4 fbe4fbe4 fbe4fbe4     ................
    2db0:	fbe4fbe4 fbe4fbe4 fbe4fbe4 fbe4fbe4     ................
    2dc0:	fbe4fbe4 fbe4fbe4 fbe4fbe4 fbe4fbe4     ................
    2dd0:	fbe4fbe4 fbe4fbe4 fbe4fbe4 fbe4ffff     ................
    2de0:	fbe4fbe4 fbe4fbe4 fbe4fbe4 fbe4fbe4     ................
    2df0:	fbe4fbe4 fbe4fbe4 fbe4fbe4 fbe4fbe4     ................
    2e00:	fbe4fbe4 fbe4fbe4 fbe4fbe4 fbe4fbe4     ................
    2e10:	fbe4fbe4 fbe4fbe4 fffffbe4 fbe4fbe4     ................
    2e20:	fbe4fbe4 fbe4fbe4 fbe4fbe4 fbe4fbe4     ................
    2e30:	fbe4fbe4 fbe4fbe4 fbe4fbe4 fbe4fbe4     ................
    2e40:	fbe4fbe4 fbe4fbe4 fbe4fbe4 fbe4fbe4     ................
    2e50:	fffffbe4 fbe4ffff fbe4fbe4 fbe4fbe4     ................
    2e60:	fbe4fbe4 fbe4fbe4 fbe4fbe4 fbe4fbe4     ................
    2e70:	fbe4fbe4 fbe4fbe4 fbe4fbe4 fbe4fbe4     ................
    2e80:	fbe4fbe4 fbe4fbe4 fbe4fbe4 fbe4fbe4     ................
    2e90:	fbe4ffff fbe4fbe4 fbe4fbe4 fbe4fbe4     ................
    2ea0:	fbe4fbe4 fbe4fbe4 fbe4fbe4 fbe4fbe4     ................
    2eb0:	fbe4fbe4 fbe4fbe4 fbe4fbe4 fbe4fbe4     ................
    2ec0:	fbe4fbe4 fbe4fbe4 fbe4fbe4 fffffbe4     ................
    2ed0:	fbe4fbe4 fbe4fbe4 fbe4fbe4 fbe4fbe4     ................
    2ee0:	fbe4fbe4 fbe4fbe4 fbe4fbe4 fbe4fbe4     ................
    2ef0:	fbe4fbe4 fbe4fbe4 fbe4fbe4 fbe4fbe4     ................
    2f00:	fbe4fbe4 fffffbe4 fbe4ffff fbe4fbe4     ................
    2f10:	fbe4fbe4 fbe4fbe4 fbe4fbe4 fbe4fbe4     ................
    2f20:	fbe4fbe4 fbe4fbe4 fbe4fbe4 fbe4fbe4     ................
    2f30:	fbe4fbe4 fbe4fbe4 fbe4fbe4 fbe4fbe4     ................
    2f40:	fbe4fbe4 fbe4ffff fbe4fbe4 fbe4fbe4     ................
    2f50:	fbe4fbe4 fbe4fbe4 fbe4fbe4 fbe4fbe4     ................
    2f60:	fbe4fbe4 fbe4fbe4 fbe4fbe4 fbe4fbe4     ................
    2f70:	fbe4fbe4 fbe4fbe4 fbe4fbe4 fbe4fbe4     ................
    2f80:	fffffbe4 fbe4fbe4 fbe4fbe4 fbe4fbe4     ................
    2f90:	fbe4fbe4 fbe4fbe4 fbe4fbe4 fbe4fbe4     ................
    2fa0:	fbe4fbe4 fbe4fbe4 fbe4fbe4 fbe4fbe4     ................
    2fb0:	fbe4fbe4 fbe4fbe4 fffffbe4 fbe4ffff     ................
    2fc0:	fbe4fbe4 fbe4fbe4 fbe4fbe4 fbe4fbe4     ................
    2fd0:	fbe4fbe4 fbe4fbe4 fbe4fbe4 fbe4fbe4     ................
    2fe0:	fbe4fbe4 fbe4fbe4 fbe4fbe4 fbe4fbe4     ................
    2ff0:	fbe4fbe4 fbe4fbe4 fbe4ffff fbe4fbe4     ................
    3000:	fbe4fbe4 fbe4fbe4 fbe4fbe4 fbe4fbe4     ................
    3010:	fbe4fbe4 fbe4fbe4 fbe4fbe4 fbe4fbe4     ................
    3020:	fbe4fbe4 fbe4fbe4 fbe4fbe4 fbe4fbe4     ................
    3030:	fbe4fbe4 fffffbe4 fbe4fbe4 fbe4fbe4     ................
    3040:	fbe4fbe4 fbe4fbe4 fbe4fbe4 fbe4fbe4     ................
    3050:	fbe4fbe4 fbe4fbe4 fbe4fbe4 fbe4fbe4     ................
    3060:	fbe4fbe4 fbe4fbe4 fbe4fbe4 fffffbe4     ................
    3070:	fbe4ffff fbe4fbe4 fbe4fbe4 fbe4fbe4     ................
    3080:	fbe4fbe4 fbe4fbe4 fbe4fbe4 fbe4fbe4     ................
    3090:	fbe4fbe4 fbe4fbe4 fbe4fbe4 fbe4fbe4     ................
    30a0:	fbe4fbe4 fbe4fbe4 fbe4fbe4 fbe4ffff     ................
    30b0:	fbe4fbe4 fbe4fbe4 fbe4fbe4 fbe4fbe4     ................
    30c0:	fbe4fbe4 fbe4fbe4 fbe4fbe4 fbe4fbe4     ................
    30d0:	fbe4fbe4 fbe4fbe4 fbe4fbe4 fbe4fbe4     ................
    30e0:	fbe4fbe4 fbe4fbe4 fffffbe4 fbe4fbe4     ................
    30f0:	fbe4fbe4 fbe4fbe4 fbe4fbe4 fbe4fbe4     ................
    3100:	fbe4fbe4 fbe4fbe4 fbe4fbe4 fbe4fbe4     ................
    3110:	fbe4fbe4 fbe4fbe4 fbe4fbe4 fbe4fbe4     ................
    3120:	fffffbe4 fbe4ffff fbe4fbe4 fbe4fbe4     ................
    3130:	fbe4fbe4 fbe4fbe4 fbe4fbe4 fbe4fbe4     ................
    3140:	fbe4fbe4 fbe4fbe4 fbe4fbe4 fbe4fbe4     ................
    3150:	fbe4fbe4 fbe4fbe4 fbe4fbe4 fbe4fbe4     ................
    3160:	fbe4ffff fbe4fbe4 fbe4fbe4 fbe4fbe4     ................
    3170:	fbe4fbe4 fbe4fbe4 fbe4fbe4 fbe4fbe4     ................
    3180:	fbe4fbe4 fbe4fbe4 fbe4fbe4 fbe4fbe4     ................
    3190:	fbe4fbe4 fbe4fbe4 fbe4fbe4 fffffbe4     ................
    31a0:	fbe4fbe4 fbe4fbe4 fbe4fbe4 fbe4fbe4     ................
    31b0:	fbe4fbe4 fbe4fbe4 fbe4fbe4 fbe4fbe4     ................
    31c0:	fbe4fbe4 fbe4fbe4 fbe4fbe4 fbe4fbe4     ................
    31d0:	fbe4fbe4 fffffbe4 fbe4ffff fbe4fbe4     ................
    31e0:	fbe4fbe4 fbe4fbe4 fbe4fbe4 fbe4fbe4     ................
    31f0:	fbe4fbe4 fbe4fbe4 fbe4fbe4 fbe4fbe4     ................
    3200:	fbe4fbe4 fbe4fbe4 fbe4fbe4 fbe4fbe4     ................
    3210:	fbe4fbe4 fbe4ffff fbe4fbe4 fbe4fbe4     ................
    3220:	fbe4fbe4 fbe4fbe4 fbe4fbe4 fbe4fbe4     ................
    3230:	fbe4fbe4 fbe4fbe4 fbe4fbe4 fbe4fbe4     ................
    3240:	fbe4fbe4 fbe4fbe4 fbe4fbe4 fbe4fbe4     ................
    3250:	fffffbe4 fbe4fbe4 fbe4fbe4 fbe4fbe4     ................
    3260:	fbe4fbe4 fbe4fbe4 fbe4fbe4 fbe4fbe4     ................
    3270:	fbe4fbe4 fbe4fbe4 fbe4fbe4 fbe4fbe4     ................
    3280:	fbe4fbe4 fbe4fbe4 fffffbe4 fbe4ffff     ................
    3290:	fbe4fbe4 fbe4fbe4 fbe4fbe4 fbe4fbe4     ................
    32a0:	fbe4fbe4 fbe4fbe4 fbe4fbe4 fbe4fbe4     ................
    32b0:	fbe4fbe4 fbe4fbe4 fbe4fbe4 fbe4fbe4     ................
    32c0:	fbe4fbe4 fbe4fbe4 fbe4ffff fbe4fbe4     ................
    32d0:	fbe4fbe4 fbe4fbe4 fbe4fbe4 fbe4fbe4     ................
    32e0:	fbe4fbe4 fbe4fbe4 fbe4fbe4 fbe4fbe4     ................
    32f0:	fbe4fbe4 fbe4fbe4 fbe4fbe4 fbe4fbe4     ................
    3300:	fbe4fbe4 fffffbe4 fbe4fbe4 fbe4fbe4     ................
    3310:	fbe4fbe4 fbe4fbe4 fbe4fbe4 fbe4fbe4     ................
    3320:	fbe4fbe4 fbe4fbe4 fbe4fbe4 fbe4fbe4     ................
    3330:	fbe4fbe4 fbe4fbe4 fbe4fbe4 fffffbe4     ................
    3340:	fbe4ffff fbe4fbe4 fbe4fbe4 fbe4fbe4     ................
    3350:	fbe4fbe4 fbe4fbe4 fbe4fbe4 fbe4fbe4     ................
    3360:	fbe4fbe4 fbe4fbe4 fbe4fbe4 fbe4fbe4     ................
    3370:	fbe4fbe4 fbe4fbe4 fbe4fbe4 fbe4ffff     ................
    3380:	fbe4fbe4 fbe4fbe4 fbe4fbe4 fbe4fbe4     ................
    3390:	fbe4fbe4 fbe4fbe4 fbe4fbe4 fbe4fbe4     ................
    33a0:	fbe4fbe4 fbe4fbe4 fbe4fbe4 fbe4fbe4     ................
    33b0:	fbe4fbe4 fbe4fbe4 fffffbe4 fbe4fbe4     ................
    33c0:	fbe4fbe4 fbe4fbe4 fbe4fbe4 fbe4fbe4     ................
    33d0:	fbe4fbe4 fbe4fbe4 fbe4fbe4 fbe4fbe4     ................
    33e0:	fbe4fbe4 fbe4fbe4 fbe4fbe4 fbe4fbe4     ................
    33f0:	fffffbe4 fbe4ffff fbe4fbe4 fbe4fbe4     ................
    3400:	fbe4fbe4 fbe4fbe4 fbe4fbe4 fbe4fbe4     ................
    3410:	fbe4fbe4 fbe4fbe4 fbe4fbe4 fbe4fbe4     ................
    3420:	fbe4fbe4 fbe4fbe4 fbe4fbe4 fbe4fbe4     ................
    3430:	fbe4ffff fbe4fbe4 fbe4fbe4 fbe4fbe4     ................
    3440:	fbe4fbe4 fbe4fbe4 fbe4fbe4 fbe4fbe4     ................
    3450:	fbe4fbe4 fbe4fbe4 fbe4fbe4 fbe4fbe4     ................
    3460:	fbe4fbe4 fbe4fbe4 fbe4fbe4 fffffbe4     ................
    3470:	fbe4fbe4 fbe4fbe4 fbe4fbe4 fbe4fbe4     ................
    3480:	fbe4fbe4 fbe4fbe4 fbe4fbe4 fbe4fbe4     ................
    3490:	fbe4fbe4 fbe4fbe4 fbe4fbe4 fbe4fbe4     ................
    34a0:	fbe4fbe4 fffffbe4 fbe4ffff fbe4fbe4     ................
    34b0:	fbe4fbe4 fbe4fbe4 fbe4fbe4 fbe4fbe4     ................
    34c0:	fbe4fbe4 fbe4fbe4 fbe4fbe4 fbe4fbe4     ................
    34d0:	fbe4fbe4 fbe4fbe4 fbe4fbe4 fbe4fbe4     ................
    34e0:	fbe4fbe4 fbe4ffff fbe4fbe4 fbe4fbe4     ................
    34f0:	fbe4fbe4 fbe4fbe4 fbe4fbe4 fbe4fbe4     ................
    3500:	fbe4fbe4 fbe4fbe4 fbe4fbe4 fbe4fbe4     ................
    3510:	fbe4fbe4 fbe4fbe4 fbe4fbe4 fbe4fbe4     ................
    3520:	fffffbe4 fbe4fbe4 fbe4fbe4 fbe4fbe4     ................
    3530:	fbe4fbe4 fbe4fbe4 fbe4fbe4 fbe4fbe4     ................
    3540:	fbe4fbe4 fbe4fbe4 fbe4fbe4 fbe4fbe4     ................
    3550:	fbe4fbe4 fbe4fbe4 fffffbe4 fbe4ffff     ................
    3560:	fbe4fbe4 fbe4fbe4 fbe4fbe4 fbe4fbe4     ................
    3570:	fbe4fbe4 fbe4fbe4 fbe4fbe4 fbe4fbe4     ................
    3580:	fbe4fbe4 fbe4fbe4 fbe4fbe4 fbe4fbe4     ................
    3590:	fbe4fbe4 fbe4fbe4 fbe4ffff fbe4fbe4     ................
    35a0:	fbe4fbe4 fbe4fbe4 fbe4fbe4 fbe4fbe4     ................
    35b0:	fbe4fbe4 fbe4fbe4 fbe4fbe4 fbe4fbe4     ................
    35c0:	fbe4fbe4 fbe4fbe4 fbe4fbe4 fbe4fbe4     ................
    35d0:	fbe4fbe4 fffffbe4 fbe4fbe4 fbe4fbe4     ................
    35e0:	fbe4fbe4 fbe4fbe4 fbe4fbe4 fbe4fbe4     ................
    35f0:	fbe4fbe4 fbe4fbe4 fbe4fbe4 fbe4fbe4     ................
    3600:	fbe4fbe4 fbe4fbe4 fbe4fbe4 fffffbe4     ................
    3610:	fbe4ffff fbe4fbe4 fbe4fbe4 fbe4fbe4     ................
    3620:	fbe4fbe4 fbe4fbe4 fbe4fbe4 fbe4fbe4     ................
    3630:	fbe4fbe4 fbe4fbe4 fbe4fbe4 fbe4fbe4     ................
    3640:	fbe4fbe4 fbe4fbe4 fbe4fbe4 fbe4ffff     ................
    3650:	fbe4fbe4 fbe4fbe4 fbe4fbe4 fbe4fbe4     ................
    3660:	fbe4fbe4 fbe4fbe4 fbe4fbe4 fbe4fbe4     ................
    3670:	fbe4fbe4 fbe4fbe4 fbe4fbe4 fbe4fbe4     ................
    3680:	fbe4fbe4 fbe4fbe4 fffffbe4 fbe4fbe4     ................
    3690:	fbe4fbe4 fbe4fbe4 fbe4fbe4 fbe4fbe4     ................
    36a0:	fbe4fbe4 fbe4fbe4 fbe4fbe4 fbe4fbe4     ................
    36b0:	fbe4fbe4 fbe4fbe4 fbe4fbe4 fbe4fbe4     ................
    36c0:	fffffbe4 fbe4ffff fbe4fbe4 fbe4fbe4     ................
    36d0:	fbe4fbe4 fbe4fbe4 fbe4fbe4 fbe4fbe4     ................
    36e0:	fbe4fbe4 fbe4fbe4 fbe4fbe4 fbe4fbe4     ................
    36f0:	fbe4fbe4 fbe4fbe4 fbe4fbe4 fbe4fbe4     ................
    3700:	fbe4ffff fbe4fbe4 fbe4fbe4 fbe4fbe4     ................
    3710:	fbe4fbe4 fbe4fbe4 fbe4fbe4 fbe4fbe4     ................
    3720:	fbe4fbe4 fbe4fbe4 fbe4fbe4 fbe4fbe4     ................
    3730:	fbe4fbe4 fbe4fbe4 fbe4fbe4 fffffbe4     ................
    3740:	fbe4fbe4 fbe4fbe4 fbe4fbe4 fbe4fbe4     ................
    3750:	fbe4fbe4 fbe4fbe4 fbe4fbe4 fbe4fbe4     ................
    3760:	fbe4fbe4 fbe4fbe4 fbe4fbe4 fbe4fbe4     ................
    3770:	fbe4fbe4 fffffbe4 fbe4ffff fbe4fbe4     ................
    3780:	fbe4fbe4 fbe4fbe4 fbe4fbe4 fbe4fbe4     ................
    3790:	fbe4fbe4 fbe4fbe4 fbe4fbe4 fbe4fbe4     ................
    37a0:	fbe4fbe4 fbe4fbe4 fbe4fbe4 fbe4fbe4     ................
    37b0:	fbe4fbe4 fbe4ffff fbe4fbe4 fbe4fbe4     ................
    37c0:	fbe4fbe4 fbe4fbe4 fbe4fbe4 fbe4fbe4     ................
    37d0:	fbe4fbe4 fbe4fbe4 fbe4fbe4 fbe4fbe4     ................
    37e0:	fbe4fbe4 fbe4fbe4 fbe4fbe4 fbe4fbe4     ................
    37f0:	fffffbe4 fbe4fbe4 fbe4fbe4 fbe4fbe4     ................
    3800:	fbe4fbe4 fbe4fbe4 fbe4fbe4 fbe4fbe4     ................
    3810:	fbe4fbe4 fbe4fbe4 fbe4fbe4 fbe4fbe4     ................
    3820:	fbe4fbe4 fbe4fbe4 fffffbe4 fbe4ffff     ................
    3830:	fbe4fbe4 fbe4fbe4 fbe4fbe4 fbe4fbe4     ................
    3840:	fbe4fbe4 fbe4fbe4 fbe4fbe4 fbe4fbe4     ................
    3850:	fbe4fbe4 fbe4fbe4 fbe4fbe4 fbe4fbe4     ................
    3860:	fbe4fbe4 fbe4fbe4 fbe4ffff fbe4fbe4     ................
    3870:	fbe4fbe4 fbe4fbe4 fbe4fbe4 fbe4fbe4     ................
    3880:	fbe4fbe4 fbe4fbe4 fbe4fbe4 fbe4fbe4     ................
    3890:	fbe4fbe4 fbe4fbe4 fbe4fbe4 fbe4fbe4     ................
    38a0:	fbe4fbe4 fffffbe4 fbe4fbe4 fbe4fbe4     ................
    38b0:	fbe4fbe4 fbe4fbe4 fbe4fbe4 fbe4fbe4     ................
    38c0:	fbe4fbe4 fbe4fbe4 fbe4fbe4 fbe4fbe4     ................
    38d0:	fbe4fbe4 fbe4fbe4 fbe4fbe4 fffffbe4     ................
    38e0:	fbe4ffff fbe4fbe4 fbe4fbe4 fbe4fbe4     ................
    38f0:	fbe4fbe4 fbe4fbe4 fbe4fbe4 fbe4fbe4     ................
    3900:	fbe4fbe4 fbe4fbe4 fbe4fbe4 fbe4fbe4     ................
    3910:	fbe4fbe4 fbe4fbe4 fbe4fbe4 fbe4ffff     ................
    3920:	fbe4fbe4 fbe4fbe4 fbe4fbe4 fbe4fbe4     ................
    3930:	fbe4fbe4 fbe4fbe4 fbe4fbe4 fbe4fbe4     ................
    3940:	fbe4fbe4 fbe4fbe4 fbe4fbe4 fbe4fbe4     ................
    3950:	fbe4fbe4 fbe4fbe4 fffffbe4 fbe4fbe4     ................
    3960:	fbe4fbe4 fbe4fbe4 fbe4fbe4 fbe4fbe4     ................
    3970:	fbe4fbe4 fbe4fbe4 fbe4fbe4 fbe4fbe4     ................
    3980:	fbe4fbe4 fbe4fbe4 fbe4fbe4 fbe4fbe4     ................
    3990:	fffffbe4 fbe4ffff fbe4fbe4 fbe4fbe4     ................
    39a0:	fbe4fbe4 fbe4fbe4 fbe4fbe4 fbe4fbe4     ................
    39b0:	fbe4fbe4 fbe4fbe4 fbe4fbe4 fbe4fbe4     ................
    39c0:	fbe4fbe4 fbe4fbe4 fbe4fbe4 fbe4fbe4     ................
    39d0:	fbe4ffff fbe4fbe4 fbe4fbe4 fbe4fbe4     ................
    39e0:	fbe4fbe4 fbe4fbe4 fbe4fbe4 fbe4fbe4     ................
    39f0:	fbe4fbe4 fbe4fbe4 fbe4fbe4 fbe4fbe4     ................
    3a00:	fbe4fbe4 fbe4fbe4 fbe4fbe4 fffffbe4     ................
    3a10:	fbe4fbe4 fbe4fbe4 fbe4fbe4 fbe4fbe4     ................
    3a20:	fbe4fbe4 fbe4fbe4 fbe4fbe4 fbe4fbe4     ................
    3a30:	fbe4fbe4 fbe4fbe4 fbe4fbe4 fbe4fbe4     ................
    3a40:	fbe4fbe4 fffffbe4 fbe4ffff fbe4fbe4     ................
    3a50:	fbe4fbe4 fbe4fbe4 fbe4fbe4 fbe4fbe4     ................
    3a60:	fbe4fbe4 fbe4fbe4 fbe4fbe4 fbe4fbe4     ................
    3a70:	fbe4fbe4 fbe4fbe4 fbe4fbe4 fbe4fbe4     ................
    3a80:	fbe4fbe4 fbe4ffff fbe4fbe4 fbe4fbe4     ................
    3a90:	fbe4fbe4 fbe4fbe4 fbe4fbe4 fbe4fbe4     ................
    3aa0:	fbe4fbe4 fbe4fbe4 fbe4fbe4 fbe4fbe4     ................
    3ab0:	fbe4fbe4 fbe4fbe4 fbe4fbe4 fbe4fbe4     ................
    3ac0:	fffffbe4 fbe4fbe4 fbe4fbe4 fbe4fbe4     ................
    3ad0:	fbe4fbe4 fbe4fbe4 fbe4fbe4 fbe4fbe4     ................
    3ae0:	fbe4fbe4 fbe4fbe4 fbe4fbe4 fbe4fbe4     ................
    3af0:	fbe4fbe4 fbe4fbe4 fffffbe4 fbe4ffff     ................
    3b00:	fbe4fbe4 fbe4fbe4 fbe4fbe4 fbe4fbe4     ................
    3b10:	fbe4fbe4 fbe4fbe4 fbe4fbe4 fbe4fbe4     ................
    3b20:	fbe4fbe4 fbe4fbe4 fbe4fbe4 fbe4fbe4     ................
    3b30:	fbe4fbe4 fbe4fbe4 fbe4ffff fbe4fbe4     ................
    3b40:	fbe4fbe4 fbe4fbe4 fbe4fbe4 fbe4fbe4     ................
    3b50:	fbe4fbe4 fbe4fbe4 fbe4fbe4 fbe4fbe4     ................
    3b60:	fbe4fbe4 fbe4fbe4 fbe4fbe4 fbe4fbe4     ................
    3b70:	fbe4fbe4 fffffbe4 fbe4fbe4 fbe4fbe4     ................
    3b80:	fbe4fbe4 fbe4fbe4 fbe4fbe4 fbe4fbe4     ................
    3b90:	fbe4fbe4 fbe4fbe4 fbe4fbe4 fbe4fbe4     ................
    3ba0:	fbe4fbe4 fbe4fbe4 fbe4fbe4 fffffbe4     ................
    3bb0:	ffffffff ffffffff ffffffff ffffffff     ................
    3bc0:	ffffffff ffffffff ffffffff ffffffff     ................
    3bd0:	ffffffff ffffffff ffffffff ffffffff     ................
    3be0:	ffffffff ffffffff ffffffff ffffffff     ................
    3bf0:	ffffffff ffffffff ffffffff ffffffff     ................
    3c00:	ffffffff ffffffff ffffffff ffffffff     ................
    3c10:	ffffffff ffffffff ffffffff ffffffff     ................
    3c20:	ffffffff ffffffff ffffffff ffffffff     ................
    3c30:	ffffffff ffffffff ffffffff ffffffff     ................
    3c40:	ffffffff ffffffff ffffffff ffffffff     ................
    3c50:	ffffffff ffffffff ffffffff ffffffff     ................
    3c60:	ffffffff fbe4ffff fbe4fbe4 fbe4fbe4     ................
    3c70:	fbe4fbe4 fbe4fbe4 fbe4fbe4 fbe4fbe4     ................
    3c80:	fbe4fbe4 fbe4fbe4 fbe4fbe4 fbe4fbe4     ................
    3c90:	fbe4fbe4 fbe4fbe4 fbe4fbe4 fbe4fbe4     ................
    3ca0:	fbe4ffff fbe4fbe4 fbe4fbe4 fbe4fbe4     ................
    3cb0:	fbe4fbe4 fbe4fbe4 fbe4fbe4 fbe4fbe4     ................
    3cc0:	fbe4fbe4 fbe4fbe4 fbe4fbe4 fbe4fbe4     ................
    3cd0:	fbe4fbe4 fbe4fbe4 fbe4fbe4 fffffbe4     ................
    3ce0:	fbe4fbe4 fbe4fbe4 fbe4fbe4 fbe4fbe4     ................
    3cf0:	fbe4fbe4 fbe4fbe4 fbe4fbe4 fbe4fbe4     ................
    3d00:	fbe4fbe4 fbe4fbe4 fbe4fbe4 fbe4fbe4     ................
    3d10:	fbe4fbe4 fffffbe4 fbe4ffff fbe4fbe4     ................
    3d20:	fbe4fbe4 fbe4fbe4 fbe4fbe4 fbe4fbe4     ................
    3d30:	fbe4fbe4 fbe4fbe4 fbe4fbe4 fbe4fbe4     ................
    3d40:	fbe4fbe4 fbe4fbe4 fbe4fbe4 fbe4fbe4     ................
    3d50:	fbe4fbe4 fbe4ffff fbe4fbe4 fbe4fbe4     ................
    3d60:	fbe4fbe4 fbe4fbe4 fbe4fbe4 fbe4fbe4     ................
    3d70:	fbe4fbe4 fbe4fbe4 fbe4fbe4 fbe4fbe4     ................
    3d80:	fbe4fbe4 fbe4fbe4 fbe4fbe4 fbe4fbe4     ................
    3d90:	fffffbe4 fbe4fbe4 fbe4fbe4 fbe4fbe4     ................
    3da0:	fbe4fbe4 fbe4fbe4 fbe4fbe4 fbe4fbe4     ................
    3db0:	fbe4fbe4 fbe4fbe4 fbe4fbe4 fbe4fbe4     ................
    3dc0:	fbe4fbe4 fbe4fbe4 fffffbe4 fbe4ffff     ................
    3dd0:	fbe4fbe4 fbe4fbe4 fbe4fbe4 fbe4fbe4     ................
    3de0:	fbe4fbe4 fbe4fbe4 fbe4fbe4 fbe4fbe4     ................
    3df0:	fbe4fbe4 fbe4fbe4 fbe4fbe4 fbe4fbe4     ................
    3e00:	fbe4fbe4 fbe4fbe4 fbe4ffff fbe4fbe4     ................
    3e10:	fbe4fbe4 fbe4fbe4 fbe4fbe4 fbe4fbe4     ................
    3e20:	fbe4fbe4 fbe4fbe4 fbe4fbe4 fbe4fbe4     ................
    3e30:	fbe4fbe4 fbe4fbe4 fbe4fbe4 fbe4fbe4     ................
    3e40:	fbe4fbe4 fffffbe4 fbe4fbe4 fbe4fbe4     ................
    3e50:	fbe4fbe4 fbe4fbe4 fbe4fbe4 fbe4fbe4     ................
    3e60:	fbe4fbe4 fbe4fbe4 fbe4fbe4 fbe4fbe4     ................
    3e70:	fbe4fbe4 fbe4fbe4 fbe4fbe4 fffffbe4     ................
    3e80:	fbe4ffff fbe4fbe4 fbe4fbe4 fbe4fbe4     ................
    3e90:	fbe4fbe4 fbe4fbe4 fbe4fbe4 fbe4fbe4     ................
    3ea0:	fbe4fbe4 fbe4fbe4 fbe4fbe4 fbe4fbe4     ................
    3eb0:	fbe4fbe4 fbe4fbe4 fbe4fbe4 fbe4ffff     ................
    3ec0:	fbe4fbe4 fbe4fbe4 fbe4fbe4 fbe4fbe4     ................
    3ed0:	fbe4fbe4 fbe4fbe4 fbe4fbe4 fbe4fbe4     ................
    3ee0:	fbe4fbe4 fbe4fbe4 fbe4fbe4 fbe4fbe4     ................
    3ef0:	fbe4fbe4 fbe4fbe4 fffffbe4 fbe4fbe4     ................
    3f00:	fbe4fbe4 fbe4fbe4 fbe4fbe4 fbe4fbe4     ................
    3f10:	fbe4fbe4 fbe4fbe4 fbe4fbe4 fbe4fbe4     ................
    3f20:	fbe4fbe4 fbe4fbe4 fbe4fbe4 fbe4fbe4     ................
    3f30:	fffffbe4 fbe4ffff fbe4fbe4 fbe4fbe4     ................
    3f40:	fbe4fbe4 fbe4fbe4 fbe4fbe4 fbe4fbe4     ................
    3f50:	fbe4fbe4 fbe4fbe4 fbe4fbe4 fbe4fbe4     ................
    3f60:	fbe4fbe4 fbe4fbe4 fbe4fbe4 fbe4fbe4     ................
    3f70:	fbe4ffff fbe4fbe4 fbe4fbe4 fbe4fbe4     ................
    3f80:	fbe4fbe4 fbe4fbe4 fbe4fbe4 fbe4fbe4     ................
    3f90:	fbe4fbe4 fbe4fbe4 fbe4fbe4 fbe4fbe4     ................
    3fa0:	fbe4fbe4 fbe4fbe4 fbe4fbe4 fffffbe4     ................
    3fb0:	fbe4fbe4 fbe4fbe4 fbe4fbe4 fbe4fbe4     ................
    3fc0:	fbe4fbe4 fbe4fbe4 fbe4fbe4 fbe4fbe4     ................
    3fd0:	fbe4fbe4 fbe4fbe4 fbe4fbe4 fbe4fbe4     ................
    3fe0:	fbe4fbe4 fffffbe4 fbe4ffff fbe4fbe4     ................
    3ff0:	fbe4fbe4 fbe4fbe4 fbe4fbe4 fbe4fbe4     ................
    4000:	fbe4fbe4 fbe4fbe4 fbe4fbe4 fbe4fbe4     ................
    4010:	fbe4fbe4 fbe4fbe4 fbe4fbe4 fbe4fbe4     ................
    4020:	fbe4fbe4 fbe4ffff fbe4fbe4 fbe4fbe4     ................
    4030:	fbe4fbe4 fbe4fbe4 fbe4fbe4 fbe4fbe4     ................
    4040:	fbe4fbe4 fbe4fbe4 fbe4fbe4 fbe4fbe4     ................
    4050:	fbe4fbe4 fbe4fbe4 fbe4fbe4 fbe4fbe4     ................
    4060:	fffffbe4 fbe4fbe4 fbe4fbe4 fbe4fbe4     ................
    4070:	fbe4fbe4 fbe4fbe4 fbe4fbe4 fbe4fbe4     ................
    4080:	fbe4fbe4 fbe4fbe4 fbe4fbe4 fbe4fbe4     ................
    4090:	fbe4fbe4 fbe4fbe4 fffffbe4 fbe4ffff     ................
    40a0:	fbe4fbe4 fbe4fbe4 fbe4fbe4 fbe4fbe4     ................
    40b0:	fbe4fbe4 fbe4fbe4 fbe4fbe4 fbe4fbe4     ................
    40c0:	fbe4fbe4 fbe4fbe4 fbe4fbe4 fbe4fbe4     ................
    40d0:	fbe4fbe4 fbe4fbe4 fbe4ffff fbe4fbe4     ................
    40e0:	fbe4fbe4 fbe4fbe4 fbe4fbe4 fbe4fbe4     ................
    40f0:	fbe4fbe4 fbe4fbe4 fbe4fbe4 fbe4fbe4     ................
    4100:	fbe4fbe4 fbe4fbe4 fbe4fbe4 fbe4fbe4     ................
    4110:	fbe4fbe4 fffffbe4 fbe4fbe4 fbe4fbe4     ................
    4120:	fbe4fbe4 fbe4fbe4 fbe4fbe4 fbe4fbe4     ................
    4130:	fbe4fbe4 fbe4fbe4 fbe4fbe4 fbe4fbe4     ................
    4140:	fbe4fbe4 fbe4fbe4 fbe4fbe4 fffffbe4     ................
    4150:	fbe4ffff fbe4fbe4 fbe4fbe4 fbe4fbe4     ................
    4160:	fbe4fbe4 fbe4fbe4 fbe4fbe4 fbe4fbe4     ................
    4170:	fbe4fbe4 fbe4fbe4 fbe4fbe4 fbe4fbe4     ................
    4180:	fbe4fbe4 fbe4fbe4 fbe4fbe4 fbe4ffff     ................
    4190:	fbe4fbe4 fbe4fbe4 fbe4fbe4 fbe4fbe4     ................
    41a0:	fbe4fbe4 fbe4fbe4 fbe4fbe4 fbe4fbe4     ................
    41b0:	fbe4fbe4 fbe4fbe4 fbe4fbe4 fbe4fbe4     ................
    41c0:	fbe4fbe4 fbe4fbe4 fffffbe4 fbe4fbe4     ................
    41d0:	fbe4fbe4 fbe4fbe4 fbe4fbe4 fbe4fbe4     ................
    41e0:	fbe4fbe4 fbe4fbe4 fbe4fbe4 fbe4fbe4     ................
    41f0:	fbe4fbe4 fbe4fbe4 fbe4fbe4 fbe4fbe4     ................
    4200:	fffffbe4 fbe4ffff fbe4fbe4 fbe4fbe4     ................
    4210:	fbe4fbe4 fbe4fbe4 fbe4fbe4 fbe4fbe4     ................
    4220:	fbe4fbe4 fbe4fbe4 fbe4fbe4 fbe4fbe4     ................
    4230:	fbe4fbe4 fbe4fbe4 fbe4fbe4 fbe4fbe4     ................
    4240:	fbe4ffff fbe4fbe4 fbe4fbe4 fbe4fbe4     ................
    4250:	fbe4fbe4 fbe4fbe4 fbe4fbe4 fbe4fbe4     ................
    4260:	fbe4fbe4 fbe4fbe4 fbe4fbe4 fbe4fbe4     ................
    4270:	fbe4fbe4 fbe4fbe4 fbe4fbe4 fffffbe4     ................
    4280:	fbe4fbe4 fbe4fbe4 fbe4fbe4 fbe4fbe4     ................
    4290:	fbe4fbe4 fbe4fbe4 fbe4fbe4 fbe4fbe4     ................
    42a0:	fbe4fbe4 fbe4fbe4 fbe4fbe4 fbe4fbe4     ................
    42b0:	fbe4fbe4 fffffbe4 fbe4ffff fbe4fbe4     ................
    42c0:	fbe4fbe4 fbe4fbe4 fbe4fbe4 fbe4fbe4     ................
    42d0:	fbe4fbe4 fbe4fbe4 fbe4fbe4 fbe4fbe4     ................
    42e0:	fbe4fbe4 fbe4fbe4 fbe4fbe4 fbe4fbe4     ................
    42f0:	fbe4fbe4 fbe4ffff fbe4fbe4 fbe4fbe4     ................
    4300:	fbe4fbe4 fbe4fbe4 fbe4fbe4 fbe4fbe4     ................
    4310:	fbe4fbe4 fbe4fbe4 fbe4fbe4 fbe4fbe4     ................
    4320:	fbe4fbe4 fbe4fbe4 fbe4fbe4 fbe4fbe4     ................
    4330:	fffffbe4 fbe4fbe4 fbe4fbe4 fbe4fbe4     ................
    4340:	fbe4fbe4 fbe4fbe4 fbe4fbe4 fbe4fbe4     ................
    4350:	fbe4fbe4 fbe4fbe4 fbe4fbe4 fbe4fbe4     ................
    4360:	fbe4fbe4 fbe4fbe4 fffffbe4 fbe4ffff     ................
    4370:	fbe4fbe4 fbe4fbe4 fbe4fbe4 fbe4fbe4     ................
    4380:	fbe4fbe4 fbe4fbe4 fbe4fbe4 fbe4fbe4     ................
    4390:	fbe4fbe4 fbe4fbe4 fbe4fbe4 fbe4fbe4     ................
    43a0:	fbe4fbe4 fbe4fbe4 fbe4ffff fbe4fbe4     ................
    43b0:	fbe4fbe4 fbe4fbe4 fbe4fbe4 fbe4fbe4     ................
    43c0:	fbe4fbe4 fbe4fbe4 fbe4fbe4 fbe4fbe4     ................
    43d0:	fbe4fbe4 fbe4fbe4 fbe4fbe4 fbe4fbe4     ................
    43e0:	fbe4fbe4 fffffbe4 fbe4fbe4 fbe4fbe4     ................
    43f0:	fbe4fbe4 fbe4fbe4 fbe4fbe4 fbe4fbe4     ................
    4400:	fbe4fbe4 fbe4fbe4 fbe4fbe4 fbe4fbe4     ................
    4410:	fbe4fbe4 fbe4fbe4 fbe4fbe4 fffffbe4     ................
    4420:	fbe4ffff fbe4fbe4 fbe4fbe4 fbe4fbe4     ................
    4430:	fbe4fbe4 fbe4fbe4 fbe4fbe4 fbe4fbe4     ................
    4440:	fbe4fbe4 fbe4fbe4 fbe4fbe4 fbe4fbe4     ................
    4450:	fbe4fbe4 fbe4fbe4 fbe4fbe4 fbe4ffff     ................
    4460:	fbe4fbe4 fbe4fbe4 fbe4fbe4 fbe4fbe4     ................
    4470:	fbe4fbe4 fbe4fbe4 fbe4fbe4 fbe4fbe4     ................
    4480:	fbe4fbe4 fbe4fbe4 fbe4fbe4 fbe4fbe4     ................
    4490:	fbe4fbe4 fbe4fbe4 fffffbe4 fbe4fbe4     ................
    44a0:	fbe4fbe4 fbe4fbe4 fbe4fbe4 fbe4fbe4     ................
    44b0:	fbe4fbe4 fbe4fbe4 fbe4fbe4 fbe4fbe4     ................
    44c0:	fbe4fbe4 fbe4fbe4 fbe4fbe4 fbe4fbe4     ................
    44d0:	fffffbe4 fbe4ffff fbe4fbe4 fbe4fbe4     ................
    44e0:	fbe4fbe4 fbe4fbe4 fbe4fbe4 fbe4fbe4     ................
    44f0:	fbe4fbe4 fbe4fbe4 fbe4fbe4 fbe4fbe4     ................
    4500:	fbe4fbe4 fbe4fbe4 fbe4fbe4 fbe4fbe4     ................
    4510:	fbe4ffff fbe4fbe4 fbe4fbe4 fbe4fbe4     ................
    4520:	fbe4fbe4 fbe4fbe4 fbe4fbe4 fbe4fbe4     ................
    4530:	fbe4fbe4 fbe4fbe4 fbe4fbe4 fbe4fbe4     ................
    4540:	fbe4fbe4 fbe4fbe4 fbe4fbe4 fffffbe4     ................
    4550:	fbe4fbe4 fbe4fbe4 fbe4fbe4 fbe4fbe4     ................
    4560:	fbe4fbe4 fbe4fbe4 fbe4fbe4 fbe4fbe4     ................
    4570:	fbe4fbe4 fbe4fbe4 fbe4fbe4 fbe4fbe4     ................
    4580:	fbe4fbe4 fffffbe4 fbe4ffff fbe4fbe4     ................
    4590:	fbe4fbe4 fbe4fbe4 fbe4fbe4 fbe4fbe4     ................
    45a0:	fbe4fbe4 fbe4fbe4 fbe4fbe4 fbe4fbe4     ................
    45b0:	fbe4fbe4 fbe4fbe4 fbe4fbe4 fbe4fbe4     ................
    45c0:	fbe4fbe4 fbe4ffff fbe4fbe4 fbe4fbe4     ................
    45d0:	fbe4fbe4 fbe4fbe4 fbe4fbe4 fbe4fbe4     ................
    45e0:	fbe4fbe4 fbe4fbe4 fbe4fbe4 fbe4fbe4     ................
    45f0:	fbe4fbe4 fbe4fbe4 fbe4fbe4 fbe4fbe4     ................
    4600:	fffffbe4 fbe4fbe4 fbe4fbe4 fbe4fbe4     ................
    4610:	fbe4fbe4 fbe4fbe4 fbe4fbe4 fbe4fbe4     ................
    4620:	fbe4fbe4 fbe4fbe4 fbe4fbe4 fbe4fbe4     ................
    4630:	fbe4fbe4 fbe4fbe4 fffffbe4 fbe4ffff     ................
    4640:	fbe4fbe4 fbe4fbe4 fbe4fbe4 fbe4fbe4     ................
    4650:	fbe4fbe4 fbe4fbe4 fbe4fbe4 fbe4fbe4     ................
    4660:	fbe4fbe4 fbe4fbe4 fbe4fbe4 fbe4fbe4     ................
    4670:	fbe4fbe4 fbe4fbe4 fbe4ffff fbe4fbe4     ................
    4680:	fbe4fbe4 fbe4fbe4 fbe4fbe4 fbe4fbe4     ................
    4690:	fbe4fbe4 fbe4fbe4 fbe4fbe4 fbe4fbe4     ................
    46a0:	fbe4fbe4 fbe4fbe4 fbe4fbe4 fbe4fbe4     ................
    46b0:	fbe4fbe4 fffffbe4 fbe4fbe4 fbe4fbe4     ................
    46c0:	fbe4fbe4 fbe4fbe4 fbe4fbe4 fbe4fbe4     ................
    46d0:	fbe4fbe4 fbe4fbe4 fbe4fbe4 fbe4fbe4     ................
    46e0:	fbe4fbe4 fbe4fbe4 fbe4fbe4 fffffbe4     ................
    46f0:	fbe4ffff fbe4fbe4 fbe4fbe4 fbe4fbe4     ................
    4700:	fbe4fbe4 fbe4fbe4 fbe4fbe4 fbe4fbe4     ................
    4710:	fbe4fbe4 fbe4fbe4 fbe4fbe4 fbe4fbe4     ................
    4720:	fbe4fbe4 fbe4fbe4 fbe4fbe4 fbe4ffff     ................
    4730:	fbe4fbe4 fbe4fbe4 fbe4fbe4 fbe4fbe4     ................
    4740:	fbe4fbe4 fbe4fbe4 fbe4fbe4 fbe4fbe4     ................
    4750:	fbe4fbe4 fbe4fbe4 fbe4fbe4 fbe4fbe4     ................
    4760:	fbe4fbe4 fbe4fbe4 fffffbe4 fbe4fbe4     ................
    4770:	fbe4fbe4 fbe4fbe4 fbe4fbe4 fbe4fbe4     ................
    4780:	fbe4fbe4 fbe4fbe4 fbe4fbe4 fbe4fbe4     ................
    4790:	fbe4fbe4 fbe4fbe4 fbe4fbe4 fbe4fbe4     ................
    47a0:	fffffbe4 fbe4ffff fbe4fbe4 fbe4fbe4     ................
    47b0:	fbe4fbe4 fbe4fbe4 fbe4fbe4 fbe4fbe4     ................
    47c0:	fbe4fbe4 fbe4fbe4 fbe4fbe4 fbe4fbe4     ................
    47d0:	fbe4fbe4 fbe4fbe4 fbe4fbe4 fbe4fbe4     ................
    47e0:	fbe4ffff fbe4fbe4 fbe4fbe4 fbe4fbe4     ................
    47f0:	fbe4fbe4 fbe4fbe4 fbe4fbe4 fbe4fbe4     ................
    4800:	fbe4fbe4 fbe4fbe4 fbe4fbe4 fbe4fbe4     ................
    4810:	fbe4fbe4 fbe4fbe4 fbe4fbe4 fffffbe4     ................
    4820:	fbe4fbe4 fbe4fbe4 fbe4fbe4 fbe4fbe4     ................
    4830:	fbe4fbe4 fbe4fbe4 fbe4fbe4 fbe4fbe4     ................
    4840:	fbe4fbe4 fbe4fbe4 fbe4fbe4 fbe4fbe4     ................
    4850:	fbe4fbe4 fffffbe4 fbe4ffff fbe4fbe4     ................
    4860:	fbe4fbe4 fbe4fbe4 fbe4fbe4 fbe4fbe4     ................
    4870:	fbe4fbe4 fbe4fbe4 fbe4fbe4 fbe4fbe4     ................
    4880:	fbe4fbe4 fbe4fbe4 fbe4fbe4 fbe4fbe4     ................
    4890:	fbe4fbe4 fbe4ffff fbe4fbe4 fbe4fbe4     ................
    48a0:	fbe4fbe4 fbe4fbe4 fbe4fbe4 fbe4fbe4     ................
    48b0:	fbe4fbe4 fbe4fbe4 fbe4fbe4 fbe4fbe4     ................
    48c0:	fbe4fbe4 fbe4fbe4 fbe4fbe4 fbe4fbe4     ................
    48d0:	fffffbe4 fbe4fbe4 fbe4fbe4 fbe4fbe4     ................
    48e0:	fbe4fbe4 fbe4fbe4 fbe4fbe4 fbe4fbe4     ................
    48f0:	fbe4fbe4 fbe4fbe4 fbe4fbe4 fbe4fbe4     ................
    4900:	fbe4fbe4 fbe4fbe4 fffffbe4 fbe4ffff     ................
    4910:	fbe4fbe4 fbe4fbe4 fbe4fbe4 fbe4fbe4     ................
    4920:	fbe4fbe4 fbe4fbe4 fbe4fbe4 fbe4fbe4     ................
    4930:	fbe4fbe4 fbe4fbe4 fbe4fbe4 fbe4fbe4     ................
    4940:	fbe4fbe4 fbe4fbe4 fbe4ffff fbe4fbe4     ................
    4950:	fbe4fbe4 fbe4fbe4 fbe4fbe4 fbe4fbe4     ................
    4960:	fbe4fbe4 fbe4fbe4 fbe4fbe4 fbe4fbe4     ................
    4970:	fbe4fbe4 fbe4fbe4 fbe4fbe4 fbe4fbe4     ................
    4980:	fbe4fbe4 fffffbe4 fbe4fbe4 fbe4fbe4     ................
    4990:	fbe4fbe4 fbe4fbe4 fbe4fbe4 fbe4fbe4     ................
    49a0:	fbe4fbe4 fbe4fbe4 fbe4fbe4 fbe4fbe4     ................
    49b0:	fbe4fbe4 fbe4fbe4 fbe4fbe4 fffffbe4     ................
    49c0:	fbe4ffff fbe4fbe4 fbe4fbe4 fbe4fbe4     ................
    49d0:	fbe4fbe4 fbe4fbe4 fbe4fbe4 fbe4fbe4     ................
    49e0:	fbe4fbe4 fbe4fbe4 fbe4fbe4 fbe4fbe4     ................
    49f0:	fbe4fbe4 fbe4fbe4 fbe4fbe4 fbe4ffff     ................
    4a00:	fbe4fbe4 fbe4fbe4 fbe4fbe4 fbe4fbe4     ................
    4a10:	fbe4fbe4 fbe4fbe4 fbe4fbe4 fbe4fbe4     ................
    4a20:	fbe4fbe4 fbe4fbe4 fbe4fbe4 fbe4fbe4     ................
    4a30:	fbe4fbe4 fbe4fbe4 fffffbe4 fbe4fbe4     ................
    4a40:	fbe4fbe4 fbe4fbe4 fbe4fbe4 fbe4fbe4     ................
    4a50:	fbe4fbe4 fbe4fbe4 fbe4fbe4 fbe4fbe4     ................
    4a60:	fbe4fbe4 fbe4fbe4 fbe4fbe4 fbe4fbe4     ................
    4a70:	fffffbe4 fbe4ffff fbe4fbe4 fbe4fbe4     ................
    4a80:	fbe4fbe4 fbe4fbe4 fbe4fbe4 fbe4fbe4     ................
    4a90:	fbe4fbe4 fbe4fbe4 fbe4fbe4 fbe4fbe4     ................
    4aa0:	fbe4fbe4 fbe4fbe4 fbe4fbe4 fbe4fbe4     ................
    4ab0:	fbe4ffff fbe4fbe4 fbe4fbe4 fbe4fbe4     ................
    4ac0:	fbe4fbe4 fbe4fbe4 fbe4fbe4 fbe4fbe4     ................
    4ad0:	fbe4fbe4 fbe4fbe4 fbe4fbe4 fbe4fbe4     ................
    4ae0:	fbe4fbe4 fbe4fbe4 fbe4fbe4 fffffbe4     ................
    4af0:	fbe4fbe4 fbe4fbe4 fbe4fbe4 fbe4fbe4     ................
    4b00:	fbe4fbe4 fbe4fbe4 fbe4fbe4 fbe4fbe4     ................
    4b10:	fbe4fbe4 fbe4fbe4 fbe4fbe4 fbe4fbe4     ................
    4b20:	fbe4fbe4 fffffbe4 fbe4ffff fbe4fbe4     ................
    4b30:	fbe4fbe4 fbe4fbe4 fbe4fbe4 fbe4fbe4     ................
    4b40:	fbe4fbe4 fbe4fbe4 fbe4fbe4 fbe4fbe4     ................
    4b50:	fbe4fbe4 fbe4fbe4 fbe4fbe4 fbe4fbe4     ................
    4b60:	fbe4fbe4 fbe4ffff fbe4fbe4 fbe4fbe4     ................
    4b70:	fbe4fbe4 fbe4fbe4 fbe4fbe4 fbe4fbe4     ................
    4b80:	fbe4fbe4 fbe4fbe4 fbe4fbe4 fbe4fbe4     ................
    4b90:	fbe4fbe4 fbe4fbe4 fbe4fbe4 fbe4fbe4     ................
    4ba0:	fffffbe4 fbe4fbe4 fbe4fbe4 fbe4fbe4     ................
    4bb0:	fbe4fbe4 fbe4fbe4 fbe4fbe4 fbe4fbe4     ................
    4bc0:	fbe4fbe4 fbe4fbe4 fbe4fbe4 fbe4fbe4     ................
    4bd0:	fbe4fbe4 fbe4fbe4 fffffbe4 fbe4ffff     ................
    4be0:	fbe4fbe4 fbe4fbe4 fbe4fbe4 fbe4fbe4     ................
    4bf0:	fbe4fbe4 fbe4fbe4 fbe4fbe4 fbe4fbe4     ................
    4c00:	fbe4fbe4 fbe4fbe4 fbe4fbe4 fbe4fbe4     ................
    4c10:	fbe4fbe4 fbe4fbe4 fbe4ffff fbe4fbe4     ................
    4c20:	fbe4fbe4 fbe4fbe4 fbe4fbe4 fbe4fbe4     ................
    4c30:	fbe4fbe4 fbe4fbe4 fbe4fbe4 fbe4fbe4     ................
    4c40:	fbe4fbe4 fbe4fbe4 fbe4fbe4 fbe4fbe4     ................
    4c50:	fbe4fbe4 fffffbe4 fbe4fbe4 fbe4fbe4     ................
    4c60:	fbe4fbe4 fbe4fbe4 fbe4fbe4 fbe4fbe4     ................
    4c70:	fbe4fbe4 fbe4fbe4 fbe4fbe4 fbe4fbe4     ................
    4c80:	fbe4fbe4 fbe4fbe4 fbe4fbe4 fffffbe4     ................
    4c90:	fbe4ffff fbe4fbe4 fbe4fbe4 fbe4fbe4     ................
    4ca0:	fbe4fbe4 fbe4fbe4 fbe4fbe4 fbe4fbe4     ................
    4cb0:	fbe4fbe4 fbe4fbe4 fbe4fbe4 fbe4fbe4     ................
    4cc0:	fbe4fbe4 fbe4fbe4 fbe4fbe4 fbe4ffff     ................
    4cd0:	fbe4fbe4 fbe4fbe4 fbe4fbe4 fbe4fbe4     ................
    4ce0:	fbe4fbe4 fbe4fbe4 fbe4fbe4 fbe4fbe4     ................
    4cf0:	fbe4fbe4 fbe4fbe4 fbe4fbe4 fbe4fbe4     ................
    4d00:	fbe4fbe4 fbe4fbe4 fffffbe4 fbe4fbe4     ................
    4d10:	fbe4fbe4 fbe4fbe4 fbe4fbe4 fbe4fbe4     ................
    4d20:	fbe4fbe4 fbe4fbe4 fbe4fbe4 fbe4fbe4     ................
    4d30:	fbe4fbe4 fbe4fbe4 fbe4fbe4 fbe4fbe4     ................
    4d40:	fffffbe4 fbe4ffff fbe4fbe4 fbe4fbe4     ................
    4d50:	fbe4fbe4 fbe4fbe4 fbe4fbe4 fbe4fbe4     ................
    4d60:	fbe4fbe4 fbe4fbe4 fbe4fbe4 fbe4fbe4     ................
    4d70:	fbe4fbe4 fbe4fbe4 fbe4fbe4 fbe4fbe4     ................
    4d80:	fbe4ffff fbe4fbe4 fbe4fbe4 fbe4fbe4     ................
    4d90:	fbe4fbe4 fbe4fbe4 fbe4fbe4 fbe4fbe4     ................
    4da0:	fbe4fbe4 fbe4fbe4 fbe4fbe4 fbe4fbe4     ................
    4db0:	fbe4fbe4 fbe4fbe4 fbe4fbe4 fffffbe4     ................
    4dc0:	fbe4fbe4 fbe4fbe4 fbe4fbe4 fbe4fbe4     ................
    4dd0:	fbe4fbe4 fbe4fbe4 fbe4fbe4 fbe4fbe4     ................
    4de0:	fbe4fbe4 fbe4fbe4 fbe4fbe4 fbe4fbe4     ................
    4df0:	fbe4fbe4 fffffbe4 fbe4ffff fbe4fbe4     ................
    4e00:	fbe4fbe4 fbe4fbe4 fbe4fbe4 fbe4fbe4     ................
    4e10:	fbe4fbe4 fbe4fbe4 fbe4fbe4 fbe4fbe4     ................
    4e20:	fbe4fbe4 fbe4fbe4 fbe4fbe4 fbe4fbe4     ................
    4e30:	fbe4fbe4 fbe4ffff fbe4fbe4 fbe4fbe4     ................
    4e40:	fbe4fbe4 fbe4fbe4 fbe4fbe4 fbe4fbe4     ................
    4e50:	fbe4fbe4 fbe4fbe4 fbe4fbe4 fbe4fbe4     ................
    4e60:	fbe4fbe4 fbe4fbe4 fbe4fbe4 fbe4fbe4     ................
    4e70:	fffffbe4 fbe4fbe4 fbe4fbe4 fbe4fbe4     ................
    4e80:	fbe4fbe4 fbe4fbe4 fbe4fbe4 fbe4fbe4     ................
    4e90:	fbe4fbe4 fbe4fbe4 fbe4fbe4 fbe4fbe4     ................
    4ea0:	fbe4fbe4 fbe4fbe4 fffffbe4 fbe4ffff     ................
    4eb0:	fbe4fbe4 fbe4fbe4 fbe4fbe4 fbe4fbe4     ................
    4ec0:	fbe4fbe4 fbe4fbe4 fbe4fbe4 fbe4fbe4     ................
    4ed0:	fbe4fbe4 fbe4fbe4 fbe4fbe4 fbe4fbe4     ................
    4ee0:	fbe4fbe4 fbe4fbe4 fbe4ffff fbe4fbe4     ................
    4ef0:	fbe4fbe4 fbe4fbe4 fbe4fbe4 fbe4fbe4     ................
    4f00:	fbe4fbe4 fbe4fbe4 fbe4fbe4 fbe4fbe4     ................
    4f10:	fbe4fbe4 fbe4fbe4 fbe4fbe4 fbe4fbe4     ................
    4f20:	fbe4fbe4 fffffbe4 fbe4fbe4 fbe4fbe4     ................
    4f30:	fbe4fbe4 fbe4fbe4 fbe4fbe4 fbe4fbe4     ................
    4f40:	fbe4fbe4 fbe4fbe4 fbe4fbe4 fbe4fbe4     ................
    4f50:	fbe4fbe4 fbe4fbe4 fbe4fbe4 fffffbe4     ................
    4f60:	fbe4ffff fbe4fbe4 fbe4fbe4 fbe4fbe4     ................
    4f70:	fbe4fbe4 fbe4fbe4 fbe4fbe4 fbe4fbe4     ................
    4f80:	fbe4fbe4 fbe4fbe4 fbe4fbe4 fbe4fbe4     ................
    4f90:	fbe4fbe4 fbe4fbe4 fbe4fbe4 fbe4ffff     ................
    4fa0:	fbe4fbe4 fbe4fbe4 fbe4fbe4 fbe4fbe4     ................
    4fb0:	fbe4fbe4 fbe4fbe4 fbe4fbe4 fbe4fbe4     ................
    4fc0:	fbe4fbe4 fbe4fbe4 fbe4fbe4 fbe4fbe4     ................
    4fd0:	fbe4fbe4 fbe4fbe4 fffffbe4 fbe4fbe4     ................
    4fe0:	fbe4fbe4 fbe4fbe4 fbe4fbe4 fbe4fbe4     ................
    4ff0:	fbe4fbe4 fbe4fbe4 fbe4fbe4 fbe4fbe4     ................
    5000:	fbe4fbe4 fbe4fbe4 fbe4fbe4 fbe4fbe4     ................
    5010:	fffffbe4 ffffffff ffffffff ffffffff     ................
    5020:	ffffffff ffffffff ffffffff ffffffff     ................
    5030:	ffffffff ffffffff ffffffff ffffffff     ................
    5040:	ffffffff ffffffff ffffffff ffffffff     ................
    5050:	ffffffff ffffffff ffffffff ffffffff     ................
    5060:	ffffffff ffffffff ffffffff ffffffff     ................
    5070:	ffffffff ffffffff ffffffff ffffffff     ................
    5080:	ffffffff ffffffff ffffffff ffffffff     ................
    5090:	ffffffff ffffffff ffffffff ffffffff     ................
    50a0:	ffffffff ffffffff ffffffff ffffffff     ................
    50b0:	ffffffff ffffffff ffffffff ffffffff     ................
	...

000050c8 <player>:
    50c8:	fbe4fbe4 fbe4fbe4 fbe4fbe4 fbe4fbe4     ................
    50d8:	fbe4fbe4 0000fbe4 00000000 00000000     ................
    50e8:	00000000 fbe40000 fbe4fbe4 fbe4fbe4     ................
    50f8:	fbe4fbe4 fbe4fbe4 fbe4fbe4 fbe4fbe4     ................
    5108:	fbe4fbe4 fbe4fbe4 fbe4fbe4 0000fbe4     ................
    5118:	051d0000 051d051d 051d051d 051d051d     ................
    5128:	0000051d fbe40000 fbe4fbe4 fbe4fbe4     ................
    5138:	fbe4fbe4 fbe4fbe4 fbe4fbe4 fbe4fbe4     ................
    5148:	fbe4fbe4 0000fbe4 051d0000 051d051d     ................
    5158:	051d051d 051d051d 051d051d 051d051d     ................
    5168:	0000051d fbe40000 fbe4fbe4 fbe4fbe4     ................
    5178:	fbe4fbe4 fbe4fbe4 fbe4fbe4 fbe4fbe4     ................
    5188:	051d0000 051d051d 051d051d 051d051d     ................
    5198:	051d051d 051d051d 051d051d 051d051d     ................
    51a8:	0000051d fbe4fbe4 fbe4fbe4 fbe4fbe4     ................
    51b8:	fbe4fbe4 fbe4fbe4 0000fbe4 051d051d     ................
    51c8:	051d051d 051d051d 051d051d 051d051d     ................
    51d8:	051d051d 051d051d 051d051d 051d051d     ................
    51e8:	fbe40000 fbe4fbe4 fbe4fbe4 fbe4fbe4     ................
    51f8:	fbe4fbe4 051d0000 051d051d 051d051d     ................
    5208:	051d051d 051d051d 051d051d 051d051d     ................
    5218:	051d051d 051d051d 051d051d 0000051d     ................
    5228:	fbe4fbe4 fbe4fbe4 fbe4fbe4 0000fbe4     ................
    5238:	051d051d 051d051d 051d051d 051d051d     ................
    5248:	051d051d 051d051d 051d051d 051d051d     ................
    5258:	051d051d 051d051d 051d051d fbe40000     ................
    5268:	fbe4fbe4 fbe4fbe4 051d0000 051d051d     ................
    5278:	051d051d 051d051d 051d051d 051d051d     ................
    5288:	051d051d 051d051d 051d051d 051d051d     ................
    5298:	051d051d 051d051d 0000051d fbe4fbe4     ................
    52a8:	fbe4fbe4 051d0000 051d051d 051d051d     ................
    52b8:	051d051d 051d051d 3a593a59 3a593a59     ........Y:Y:Y:Y:
    52c8:	3a593a59 051d051d 051d051d 051d051d     Y:Y:............
    52d8:	051d051d 0000051d fbe4fbe4 0000fbe4     ................
    52e8:	051d051d 051d051d 051d051d 051d051d     ................
    52f8:	3a59051d 3a593a59 3a593a59 3a593a59     ..Y:Y:Y:Y:Y:Y:Y:
    5308:	3a593a59 051d051d 051d051d 051d051d     Y:Y:............
    5318:	051d051d fbe40000 0000fbe4 051d051d     ................
    5328:	051d051d 051d051d 3a59051d 3a593a59     ..........Y:Y:Y:
    5338:	3a593a59 3a593a59 3a593a59 3a593a59     Y:Y:Y:Y:Y:Y:Y:Y:
    5348:	051d3a59 051d051d 051d051d 051d051d     Y:..............
    5358:	fbe40000 051d0000 051d051d 051d051d     ................
    5368:	051d051d 3a593a59 3a593a59 3a593a59     ....Y:Y:Y:Y:Y:Y:
    5378:	3a593a59 3a593a59 3a593a59 051d3a59     Y:Y:Y:Y:Y:Y:Y:..
    5388:	051d051d 051d051d 051d051d fbe40000     ................
    5398:	051d0000 051d051d 051d051d 051d051d     ................
    53a8:	3a593a59 3a593a59 3a593a59 3a593a59     Y:Y:Y:Y:Y:Y:Y:Y:
    53b8:	3a593a59 3a593a59 3a593a59 051d051d     Y:Y:Y:Y:Y:Y:....
    53c8:	051d051d 051d051d 0000051d 051d0000     ................
    53d8:	051d051d 051d051d 3a59051d 3a593a59     ..........Y:Y:Y:
    53e8:	3a593a59 3a593a59 3a593a59 3a593a59     Y:Y:Y:Y:Y:Y:Y:Y:
    53f8:	3a593a59 3a593a59 051d3a59 051d051d     Y:Y:Y:Y:Y:......
    5408:	051d051d 0000051d 051d0000 051d051d     ................
    5418:	051d051d 3a59051d 3a593a59 3a593a59     ......Y:Y:Y:Y:Y:
    5428:	3a593a59 3a593a59 3a593a59 3a593a59     Y:Y:Y:Y:Y:Y:Y:Y:
    5438:	3a593a59 051d3a59 051d051d 051d051d     Y:Y:Y:..........
    5448:	0000051d 051d0000 051d051d 051d051d     ................
    5458:	3a59051d 3a593a59 3a593a59 3a593a59     ..Y:Y:Y:Y:Y:Y:Y:
    5468:	3a593a59 3a593a59 3a593a59 3a593a59     Y:Y:Y:Y:Y:Y:Y:Y:
    5478:	051d3a59 051d051d 051d051d 0000051d     Y:..............
    5488:	051d0000 051d051d 051d051d 3a59051d     ..............Y:
    5498:	3a593a59 3a593a59 3a593a59 3a593a59     Y:Y:Y:Y:Y:Y:Y:Y:
    54a8:	3a593a59 3a593a59 3a593a59 051d3a59     Y:Y:Y:Y:Y:Y:Y:..
    54b8:	051d051d 051d051d 0000051d 051d0000     ................
    54c8:	051d051d 051d051d 3a59051d 3a593a59     ..........Y:Y:Y:
    54d8:	3a593a59 3a593a59 3a593a59 3a593a59     Y:Y:Y:Y:Y:Y:Y:Y:
    54e8:	3a593a59 3a593a59 051d3a59 051d051d     Y:Y:Y:Y:Y:......
    54f8:	051d051d 0000051d 051d0000 051d051d     ................
    5508:	051d051d 051d051d 3a593a59 3a593a59     ........Y:Y:Y:Y:
    5518:	3a593a59 3a593a59 3a593a59 3a593a59     Y:Y:Y:Y:Y:Y:Y:Y:
    5528:	3a593a59 051d051d 051d051d 051d051d     Y:Y:............
    5538:	fbe40000 0000fbe4 051d051d 051d051d     ................
    5548:	051d051d 3a593a59 3a593a59 3a593a59     ....Y:Y:Y:Y:Y:Y:
    5558:	3a593a59 3a593a59 3a593a59 3a593a59     Y:Y:Y:Y:Y:Y:Y:Y:
    5568:	051d051d 051d051d 051d051d fbe40000     ................
    5578:	0000fbe4 051d051d 051d051d 051d051d     ................
    5588:	3a59051d 3a593a59 3a593a59 3a593a59     ..Y:Y:Y:Y:Y:Y:Y:
    5598:	3a593a59 3a593a59 051d3a59 051d051d     Y:Y:Y:Y:Y:......
    55a8:	051d051d 051d051d fbe40000 fbe4fbe4     ................
    55b8:	051d0000 051d051d 051d051d 051d051d     ................
    55c8:	3a59051d 3a593a59 3a593a59 3a593a59     ..Y:Y:Y:Y:Y:Y:Y:
    55d8:	051d3a59 051d051d 051d051d 051d051d     Y:..............
    55e8:	0000051d fbe4fbe4 fbe4fbe4 051d0000     ................
    55f8:	051d051d 051d051d 051d051d 051d051d     ................
    5608:	3a59051d 3a593a59 051d3a59 051d051d     ..Y:Y:Y:Y:......
    5618:	051d051d 051d051d 051d051d 0000051d     ................
    5628:	fbe4fbe4 fbe4fbe4 0000fbe4 051d051d     ................
    5638:	051d051d 051d051d 051d051d 051d051d     ................
    5648:	051d051d 051d051d 051d051d 051d051d     ................
    5658:	051d051d 051d051d fbe40000 fbe4fbe4     ................
    5668:	fbe4fbe4 fbe4fbe4 051d0000 051d051d     ................
    5678:	051d051d 051d051d 051d051d 051d051d     ................
    5688:	051d051d 051d051d 051d051d 051d051d     ................
    5698:	0000051d fbe4fbe4 fbe4fbe4 fbe4fbe4     ................
    56a8:	fbe4fbe4 0000fbe4 051d051d 051d051d     ................
    56b8:	051d051d 051d051d 051d051d 051d051d     ................
    56c8:	051d051d 051d051d 051d051d fbe40000     ................
    56d8:	fbe4fbe4 fbe4fbe4 fbe4fbe4 fbe4fbe4     ................
    56e8:	fbe4fbe4 051d0000 051d051d 051d051d     ................
    56f8:	051d051d 051d051d 051d051d 051d051d     ................
    5708:	051d051d 0000051d fbe4fbe4 fbe4fbe4     ................
    5718:	fbe4fbe4 fbe4fbe4 fbe4fbe4 fbe4fbe4     ................
    5728:	0000fbe4 051d0000 051d051d 051d051d     ................
    5738:	051d051d 051d051d 051d051d 0000051d     ................
    5748:	fbe40000 fbe4fbe4 fbe4fbe4 fbe4fbe4     ................
    5758:	fbe4fbe4 fbe4fbe4 fbe4fbe4 fbe4fbe4     ................
    5768:	0000fbe4 00000000 051d051d 051d051d     ................
    5778:	051d051d 00000000 fbe40000 fbe4fbe4     ................
    5788:	fbe4fbe4 fbe4fbe4 fbe4fbe4 fbe4fbe4     ................
    5798:	fbe4fbe4 fbe4fbe4 fbe4fbe4 fbe4fbe4     ................
    57a8:	fbe4fbe4 00000000 00000000 00000000     ................
    57b8:	fbe4fbe4 fbe4fbe4 fbe4fbe4 fbe4fbe4     ................
	...

000057d0 <obstacle>:
    57d0:	ffffffff ffffffff ffffffff ffffffff     ................
    57e0:	ffffffff 0000ffff 00000000 00000000     ................
    57f0:	00000000 ffff0000 ffffffff ffffffff     ................
    5800:	ffffffff ffffffff ffffffff ffffffff     ................
    5810:	ffffffff ffffffff ffffffff 0000ffff     ................
    5820:	e8e40000 e8e4e8e4 e8e4e8e4 e8e4e8e4     ................
    5830:	0000e8e4 ffff0000 ffffffff ffffffff     ................
    5840:	ffffffff ffffffff ffffffff ffffffff     ................
    5850:	ffffffff 0000ffff e8e40000 e8e4e8e4     ................
    5860:	e8e4e8e4 e8e4e8e4 e8e4e8e4 e8e4e8e4     ................
    5870:	0000e8e4 ffff0000 ffffffff ffffffff     ................
    5880:	ffffffff ffffffff ffffffff ffffffff     ................
    5890:	e8e40000 e8e4e8e4 e8e4e8e4 e8e4e8e4     ................
    58a0:	e8e4e8e4 e8e4e8e4 e8e4e8e4 e8e4e8e4     ................
    58b0:	0000e8e4 ffffffff ffffffff ffffffff     ................
    58c0:	ffffffff ffffffff 0000ffff e8e4e8e4     ................
    58d0:	e8e4e8e4 e8e4e8e4 e8e4e8e4 e8e4e8e4     ................
    58e0:	e8e4e8e4 e8e4e8e4 e8e4e8e4 e8e4e8e4     ................
    58f0:	ffff0000 ffffffff ffffffff ffffffff     ................
    5900:	ffffffff e8e40000 e8e4e8e4 e8e4e8e4     ................
    5910:	e8e4e8e4 e8e4e8e4 e8e4e8e4 e8e4e8e4     ................
    5920:	e8e4e8e4 e8e4e8e4 e8e4e8e4 0000e8e4     ................
    5930:	ffffffff ffffffff ffffffff 0000ffff     ................
    5940:	e8e4e8e4 e8e4e8e4 e8e4e8e4 e8e4e8e4     ................
    5950:	e8e4e8e4 e8e4e8e4 e8e4e8e4 e8e4e8e4     ................
    5960:	e8e4e8e4 e8e4e8e4 e8e4e8e4 ffff0000     ................
    5970:	ffffffff ffffffff e8e40000 e8e4e8e4     ................
    5980:	e8e4e8e4 e8e4e8e4 e8e4e8e4 e8e4e8e4     ................
    5990:	e8e4e8e4 e8e4e8e4 e8e4e8e4 e8e4e8e4     ................
    59a0:	e8e4e8e4 e8e4e8e4 0000e8e4 ffffffff     ................
    59b0:	ffffffff e8e40000 e8e4e8e4 e8e4e8e4     ................
    59c0:	e8e4e8e4 e8e4e8e4 fbe4fbe4 fbe4fbe4     ................
    59d0:	fbe4fbe4 e8e4e8e4 e8e4e8e4 e8e4e8e4     ................
    59e0:	e8e4e8e4 0000e8e4 ffffffff 0000ffff     ................
    59f0:	e8e4e8e4 e8e4e8e4 e8e4e8e4 e8e4e8e4     ................
    5a00:	fbe4e8e4 fbe4fbe4 fbe4fbe4 fbe4fbe4     ................
    5a10:	fbe4fbe4 e8e4e8e4 e8e4e8e4 e8e4e8e4     ................
    5a20:	e8e4e8e4 ffff0000 0000ffff e8e4e8e4     ................
    5a30:	e8e4e8e4 e8e4e8e4 fbe4e8e4 fbe4fbe4     ................
    5a40:	fbe4fbe4 fbe4fbe4 fbe4fbe4 fbe4fbe4     ................
    5a50:	e8e4fbe4 e8e4e8e4 e8e4e8e4 e8e4e8e4     ................
    5a60:	ffff0000 e8e40000 e8e4e8e4 e8e4e8e4     ................
    5a70:	e8e4e8e4 fbe4fbe4 fbe4fbe4 fbe4fbe4     ................
    5a80:	fbe4fbe4 fbe4fbe4 fbe4fbe4 e8e4fbe4     ................
    5a90:	e8e4e8e4 e8e4e8e4 e8e4e8e4 ffff0000     ................
    5aa0:	e8e40000 e8e4e8e4 e8e4e8e4 e8e4e8e4     ................
    5ab0:	fbe4fbe4 fbe4fbe4 fbe4fbe4 fbe4fbe4     ................
    5ac0:	fbe4fbe4 fbe4fbe4 fbe4fbe4 e8e4e8e4     ................
    5ad0:	e8e4e8e4 e8e4e8e4 0000e8e4 e8e40000     ................
    5ae0:	e8e4e8e4 e8e4e8e4 fbe4e8e4 fbe4fbe4     ................
    5af0:	fbe4fbe4 fbe4fbe4 fbe4fbe4 fbe4fbe4     ................
    5b00:	fbe4fbe4 fbe4fbe4 e8e4fbe4 e8e4e8e4     ................
    5b10:	e8e4e8e4 0000e8e4 e8e40000 e8e4e8e4     ................
    5b20:	e8e4e8e4 fbe4e8e4 fbe4fbe4 fbe4fbe4     ................
    5b30:	fbe4fbe4 fbe4fbe4 fbe4fbe4 fbe4fbe4     ................
    5b40:	fbe4fbe4 e8e4fbe4 e8e4e8e4 e8e4e8e4     ................
    5b50:	0000e8e4 e8e40000 e8e4e8e4 e8e4e8e4     ................
    5b60:	fbe4e8e4 fbe4fbe4 fbe4fbe4 fbe4fbe4     ................
    5b70:	fbe4fbe4 fbe4fbe4 fbe4fbe4 fbe4fbe4     ................
    5b80:	e8e4fbe4 e8e4e8e4 e8e4e8e4 0000e8e4     ................
    5b90:	e8e40000 e8e4e8e4 e8e4e8e4 fbe4e8e4     ................
    5ba0:	fbe4fbe4 fbe4fbe4 fbe4fbe4 fbe4fbe4     ................
    5bb0:	fbe4fbe4 fbe4fbe4 fbe4fbe4 e8e4fbe4     ................
    5bc0:	e8e4e8e4 e8e4e8e4 0000e8e4 e8e40000     ................
    5bd0:	e8e4e8e4 e8e4e8e4 fbe4e8e4 fbe4fbe4     ................
    5be0:	fbe4fbe4 fbe4fbe4 fbe4fbe4 fbe4fbe4     ................
    5bf0:	fbe4fbe4 fbe4fbe4 e8e4fbe4 e8e4e8e4     ................
    5c00:	e8e4e8e4 0000e8e4 e8e40000 e8e4e8e4     ................
    5c10:	e8e4e8e4 e8e4e8e4 fbe4fbe4 fbe4fbe4     ................
    5c20:	fbe4fbe4 fbe4fbe4 fbe4fbe4 fbe4fbe4     ................
    5c30:	fbe4fbe4 e8e4e8e4 e8e4e8e4 e8e4e8e4     ................
    5c40:	ffff0000 0000ffff e8e4e8e4 e8e4e8e4     ................
    5c50:	e8e4e8e4 fbe4fbe4 fbe4fbe4 fbe4fbe4     ................
    5c60:	fbe4fbe4 fbe4fbe4 fbe4fbe4 fbe4fbe4     ................
    5c70:	e8e4e8e4 e8e4e8e4 e8e4e8e4 ffff0000     ................
    5c80:	0000ffff e8e4e8e4 e8e4e8e4 e8e4e8e4     ................
    5c90:	fbe4e8e4 fbe4fbe4 fbe4fbe4 fbe4fbe4     ................
    5ca0:	fbe4fbe4 fbe4fbe4 e8e4fbe4 e8e4e8e4     ................
    5cb0:	e8e4e8e4 e8e4e8e4 ffff0000 ffffffff     ................
    5cc0:	e8e40000 e8e4e8e4 e8e4e8e4 e8e4e8e4     ................
    5cd0:	fbe4e8e4 fbe4fbe4 fbe4fbe4 fbe4fbe4     ................
    5ce0:	e8e4fbe4 e8e4e8e4 e8e4e8e4 e8e4e8e4     ................
    5cf0:	0000e8e4 ffffffff ffffffff e8e40000     ................
    5d00:	e8e4e8e4 e8e4e8e4 e8e4e8e4 e8e4e8e4     ................
    5d10:	fbe4e8e4 fbe4fbe4 e8e4fbe4 e8e4e8e4     ................
    5d20:	e8e4e8e4 e8e4e8e4 e8e4e8e4 0000e8e4     ................
    5d30:	ffffffff ffffffff 0000ffff e8e4e8e4     ................
    5d40:	e8e4e8e4 e8e4e8e4 e8e4e8e4 e8e4e8e4     ................
    5d50:	e8e4e8e4 e8e4e8e4 e8e4e8e4 e8e4e8e4     ................
    5d60:	e8e4e8e4 e8e4e8e4 ffff0000 ffffffff     ................
    5d70:	ffffffff ffffffff e8e40000 e8e4e8e4     ................
    5d80:	e8e4e8e4 e8e4e8e4 e8e4e8e4 e8e4e8e4     ................
    5d90:	e8e4e8e4 e8e4e8e4 e8e4e8e4 e8e4e8e4     ................
    5da0:	0000e8e4 ffffffff ffffffff ffffffff     ................
    5db0:	ffffffff 0000ffff e8e4e8e4 e8e4e8e4     ................
    5dc0:	e8e4e8e4 e8e4e8e4 e8e4e8e4 e8e4e8e4     ................
    5dd0:	e8e4e8e4 e8e4e8e4 e8e4e8e4 ffff0000     ................
    5de0:	ffffffff ffffffff ffffffff ffffffff     ................
    5df0:	ffffffff e8e40000 e8e4e8e4 e8e4e8e4     ................
    5e00:	e8e4e8e4 e8e4e8e4 e8e4e8e4 e8e4e8e4     ................
    5e10:	e8e4e8e4 0000e8e4 ffffffff ffffffff     ................
    5e20:	ffffffff ffffffff ffffffff ffffffff     ................
    5e30:	0000ffff e8e40000 e8e4e8e4 e8e4e8e4     ................
    5e40:	e8e4e8e4 e8e4e8e4 e8e4e8e4 0000e8e4     ................
    5e50:	ffff0000 ffffffff ffffffff ffffffff     ................
    5e60:	ffffffff ffffffff ffffffff ffffffff     ................
    5e70:	0000ffff 00000000 e8e4e8e4 e8e4e8e4     ................
    5e80:	e8e4e8e4 00000000 ffff0000 ffffffff     ................
    5e90:	ffffffff ffffffff ffffffff ffffffff     ................
    5ea0:	ffffffff ffffffff ffffffff ffffffff     ................
    5eb0:	ffffffff 00000000 00000000 00000000     ................
    5ec0:	ffffffff ffffffff ffffffff ffffffff     ................
	...

00005ed8 <gameOver>:
	...
   106d8:	00200000 00200020 00200020 00200020     .. . . . . . . .
   106e8:	00200020 00200020 00200020 00200020      . . . . . . . .
   106f8:	00200020 00200020 00200020 00200020      . . . . . . . .
   10708:	00200020 00200020 00200020 00200020      . . . . . . . .
   10718:	00200020 00200020 00000020 00000000      . . . . .......
	...
   1074c:	00200020 00200020 00200020 00200020      . . . . . . . .
   1075c:	00200020 00200020 00200020 00200020      . . . . . . . .
   1076c:	00200020 00200020 00000000 00000000      . . . .........
	...
   1079c:	00200000 00200020 00200020 00200020     .. . . . . . . .
   107ac:	00200020 00200020 00200020 00000000      . . . . . .....
	...
   107e4:	00200000 00200020 00200020 00200020     .. . . . . . . .
   107f4:	00200020 00200020 00200020 00000000      . . . . . .....
	...
   1080c:	00200000 00200020 00200020 00200020     .. . . . . . . .
   1081c:	00200020 00200020 00200020 00200020      . . . . . . . .
   1082c:	00200020 00200020 00200020 00200020      . . . . . . . .
   1083c:	00200020 00200020 00200020 00200020      . . . . . . . .
   1084c:	00200020 00200020 00200020 00200020      . . . . . . . .
   1085c:	00200020 00200020 00200020 00200020      . . . . . . . .
   1086c:	00200020 00000000 00000000 00000000      . .............
	...
   10bd8:	5b221081 5b215b01 5b215b21 5b215b21     .."[.[![![![![![
   10be8:	5b215b21 5b215b21 5b215b21 5b215b21     ![![![![![![![![
   10bf8:	5b215b21 5b215b21 5b215b21 5b215b21     ![![![![![![![![
   10c08:	5b215b21 5b215b21 5b215b21 5b215b21     ![![![![![![![![
   10c18:	5b215b21 5b215b01 08605b02 00000000     ![![.[![.[`.....
	...
   10c48:	4a620000 5b016342 5b215b21 5b225b21     ..bJBc.[![![!["[
   10c58:	5b225b22 5b225b22 5b225b22 5b225b22     "["["["["["["["[
   10c68:	5b225b22 5b225b22 63225b22 002052c2     "["["["["["c.R .
	...
   10c9c:	63622941 5b225b02 5b225b22 5b225b22     A)bc.["["["["["[
   10cac:	5b225b22 5b225b22 63425b02 00004a82     "["["["[.[Bc.J..
	...
   10ce4:	634231c1 5b215b01 5b215b21 5b215b21     .1Bc.[![![![![![
   10cf4:	5b215b21 5b215b21 63215b21 002052c1     ![![![![![!c.R .
	...
   10d0c:	5b214aa2 5b015b01 5b015b01 5b015b01     .J![.[.[.[.[.[.[
   10d1c:	5b015b01 5b015b01 5b015b01 5b015b01     .[.[.[.[.[.[.[.[
   10d2c:	5b015b01 5b015b01 5b015b01 5b015b01     .[.[.[.[.[.[.[.[
   10d3c:	5b015b01 5b015b01 5b015b01 5b015b01     .[.[.[.[.[.[.[.[
   10d4c:	5b015b01 5b015b01 5b015b01 5b015b01     .[.[.[.[.[.[.[.[
   10d5c:	5b015b01 5b015b01 5b015b01 5b015b01     .[.[.[.[.[.[.[.[
   10d6c:	63425b01 00002941 00000000 00000000     .[BcA)..........
	...
   10e58:	ffe32962 ffe1ffe1 ffe1ffe1 ffe1ffe1     b)..............
   10e68:	ffe1ffe1 ffe1ffe1 ffe1ffe1 ffe1ffe1     ................
   10e78:	ffe1ffe1 ffe1ffe1 ffe1ffe1 ffe1ffe1     ................
   10e88:	ffe1ffe1 ffe1ffe1 ffe1ffe1 ffe1ffe1     ................
   10e98:	ffe1ffe1 ffe1ffe1 18e1f7c2 00000000     ................
	...
   10ec8:	c6430000 f7e1ffe1 ffe1ffe1 ffe1ffe1     ..C.............
   10ed8:	ffe1ffe1 ffe1ffe1 ffe1ffe1 ffe1ffe1     ................
   10ee8:	ffe1ffe1 ffe1ffe1 ffe1ffe1 0860e722     ............".`.
	...
   10f18:	00000020 ffe26b42 ffe1ffc1 ffe1ffe1      ...Bk..........
   10f28:	ffe1ffe1 ffe1ffe1 ffe1ffe1 ffe1ffe1     ................
   10f38:	0000cea3 00000000 00000000 00000000     ................
	...
   10f60:	00000020 ffe28c82 ffe1ffc1 ffe1ffe1      ...............
   10f70:	ffe1ffe1 ffe1ffe1 ffe1ffe1 ffe1ffe1     ................
   10f80:	0840df22 00000000 00200000 ffe1d6e2     ".@....... .....
   10f90:	ffe1ffe1 ffe1ffe1 ffe1ffe1 ffe1ffe1     ................
   10fa0:	ffe1ffe1 ffe1ffe1 ffe1ffe1 ffe1ffe1     ................
   10fb0:	ffe1ffe1 ffe1ffe1 ffe1ffe1 ffe1ffe1     ................
   10fc0:	ffe1ffe1 ffe1ffe1 ffe1ffe1 ffe1ffe1     ................
   10fd0:	ffe1ffe1 ffe1ffe1 ffe1ffe1 ffe1ffe1     ................
   10fe0:	ffe1ffe1 ffe1ffe1 ffe1ffe1 ffe2ffc1     ................
   10ff0:	00006b63 00000020 00000000 00000000     ck.. ...........
	...
   110d8:	efe22962 e7c1efc1 efc1efc1 efc1efc1     b)..............
   110e8:	efc1efc1 efc1efc1 efc1efc1 efc1efc1     ................
   110f8:	efc1efc1 efc1efc1 efc1efc1 efc1efc1     ................
   11108:	efc1efc1 efc1efc1 efc1efc1 efc1efc1     ................
   11118:	e7c1efc1 efe1efc1 18e1e781 00000000     ................
	...
   11148:	b6030000 e7c1f7e1 efc1efc1 efc1efc1     ................
   11158:	efc1efc1 efc1efc1 efc1efc1 efc1e7c1     ................
   11168:	efc1efc1 e7c1efc1 efe0e7c1 0840cf01     ..............@.
	...
   11198:	00000020 ffe16322 efc1e7a1 efc1efc1      ..."c..........
   111a8:	efc1efc1 efc1efc1 efc1efc1 f7e1e7c1     ................
   111b8:	0000be83 00000000 00000000 00000000     ................
	...
   111e0:	00000020 ffe18482 efc1e7a1 efc1efc1      ...............
   111f0:	efc1efc1 efc1efc1 efc1efc1 efe1e7c1     ................
   11200:	0840d701 00000000 00200000 f7e1c6c2     ..@....... .....
   11210:	efc1e7c1 efc1efc1 efc1efc1 efc1efc1     ................
   11220:	efc1efc1 efc1efc1 efc1efc1 efc1efc1     ................
   11230:	efc1efc1 efc1efc1 efc1efc1 efc1efc1     ................
   11240:	efc1efc1 efc1efc1 efc1efc1 efc1efc1     ................
   11250:	efc1efc1 efc1efc1 efc1efc1 efc1efc1     ................
   11260:	efc1efc1 efc1efc1 efc1efc1 ffe1efa1     ................
   11270:	00006342 00000020 00000000 00000000     Bc.. ...........
	...
   11358:	efe22962 efe1efe1 efe1efe1 efe1efe1     b)..............
   11368:	efe1efe1 efe1efe1 efe1efe1 efe1efe1     ................
   11378:	efe1efe1 efe1efe1 efe1efe1 efe1efe1     ................
   11388:	efe1efe1 efe1efe1 efe1efe1 efe1efe1     ................
   11398:	efe1efe1 efe1efe1 18e1e7a2 00000000     ................
	...
   113c8:	be230000 efe1f7e1 efe1efe1 efe1efe1     ..#.............
   113d8:	efe1efe1 efe1efe1 efe1efe1 efe1efe1     ................
   113e8:	efe1efe1 efe1efe1 f7e1efe1 0840d722     ............".@.
	...
   11418:	00000020 ffe16342 efe1efc1 efe1efe1      ...Bc..........
   11428:	efe1efe1 efe1efe1 efe1efe1 f7e1efe1     ................
   11438:	0000c6a3 00000000 00000000 00000000     ................
	...
   11460:	00000020 ffe18c82 efe1efc1 efe1efe1      ...............
   11470:	efe1efe1 efe1efe1 efe1efe1 f7e1efe1     ................
   11480:	0840d722 00000000 00200000 f7e1cee2     ".@....... .....
   11490:	efe1efe1 efe1efe1 efe1efe1 efe1efe1     ................
   114a0:	efe1efe1 efe1efe1 efe1efe1 efe1efe1     ................
   114b0:	efe1efe1 efe1efe1 efe1efe1 efe1efe1     ................
   114c0:	efe1efe1 efe1efe1 efe1efe1 efe1efe1     ................
   114d0:	efe1efe1 efe1efe1 efe1efe1 efe1efe1     ................
   114e0:	efe1efe1 efe1efe1 efe1efe1 ffe1efc1     ................
   114f0:	00006362 00000020 00000000 00000000     bc.. ...........
	...
   115d8:	efe22962 efe1efe1 efe1efe1 efe1efe1     b)..............
   115e8:	efe1efe1 efe1efe1 efe1efe1 efe1efe1     ................
   115f8:	efe1efe1 efe1efe1 efe1efe1 efe1efe1     ................
   11608:	efe1efe1 efe1efe1 efe1efe1 efe1efe1     ................
   11618:	efe1efe1 efe1efe1 18e1e7a2 00000000     ................
	...
   11648:	be230000 efe1ffe1 efe1efe1 efe1efe1     ..#.............
   11658:	efe1efe1 efe1efe1 efe1efe1 efe1efe1     ................
   11668:	efe1efe1 efe1efe1 f7e1efe1 0840d721     ............!.@.
	...
   11698:	00000020 ffe16342 efe1efc1 efe1efe1      ...Bc..........
   116a8:	efe1efe1 efe1efe1 efe1efe1 f7e1efe1     ................
   116b8:	0000c6a3 00000000 00000000 00000000     ................
	...
   116e0:	00000020 ffe18c82 efe1efc1 efe1efe1      ...............
   116f0:	efe1efe1 efe1efe1 efe1efe1 f7e1efe1     ................
   11700:	0840d722 00000000 00200000 f7e1cee2     ".@....... .....
   11710:	efe1efe1 efe1efe1 efe1efe1 efe1efe1     ................
   11720:	efe1efe1 efe1efe1 efe1efe1 efe1efe1     ................
   11730:	efe1efe1 efe1efe1 efe1efe1 efe1efe1     ................
   11740:	f7e1efe1 f7e1f7e1 efe1f7e1 f7e1f7e1     ................
   11750:	f7e1f7e1 f7e1f7e1 f7e1f7e1 f7e1f7e1     ................
   11760:	f7e1f7e1 f7e1f7e1 f7e1f7e1 ffe1efc1     ................
   11770:	00006362 00000020 00000000 00000000     bc.. ...........
	...
   1184c:	00200020 00200020 00000020 efe22982      . . . . ....)..
   1185c:	efe1efe1 efe1efe1 efe1efe1 efc1efe1     ................
   1186c:	efc1efc1 efc1efc1 efc1efc1 efc1efc1     ................
   1187c:	efc1efc1 efc1efc1 efc1efc1 efc1efc1     ................
   1188c:	efc1efc1 efc1efc1 efc1efc1 efc1efc1     ................
   1189c:	efe1efc1 18e1e782 00000000 00000000     ................
	...
   118c4:	00200000 be230000 efe1ffe1 efe1efe1     .. ...#.........
   118d4:	efe1efe1 efe1efe1 efe1efe1 efe1efe1     ................
   118e4:	efe1efe1 efe1efe1 efe1efe1 f7e1efe1     ................
   118f4:	0860d721 00200000 00200020 00200020     !.`... . . . . .
	...
   11918:	00000020 ffe16342 efe1efc1 efe1efe1      ...Bc..........
   11928:	efe1efe1 efe1efe1 efe1efe1 f7e1efe1     ................
   11938:	0020c6a3 00200020 00200020 00200020     .. . . . . . . .
	...
   11960:	00000020 ffe18c82 efe1efc1 efe1efe1      ...............
   11970:	efe1efe1 efe1efe1 f7e1f7e1 f7e1efe1     ................
   11980:	0840d722 00000000 00200000 ffe1cee2     ".@....... .....
   11990:	f7e1efe1 f7e1f7e1 f7e1f7e1 f7e1f7e1     ................
   119a0:	f7e1f7e1 f7e1f7e1 efc1efe1 efc1efc1     ................
   119b0:	efc1efc1 efc1efc1 efc1efc1 efc1efc1     ................
   119c0:	efc1efc1 efc1efc1 efc1efc1 efc1efc1     ................
   119d0:	efc1efc1 efc1efc1 efc1efc1 efc1efc1     ................
   119e0:	efc1efc1 efc1efc1 efc1efc1 ffe1efa1     ................
   119f0:	00006342 00000020 00000000 00000000     Bc.. ...........
	...
   11ad8:	efe22142 efe1efe1 efe1efe1 efe1efe1     B!..............
   11ae8:	ffe1f7e1 ffe1ffe1 ffe1ffe1 ffe1ffe1     ................
   11af8:	ffe1ffe1 ffe1ffe1 ffe1ffe1 ffe1ffe1     ................
   11b08:	ffe1ffe1 ffe1ffe1 ffe1ffe1 ffe1ffe1     ................
   11b18:	ffe1ffe1 ffe1ffe1 18e0f7a2 00000000     ................
	...
   11b48:	be030000 efe1ffe1 efe1efe1 efe1efe1     ................
   11b58:	f7e0f7e0 f7e0f7e0 f7e1f7e0 f7e1f7e0     ................
   11b68:	efe1efe1 efe1efe1 f7e1efe1 0840d722     ............".@.
	...
   11b98:	00000020 ffe16342 efe1efc1 efe1efe1      ...Bc..........
   11ba8:	efe1efe1 efe1efe1 efe1efe1 f7e1efe1     ................
   11bb8:	0000c683 00000000 00000000 00000000     ................
	...
   11be0:	00000020 ffe18482 f7e1efc1 f7e1f7e1      ...............
   11bf0:	f7e1f7e1 f7e1f7e1 f7e1f7e1 f7e1efe1     ................
   11c00:	0840d722 00000000 00200000 ffe1cee2     ".@....... .....
   11c10:	f7e1efe1 f7e1f7e1 f7e1f7e1 f7e1f7e1     ................
   11c20:	f7e1f7e1 f7e1f7e1 ffe1f7e1 ffe1ffe1     ................
   11c30:	ffe1ffe1 ffe1ffe1 ffe1ffe1 ffe1ffe1     ................
   11c40:	ffe1ffe1 ffe1ffe1 ffe1ffe1 ffe1ffe1     ................
   11c50:	ffe1ffe1 ffe1ffe1 ffe1ffe1 ffe1ffe1     ................
   11c60:	ffe1ffe1 ffe1ffe1 ffe1ffe1 ffe2ffc1     ................
   11c70:	00006b83 00000020 00000000 00000000     .k.. ...........
	...
   11d48:	21410000 63226b82 63426342 5b026342     ..A!.k"cBcBcBc.[
   11d58:	efe17c22 efe1efe1 efe1efe1 f7e1efe1     "|..............
   11d68:	8cc1cee1 95019501 95019501 95019501     ................
   11d78:	95019501 95019501 95019501 95019501     ................
   11d88:	95019501 95019501 95019501 95019501     ................
   11d98:	95019501 950194e2 10808cc1 00000000     ................
	...
   11db8:	00200000 31a12981 29a12981 31a129a1     .. ..).1.).).).1
   11dc8:	c6832962 efe1f7e1 efe1efe1 efe1efe1     b)..............
   11dd8:	c6a3df42 c6a2c6c2 cec3c6a2 d722c6a3     B.............".
   11de8:	efe1f7e1 efe1efe1 efe1efe1 7c23e782     ..............#|
   11df8:	7c037c03 7c037c03 7c237c03 000018e1     .|.|.|.|.|#|....
	...
   11e18:	00000020 ffe16342 efe1efc1 efe1efe1      ...Bc..........
   11e28:	efe1efe1 f7e1efe1 f7e1f7e1 f7e1efe1     ................
   11e38:	7c03df42 7c037c03 7c037c03 7c037c03     B..|.|.|.|.|.|.|
   11e48:	000010c1 00000000 00000000 31e10000     ...............1
   11e58:	42214241 42214221 31c14241 ffe1a582     AB!B!B!BAB.1....
   11e68:	f7e1efe1 f7e1f7e1 f7e1f7e1 f7e1f7e1     ................
   11e78:	f7e1f7e1 f7e1efe1 0840d722 00000000     ........".@.....
   11e88:	00200000 ffe1cee2 f7e1efe1 f7e1f7e1     .. .............
   11e98:	f7e1f7e1 f7e1f7e1 f7e1f7e1 ffe1f7e1     ................
   11ea8:	7c22cee2 84428462 84428442 84428442     .."|b.B.B.B.B.B.
   11eb8:	84428442 84428442 84428442 84428442     B.B.B.B.B.B.B.B.
   11ec8:	84428442 84428442 84428442 84428442     B.B.B.B.B.B.B.B.
   11ed8:	84428442 84428442 84428442 84428442     B.B.B.B.B.B.B.B.
   11ee8:	84428442 8ca37c42 000039e2 00000000     B.B.B|...9......
	...
   11fc4:	00200000 63210000 ffc1ffe2 ffe1ffe1     .. ...!c........
   11fd4:	ffe1ffe1 efe1ffe1 efe1efe1 efe1efe1     ................
   11fe4:	ffe1efc1 00009501 00000020 00000000     ........ .......
	...
   12038:	10a00000 f7e2e784 f7e2f7e2 f7e2f7e2     ................
   12048:	efe1efe2 efe1efe1 efe1efe1 ffe1efc1     ................
   12058:	000173e3 00010021 00210001 4aa20001     .s..!.....!....J
   12068:	efe1ffe2 f7e1f7e1 efe1f7e1 ffe1f7e1     ................
   12078:	ffe1ffe1 ffe1ffe1 ffe3ffe1 000031c2     .............1..
	...
   12098:	00000020 ffe16342 f7e1efc1 f7e1f7e1      ...Bc..........
   120a8:	f7e1f7e1 f7e1f7e1 f7e1f7e1 f7e1f7e1     ................
   120b8:	ffe1f7e1 ffe1ffe1 ffe1ffe1 ffe2ffe1     ................
   120c8:	000029a1 00000000 00000000 d6e40020     .).......... ...
   120d8:	f7e1ffe1 ffe1ffe1 ffe2ffe1 efe1f7e1     ................
   120e8:	f7e1f7e1 f7e1f7e1 f7e1f7e1 f7e1f7e1     ................
   120f8:	f7e1f7e1 f7e1efe1 0840d722 00000000     ........".@.....
   12108:	00200000 ffe1cee2 f7e1efe1 f7e1f7e1     .. .............
   12118:	f7e1f7e1 f7e1f7e1 f7e1f7e1 ffe1efe1     ................
   12128:	0000a582 00000000 00000000 00000000     ................
	...
   12244:	00200000 5b010000 efc1ffe1 efc1efc1     .. ....[........
   12254:	efc1efc1 efe1efe1 efe1efe1 efe1efe1     ................
   12264:	ffe1efc1 00009501 00200020 00200020     ........ . . . .
   12274:	00200020 00200020 00200020 00200020      . . . . . . . .
   12284:	00200020 00200020 00200020 00200020      . . . . . . . .
   12294:	00200020 00200020 00200020 00000020      . . . . . . ...
	...
   122b8:	10a00000 f7e1df82 efe1efe1 efe1efe1     ................
   122c8:	efe1efe1 f7e1efe1 f7e1f7e1 ffe1efc1     ................
   122d8:	000073e2 00000020 00200000 4aa10000     .s.. ..... ....J
   122e8:	efe1ffe1 f7e1f7e1 f7e1f7e1 efc1f7e1     ................
   122f8:	efc1efc1 efc1efc1 f7e2efc1 000031a1     .............1..
	...
   12318:	00000020 ffe16342 f7e1efc1 f7e1f7e1      ...Bc..........
   12328:	f7e1f7e1 f7e1f7e1 f7e1f7e1 f7e1f7e1     ................
   12338:	efc1f7e1 efc1efc1 efc1efc1 f7e2efc1     ................
   12348:	00002981 00000000 00000000 cee30021     .)..........!...
   12358:	efc1f7e1 efe1efe1 efe1efe1 f7e1f7e1     ................
   12368:	f7e1f7e1 f7e1f7e1 f7e1f7e1 f7e1f7e1     ................
   12378:	f7e1f7e1 f7e1f7e1 0840df02 00000000     ..........@.....
   12388:	00200000 ffe1cee2 f7e1f7e1 f7e1f7e1     .. .............
   12398:	f7e1f7e1 f7e1f7e1 f7e1f7e1 ffe1f7e1     ................
   123a8:	0000a581 00200020 00200020 00200020     .... . . . . . .
   123b8:	00200020 00200020 00200020 00200020      . . . . . . . .
   123c8:	00200020 00200020 00200020 00200020      . . . . . . . .
   123d8:	00200020 00200020 00200020 00200020      . . . . . . . .
   123e8:	00200020 00200020 00000000 00000000      . . . .........
	...
   124c4:	00200000 5b010000 efc1ffe1 efe1efe1     .. ....[........
   124d4:	efe1efe1 efe1efe1 efe1efe1 efe1efe1     ................
   124e4:	ffe1efc1 00009501 00000020 00000000     ........ .......
	...
   12538:	10a00000 f7e1df82 f7e1efe1 f7e1f7e1     ................
   12548:	f7e1f7e1 f7e1f7e1 f7e1f7e1 ffe1efc1     ................
   12558:	000073e2 00000020 00200000 4aa10000     .s.. ..... ....J
   12568:	f7e1ffe1 f7e1f7e1 f7e1f7e1 f7e1f7e1     ................
   12578:	f7e1f7e1 f7e1f7e1 f7e2f7e1 000031a1     .............1..
	...
   12598:	00000020 ffe16342 f7e1efc1 f7e1f7e1      ...Bc..........
   125a8:	f7e1f7e1 f7e1f7e1 f7e1f7e1 f7e1f7e1     ................
   125b8:	f7e1f7e1 f7e1f7e1 f7e1f7e1 f7e2f7e1     ................
   125c8:	00002981 00000000 00000000 cee30020     .).......... ...
   125d8:	f7e1ffe1 f7e1f7e1 f7e1f7e1 f7e1f7e1     ................
   125e8:	f7e1f7e1 f7e1f7e1 f7e1f7e1 f7e1f7e1     ................
   125f8:	f7e1f7e1 f7e1f7e1 0840df02 00000000     ..........@.....
   12608:	00200000 ffe1d6e2 f7e1f7e1 f7e1f7e1     .. .............
   12618:	f7e1f7e1 f7e1f7e1 f7e1f7e1 ffe1f7e1     ................
   12628:	0000a581 00000000 00000000 00000000     ................
	...
   12744:	00200000 5b010000 efc1ffe1 efe1efe1     .. ....[........
   12754:	efe1efe1 efe1efe1 efe1efe1 efe1efe1     ................
   12764:	ffe1efc1 00009501 00000020 00000000     ........ .......
	...
   127b8:	10a00000 f7e1df82 f7e1f7e1 f7e1f7e1     ................
   127c8:	f7e1f7e1 f7e1f7e1 f7e1f7e1 ffe1efc1     ................
   127d8:	000073c2 00000020 00200000 4aa10000     .s.. ..... ....J
   127e8:	f7e1ffe1 f7e1f7e1 f7e1f7e1 f7e1f7e1     ................
   127f8:	f7e1f7e1 f7e1f7e1 f7e2f7e1 000031a1     .............1..
	...
   12818:	00000020 ffe16342 f7e1efc1 f7e1f7e1      ...Bc..........
   12828:	f7e1f7e1 f7e1f7e1 f7e1f7e1 f7e1f7e1     ................
   12838:	f7e1f7e1 f7e1f7e1 f7e1f7e1 f7e2f7e1     ................
   12848:	00002981 00000000 00000000 d6e30020     .).......... ...
   12858:	f7e1ffe1 f7e1f7e1 f7e1f7e1 f7e1f7e1     ................
   12868:	f7e1f7e1 f7e1f7e1 f7e1f7e1 f7e1f7e1     ................
   12878:	f7e1f7e1 ffe1f7e1 0840d702 00000000     ..........@.....
   12888:	00200000 ffe1d6e2 f7e1f7e1 f7e1f7e1     .. .............
   12898:	f7e1f7e1 f7e1f7e1 f7e1f7e1 ffe1f7e1     ................
   128a8:	0000a581 00000000 00000000 00000000     ................
	...
   129c4:	00200000 5b210000 efc1ffe1 efe1efe1     .. ...![........
   129d4:	efe1efe1 efe1efe1 efe1efe1 efe1efe1     ................
   129e4:	ffe1efc1 000094e1 00000020 00000000     ........ .......
	...
   12a38:	10a00000 f7e1df82 f7e1f7e1 f7e1f7e1     ................
   12a48:	f7e1f7e1 f7e1f7e1 f7e1f7e1 ffe1efc1     ................
   12a58:	00006bc2 00000020 00200000 4aa10000     .k.. ..... ....J
   12a68:	efc1ffe1 f7c1f7c1 f7c1f7c1 f7e1f7e1     ................
   12a78:	f7e1f7e1 f7e1f7e1 f7e2f7e1 000031c1     .............1..
   12a88:	00200020 00200020 00000020 00000000      . . . . .......
   12a98:	00000020 ffe16342 f7e1f7c1 f7e1f7e1      ...Bc..........
   12aa8:	f7e1f7e1 f7e1f7e1 f7e1f7e1 f7e1f7e1     ................
   12ab8:	f7e1f7e1 f7e1f7e1 f7e1f7e1 ffe2f7e1     ................
   12ac8:	00003181 00000020 00000000 d6e30041     .1.. .......A...
   12ad8:	f7e1ffe1 f7e1f7e1 f7e1f7e1 f7e1f7e1     ................
   12ae8:	f7e1f7e1 f7e1f7e1 f7e1f7e1 f7e1f7e1     ................
   12af8:	f7e1f7e1 ffe1f7e1 0840d702 00000000     ..........@.....
   12b08:	00200000 ffe1d6e2 f7e1f7e1 f7e1f7e1     .. .............
   12b18:	f7e1f7e1 f7e1f7e1 f7e1f7e1 ffe1f7e1     ................
   12b28:	0000a581 00000000 00000000 00000000     ................
	...
   12c44:	00200000 5b010000 efc1ffe1 f7e1f7e1     .. ....[........
   12c54:	f7e1f7e1 ffe1f7e1 ffe1ffe1 ffe1ffe1     ................
   12c64:	ffe1ffc1 00009d01 00000020 00000000     ........ .......
	...
   12cb8:	10a00000 ffe1df82 f7e1f7e1 f7e1f7e1     ................
   12cc8:	f7e1f7e1 f7e1f7e1 f7e1f7e1 ffe1f7c1     ................
   12cd8:	000073e2 00000020 00200000 52c10000     .s.. ..... ....R
   12ce8:	ffe1ffe1 ffe1ffe1 ffe1ffe1 f7e1ffe1     ................
   12cf8:	f7e1f7e1 f7e1f7e1 f7e2f7e1 000029a1     .............)..
	...
   12d18:	00000020 ffe16342 f7e1efc1 f7e1f7e1      ...Bc..........
   12d28:	f7e1f7e1 f7e1f7e1 f7e1f7e1 f7e1f7e1     ................
   12d38:	f7e1f7e1 f7e1f7e1 f7e1f7e1 ffe2f7e0     ................
   12d48:	00002981 00000000 00000000 d6e30020     .).......... ...
   12d58:	f7e1ffe0 f7e1f7e1 f7e1f7e1 f7e1f7e1     ................
   12d68:	f7e1f7e1 f7e1f7e1 f7e1f7e1 f7e1f7e1     ................
   12d78:	f7e1f7e1 ffe1f7e1 0840df22 00000000     ........".@.....
   12d88:	00200000 ffe1d6e2 f7e1f7e1 f7e1f7e1     .. .............
   12d98:	f7e1f7e1 f7e1f7e1 f7e1f7e1 ffe1f7e1     ................
   12da8:	0000ad81 00000000 00000000 00000000     ................
	...
   12ebc:	424110a0 42214221 42414241 846231c1     ..AB!B!BABAB.1b.
   12ecc:	efe1ffe1 f7e1f7e1 f7e1f7e1 c662f7e1     ..............b.
   12edc:	b5c2adc2 b5e2b5c1 be42b5c2 00006ba2     ..........B..k..
	...
   12f2c:	10800000 10a010a0 10a010a0 21411060     ............`.A!
   12f3c:	ffe1e782 f7e1f7e1 f7e1f7e1 efc1f7e1     ................
   12f4c:	e781e782 e781e781 f7e2e761 00006ba3     ........a....k..
   12f5c:	00000020 00000000 31a10000 9d41a5a2      ..........1..A.
   12f6c:	9d419d41 9d42a561 f7e1ada2 f7e1f7e1     A.A.a.B.........
   12f7c:	f7e1f7e1 f7e2f7e1 52a07be1 5ac15ae1     .........{.R.Z.Z
   12f8c:	5ac15ac1 21206301 00000000 00000020     .Z.Z.c !.... ...
   12f9c:	ffe16342 f7e1f7c1 f7e1f7e1 f7e1f7e1     Bc..............
   12fac:	f7e1f7e1 f7e1f7e1 f7e1f7e1 f7e1f7e1     ................
   12fbc:	f7e1f7e1 f7e1f7e1 f7e1f7e1 18c14a42     ............BJ..
   12fcc:	21012101 20e12101 d7022122 f7e1ffe1     .!.!.!. "!......
   12fdc:	f7e1f7e1 f7e1f7e1 f7e1f7e1 f7e1f7e1     ................
   12fec:	f7e1f7e1 f7e1f7e1 f7e1f7e1 f7e1f7e1     ................
   12ffc:	ffe1f7e1 0840df02 00000000 00200000     ......@....... .
   1300c:	ffe0d6e2 f7e1f7e1 f7e1f7e1 f7e1f7e1     ................
   1301c:	f7e1f7e1 f7e1f7e1 ffe1f7e1 0000ad81     ................
	...
   1313c:	ffe24a61 ffe2ffe2 ffe1ffe1 f7e1ffe2     aJ..............
   1314c:	f7e1f7e1 f7e1f7e1 f7e1f7e1 3a01ffe2     ...............:
	...
   131ac:	c6a20840 e762e7a2 e781e781 e782e761     @.....b.....a...
   131bc:	f7e1f7e1 f7e1f7e1 f7c1f7e1 94e2ffe1     ................
   131cc:	18c00020 10c010c0 10c010a0 00000840      ...........@...
	...
   131f4:	efc22101 f7e1ffe1 f7e1f7e1 f7e1f7e1     .!..............
   13204:	ffe2ffe1 ffe1ffe1 ffc1ffe1 6b42ffe1     ..............Bk
   13214:	00200000 00000020 ffe16342 f7e1f7c1     .. . ...Bc......
   13224:	f7e1f7e1 f7e1f7e1 f7e1f7e1 f7e1f7e1     ................
   13234:	f7e1f7e1 f7e1f7e1 f7e1f7e1 f7e1f7e1     ................
   13244:	f7e1f7e1 efc3efc2 f7c1f7c2 f7c2f7c1     ................
   13254:	f7e1f7c2 ffe1f7e1 f7e1ffe1 f7e1f7e1     ................
   13264:	f7e1f7e1 f7e1f7e1 f7e1f7e1 f7e1f7e1     ................
   13274:	f7e1f7e1 f7e1f7e1 ffe1f7e1 0840df01     ..............@.
   13284:	00000000 00200000 ffe1d6e2 ffe1ffe1     ...... .........
   13294:	ffe1ffe1 ffe1ffe1 ffe1ffe1 ffe1ffe1     ................
   132a4:	ffe1f7e1 0000ad81 00000000 00000000     ................
	...
   133bc:	ffe14240 f7e1f7c1 f7e1f7e1 f7e1f7e1     @B..............
   133cc:	f7e1f7e1 f7e1f7e1 f7e1f7e1 3a01ffe1     ...............:
   133dc:	00200000 00000000 00000000 00000000     .. .............
	...
   1342c:	df020840 ffe1ffe1 ffe1ffe1 f7e1f7e1     @...............
   1343c:	f7e1f7e1 f7e1f7e1 f7c1f7e1 8ca2ffe1     ................
   1344c:	00200000 00000000 00000000 00000000     .. .............
	...
   13470:	00000020 efc22101 f7e1f7e1 f7e1f7e1      ....!..........
   13480:	ffe1f7e1 f7c1f7e1 f7c1f7c1 f7c1f7c1     ................
   13490:	6322ffe1 00200000 00000020 ffe16342     .."c.. . ...Bc..
   134a0:	f7e1f7c1 f7e1f7e1 f7e1f7e1 f7e1f7e1     ................
   134b0:	f7e1f7e1 f7e1f7e1 ffe1ffe1 ffe1ffe1     ................
   134c0:	ffe1ffe1 ffe1ffe1 f7e0f7e0 ffe1f7e1     ................
   134d0:	ffe1ffe1 ffe1ffe1 ffe1ffe1 ffe1ffe1     ................
   134e0:	ffe1ffe1 ffe1ffe1 ffe1ffe1 ffe1ffe1     ................
   134f0:	ffe1ffe1 ffe1ffe1 ffe1ffe1 ffe1f7e1     ................
   13500:	0840df01 00000000 00200000 ffe1d6e2     ..@....... .....
   13510:	ffe1ffe1 ffe1ffe1 ffe1ffe1 ffe1ffe1     ................
   13520:	ffe1ffe1 ffe1f7e1 0000ad81 00000000     ................
	...
   1363c:	ffe14a41 f7e1f7e1 f7e1f7e1 f7e1f7e1     AJ..............
   1364c:	f7e1f7e1 f7e1f7e1 f7e1f7e1 39e1ffe1     ...............9
	...
   136ac:	df010840 f7e1ffe1 f7e1f7e1 f7e1f7e1     @...............
   136bc:	f7e1f7e1 f7e1f7e1 f7c1f7e1 8ca2ffe1     ................
   136cc:	00200000 00000000 00000000 00000000     .. .............
	...
   136f4:	f7c22101 ffe1ffe1 ffe1ffe1 ffe1ffe1     .!..............
   13704:	ffe1ffe1 ffe1ffe1 f7c1ffe1 6341ffe1     ..............Ac
   13714:	00200000 00000020 ffe16342 ffe1f7c1     .. . ...Bc......
   13724:	ffe1ffe1 ffe1ffe1 ffe1ffe1 ffe1ffe1     ................
   13734:	ffe1ffe1 ffe1ffe1 ffe1ffe1 ffe1ffe1     ................
   13744:	ffe1ffe1 f7e1ffe1 f7e1f7e1 ffe1f7e1     ................
   13754:	ffe1ffe1 ffe1ffe1 ffe1ffe1 ffe1ffe1     ................
   13764:	ffe1ffe1 ffe1ffe1 ffe1ffe1 ffe1ffe1     ................
   13774:	ffe1ffe1 ffe1ffe1 ffe0ffe1 0840df01     ..............@.
   13784:	00000000 00200000 ffe1d6e2 ffe1ffe1     ...... .........
   13794:	ffe1ffe1 ffe1ffe1 ffe1ffe1 ffe1ffe1     ................
   137a4:	ffe1ffe1 0000ad81 00000000 00000000     ................
	...
   138bc:	ffe14a41 f7e1f7e1 f7e1f7e1 f7e1f7e1     AJ..............
   138cc:	f7e1f7e1 f7e1f7e1 f7e1f7e1 39e1ffe1     ...............9
	...
   1392c:	df010840 f7e1ffe0 f7e1f7e1 ffe1ffe1     @...............
   1393c:	ffe1ffe1 ffe1ffe1 f7c1ffe1 8ca2ffe1     ................
   1394c:	00200000 00000000 00000000 00000000     .. .............
	...
   13974:	f7c22101 ffe1ffe1 ffe1ffe1 ffe1ffe1     .!..............
   13984:	ffe1ffe1 ffe1ffe1 f7c1ffe1 6b41ffe1     ..............Ak
   13994:	00200000 00000020 ffe16342 ffe1f7c1     .. . ...Bc......
   139a4:	ffe1ffe1 ffe1ffe1 ffe1ffe1 ffe1ffe1     ................
   139b4:	ffe1ffe1 ffe1ffe1 ffe1ffe1 ffe1ffe1     ................
   139c4:	ffe1ffe1 ffe1ffe1 ffe1ffe1 ffe1ffe1     ................
   139d4:	ffe1ffe1 ffe1ffe1 ffe1ffe1 ffe1ffe1     ................
   139e4:	ffe1ffe1 ffe1ffe1 ffe1ffe1 ffe1ffe1     ................
   139f4:	ffe1ffe1 ffe1ffe1 ffe0ffe1 0840df01     ..............@.
   13a04:	00000000 00200000 ffe1d6e2 ffe1ffe1     ...... .........
   13a14:	ffe1ffe1 ffe1ffe1 ffe1ffe1 ffe1ffe1     ................
   13a24:	ffe1ffe1 0000ad81 00000000 00000000     ................
	...
   13b3c:	ffe14a41 f7e1f7e1 f7e1f7e1 f7e1f7e1     AJ..............
   13b4c:	f7e1f7e1 f7e1f7e1 f7e1f7e1 39e1ffe1     ...............9
	...
   13bac:	df010840 ffe1ffe1 ffe1ffe1 ffe1ffe1     @...............
   13bbc:	ffe1ffe1 ffe1ffe1 f7c1ffe1 8ca2ffe1     ................
   13bcc:	00200000 00000000 00000000 00000000     .. .............
	...
   13bf4:	f7c22101 ffe1ffe1 ffe1ffe1 ffe1ffe1     .!..............
   13c04:	ffe1ffe1 ffe1ffe1 f7c1ffe1 6b42ffe1     ..............Bk
   13c14:	00200000 00000020 ffe16342 ffe1f7c1     .. . ...Bc......
   13c24:	ffe1ffe1 ffe1ffe1 ffe1ffe1 ffe1ffe1     ................
   13c34:	ffe1ffe1 ffe1ffe1 ffe1ffe1 ffe1ffe1     ................
   13c44:	ffe1ffe1 ffe1ffe1 ffe1ffe1 ffe1ffe1     ................
   13c54:	ffe1ffe1 ffe1ffe1 ffe1ffe1 ffe1ffe1     ................
   13c64:	ffe1ffe1 ffe1ffe1 ffe1ffe1 ffe1ffe1     ................
   13c74:	ffe1ffe1 ffe1ffe1 ffe1ffe1 0840df02     ..............@.
   13c84:	00000000 00200000 ffe1dee2 ffe1ffe1     ...... .........
   13c94:	ffe1ffe1 ffe1ffe1 ffe1ffe1 ffe1ffe1     ................
   13ca4:	ffe1ffe1 0000ad81 00000020 00000000     ........ .......
	...
   13dbc:	ffe14a41 f7e1f7e1 ffe1f7e1 ffe1ffe1     AJ..............
   13dcc:	ffe1ffe1 ffe1ffe1 f7e1ffe1 39e1ffe1     ...............9
	...
   13e2c:	df020840 ffe1ffe1 ffe1ffe1 ffe1ffe1     @...............
   13e3c:	ffe1ffe1 ffe1ffe1 f7c1ffe1 8ca2ffe1     ................
   13e4c:	00200000 00000000 00000000 00000000     .. .............
	...
   13e74:	f7c22101 ffe1ffe1 ffe1ffe1 ffe1ffe1     .!..............
   13e84:	ffe1ffe1 ffe1ffe1 f7c1ffe1 6322ffe1     .............."c
   13e94:	00200000 00000020 ffe16b42 ffe1f7c1     .. . ...Bk......
   13ea4:	ffe1ffe1 ffe1ffe1 ffe1ffe1 ffe1ffe1     ................
   13eb4:	ffe1ffe1 ffe1ffe1 ffe1ffe1 ffe1ffe1     ................
   13ec4:	ffe1ffe1 ffe1ffe1 ffe1ffe1 ffe1ffe1     ................
   13ed4:	ffe1ffe1 ffe1ffe1 ffe1ffe1 ffe1ffe1     ................
   13ee4:	ffe1ffe1 ffe1ffe1 ffe1ffe1 ffe1ffe1     ................
   13ef4:	ffe1ffe1 ffe1ffe1 ffe0ffe1 0840df02     ..............@.
   13f04:	00000000 00200000 ffe1dec2 ffe1ffe1     ...... .........
   13f14:	ffe1ffe1 ffe1ffe1 ffe1ffe1 ffe1ffe1     ................
   13f24:	ffe1ffc1 0000ad61 00000000 00000000     ....a...........
	...
   1403c:	ffe14a41 ffe1f7e1 ffe1ffe1 ffe1ffe1     AJ..............
   1404c:	ffe1ffe1 ffe1ffe1 ffe1ffe1 39e1ffe1     ...............9
	...
   140ac:	df020840 ffe1ffe1 ffe1ffe1 ffe1ffe1     @...............
   140bc:	ffe1ffe1 ffe1ffe1 ffc1ffe1 8ca2ffe1     ................
   140cc:	00200000 00000000 00000000 00000000     .. .............
	...
   140f4:	f7c22101 ffe1ffe1 ffe1ffe1 ffe1ffe1     .!..............
   14104:	ffe1ffe1 ffe1ffe1 f7c1ffe1 6b22ffe1     .............."k
   14114:	00200000 00000020 ffe16b42 ffe1f7c1     .. . ...Bk......
   14124:	ffe1ffe1 ffe1ffe1 ffe1ffe1 ffe1ffe1     ................
   14134:	ffe1ffe1 ffe1ffe1 ffe1ffe1 ffe1ffe1     ................
   14144:	ffe1ffe1 ffe1ffe1 ffe1ffe1 ffe1ffe1     ................
   14154:	ffe1ffe1 ffe1ffe1 ffe1ffe1 ffe1ffe1     ................
   14164:	ffe1ffe1 ffe1ffe1 ffe1ffe1 ffe1ffe1     ................
   14174:	ffe1ffe1 ffe1ffe1 ffe0ffc1 0840df02     ..............@.
   14184:	00000000 00200000 ffe1dec2 ffe1ffc1     ...... .........
   14194:	ffe1ffe1 ffe1ffe1 ffe1ffe1 ffe1ffe1     ................
   141a4:	ffe1ffc1 18c1b5c2 21212941 21212121     ........A)!!!!!!
   141b4:	21212121 21212121 21212121 21212121     !!!!!!!!!!!!!!!!
   141c4:	21212121 21212121 21212121 29422121     !!!!!!!!!!!!!!B)
   141d4:	00001061 00000000 00000000 00000000     a...............
	...
   142bc:	ffe14a41 ffe1f7c1 ffe1ffe1 ffe1ffe1     AJ..............
   142cc:	ffe1ffe1 ffe1ffe1 ffe1ffe1 39e1ffe1     ...............9
	...
   142f4:	42010000 bde2ce43 c602c602 c602c602     ...BC...........
   14304:	c602c602 c602c602 c602c602 c602c602     ................
   14314:	c602c602 c602c602 c603c602 18a1bdc3     ................
	...
   1432c:	df010840 ffc1ffe1 ffe1ffe1 ffe1ffe1     @...............
   1433c:	ffe1ffe1 ffe1ffe1 ffc1ffe1 94a2ffe1     ................
   1434c:	00200000 00000000 00000000 00000000     .. .............
	...
   14374:	f7a22101 ffc1ffe1 ffe1ffe1 ffe1ffe1     .!..............
   14384:	ffe1ffe1 ffe1ffe1 f7c1ffe1 6322ffe1     .............."c
   14394:	00200000 00000020 ffe16322 ffe1ffc1     .. . ..."c......
   143a4:	ffe1ffe1 ffe1ffe1 ffe1ffe1 ffe1ffe1     ................
   143b4:	ffe1ffe1 ffe1ffe1 ffe1ffe1 ffc1ffe1     ................
   143c4:	ffe1ffc1 ffe1ffe1 ffe1ffe1 ffe1ffe1     ................
   143d4:	ffe1ffe1 ffe1ffe1 ffe1ffe1 ffe1ffe1     ................
   143e4:	ffe1ffe1 ffe1ffe1 ffe1ffe1 ffe1ffe1     ................
   143f4:	ffe1ffe1 ffe1ffe1 ffe1ffc1 0840df02     ..............@.
   14404:	00000000 00200000 ffe0dec2 ffc1ffc1     ...... .........
   14414:	ffc1ffc1 ffc1ffc1 ffc1ffc1 ffc1ffc1     ................
   14424:	ffe1ffc1 ffc2ffc1 ffc2ffc2 ffc2ffc2     ................
   14434:	ffc2ffc2 ffc2ffc2 ffc2ffc2 ffc2ffc2     ................
   14444:	ffc2ffc2 ffc2ffc2 ffc2ffc2 ffe3f7a2     ................
   14454:	00006302 00000020 00000000 00000000     .c.. ...........
	...
   1453c:	ffe14a41 ffe1f7c1 ffc1ffc1 ffc1ffc1     AJ..............
   1454c:	ffc1ffc1 ffc1ffc1 ffc1ffc1 39e1ffe1     ...............9
	...
   14570:	00200000 5ac10000 ffe0ffe1 ffe1ffe1     .. ....Z........
   14580:	ffe1ffe1 ffe1ffe1 ffe1ffe1 ffe1ffe1     ................
   14590:	ffe1ffe1 ffe1ffe1 ffe1ffe1 ffe1ffe1     ................
   145a0:	18e1f7a1 00000000 00000000 df010840     ............@...
   145b0:	ffc1ffe1 ffc1ffc1 ffc1ffc1 ffc1ffc1     ................
   145c0:	ffc1ffc1 f7a1ffc1 9482ffe1 00200000     .............. .
	...
   145f4:	f7a22101 ffc1ffe1 ffc1ffc1 ffc1ffc1     .!..............
   14604:	ffc1ffc1 ffc1ffc1 f7a1ffc1 6322ffe1     .............."c
   14614:	00200000 00000020 ffe16322 ffc1f7a1     .. . ..."c......
   14624:	ffc1ffc1 ffc1ffc1 ffc1ffc1 ffc1ffc1     ................
   14634:	ffc1ffc1 ffc1ffc1 ffc1ffc1 ffc1ffc1     ................
   14644:	ffc1ffc1 ffc1ffc1 ffc1ffc1 ffc1ffc1     ................
   14654:	ffc1ffc1 ffc1ffc1 ffc1ffc1 ffc1ffc1     ................
   14664:	ffc1ffc1 ffc1ffc1 ffc1ffc1 ffc1ffc1     ................
   14674:	ffc1ffc1 ffc1ffc1 ffe1ffc1 0840dee2     ..............@.
   14684:	00000000 00200000 ffe0dec2 ffc1ffc1     ...... .........
   14694:	ffc1ffc1 ffc1ffc1 ffc1ffc1 ffc1ffc1     ................
   146a4:	ffc1ffc1 ffe1ffc1 ffe1ffc1 ffc1ffe1     ................
   146b4:	ffc1ffc1 ffc1ffc1 ffc0ffc1 ffc0ffc0     ................
   146c4:	ffc0ffc0 ffc1ffc0 ffc0ffc0 ffe1f7a0     ................
   146d4:	00006301 00000020 00000000 00000000     .c.. ...........
	...
   147bc:	ffe14a41 ffc1ffa1 ffc1ffc1 ffc1ffc1     AJ..............
   147cc:	ffc1ffc1 ffc1ffc1 ffc1ffc1 39e1ffe1     ...............9
	...
   147f4:	52a10000 f7a1ffe1 ffa1ffa1 ffa1ffa1     ...R............
   14804:	ffa1ffc1 ffc1ffa1 ffa1ffa1 ffa1ffa1     ................
   14814:	ffa1ffc1 ffa1ffa1 ffc1ffa1 18e0f761     ............a...
	...
   1482c:	df010840 ffc1ffe1 ffc1ffc1 ffc1ffc1     @...............
   1483c:	ffc1ffc1 ffc1ffc1 ffa1ffc1 9482ffe1     ................
   1484c:	00200000 00000000 00000000 00000000     .. .............
	...
   14874:	f7a22101 ffc1ffc0 ffc1ffc1 ffc1ffc1     .!..............
   14884:	ffc1ffc1 ffc1ffc1 f7a1ffc1 6322ffe1     .............."c
   14894:	00200000 00000020 ffe16322 ffc1f7a1     .. . ..."c......
   148a4:	ffc1ffc1 ffc1ffc1 ffc1ffc1 ffc1ffc1     ................
   148b4:	ffc1ffc1 ffc1ffc1 ffc1ffc1 ffc1ffc1     ................
   148c4:	ffc1ffc1 ffc1ffc1 ffc1ffc1 ffc1ffc1     ................
   148d4:	ffc1ffc1 ffc1ffc1 ffc1ffc1 ffc1ffc1     ................
   148e4:	ffc1ffc1 ffc1ffc1 ffc1ffc1 ffc1ffc1     ................
   148f4:	ffc1ffc1 ffc1ffc1 ffe1ffa1 0840dee1     ..............@.
   14904:	00000000 00200000 ffe1dea2 ffc1ffa1     ...... .........
   14914:	ffc1ffc1 ffc1ffc1 ffc1ffc1 ffc1ffc1     ................
   14924:	ffc1ffc1 ffc1ffc1 ffa1ffc1 ffc1ffc1     ................
   14934:	ffa1ffa1 ffa1ffa1 ffa1ffa1 ffa1ffa1     ................
   14944:	ffa1ffa1 ffa1ffa1 ffa1ffa1 ffe1f781     ................
   14954:	00006301 00000020 00000000 00000000     .c.. ...........
	...
   14a3c:	ffe14a41 ffc1ffa1 ffc1ffc1 ffc1ffc1     AJ..............
   14a4c:	ffc1ffc1 ffc1ffc1 ffa1ffc1 39e1ffe2     ...............9
	...
   14a70:	00200000 52a10000 f7a1ffe1 ffc1ffc1     .. ....R........
   14a80:	ffc1ffc1 ffc1ffc1 ffc1ffc1 ffc1ffc1     ................
   14a90:	ffc1ffc1 ffc1ffc1 ffc1ffc1 ffc1ffc1     ................
   14aa0:	18e1f781 00000000 00000000 dee20840     ............@...
   14ab0:	ffa1ffe1 ffc1ffc1 ffa1ffa1 ffa1ffa1     ................
   14ac0:	ffa1ffa1 ff81ffa1 9481ffe1 00200000     .............. .
	...
   14af4:	f7812101 ffa1ffc1 ffa1ffa1 ffa1ffa1     .!..............
   14b04:	ffa1ffa1 ffa1ffa1 ff81ffa1 6322ffe1     .............."c
   14b14:	00200000 00000020 ffe16322 ffa1ff81     .. . ..."c......
   14b24:	ffa1ffa1 ffa1ffa1 ffa1ffa1 ffa1ffa1     ................
   14b34:	ffa1ffa1 ffa1ffa1 ffa1ffa1 ffa1ffa1     ................
   14b44:	ffa1ffa1 ffa1ffa1 ffa1ffa1 ffa1ffa1     ................
   14b54:	ffa1ffa1 ffa1ffa1 ffc1ffa1 ffa1ffa1     ................
   14b64:	ffa1ffa1 ffa1ffa1 ffa1ffa1 ffa1ffa1     ................
   14b74:	ffa1ffa1 ffa1ffa1 ffe1ffa1 0840e6c1     ..............@.
   14b84:	00000000 00200000 ffe1dea2 ffa1ff81     ...... .........
   14b94:	ffa1ffa1 ffa1ffa1 ffa1ffa1 ffa1ffa1     ................
   14ba4:	ffa1ffa1 ffa1ffa1 ffa1ffa1 ffa1ffa1     ................
   14bb4:	ffa1ffa1 ffa1ffa1 ffa1ffa1 ffa1ffa1     ................
   14bc4:	ffa1ffa1 ffa1ffa1 ffa1ffa1 ffe1ff81     ................
   14bd4:	00006301 00000020 00000000 00000000     .c.. ...........
	...
   14cbc:	ffe14a41 ffa1ffa1 ffa1ffa1 ffa1ffa1     AJ..............
   14ccc:	ffa1ffa1 ffa1ffa1 ffa1ffa1 39e1ffe2     ...............9
	...
   14cf0:	00200000 52a10000 f7a1ffe1 ffa1ffa1     .. ....R........
   14d00:	ffa1ffa1 ffa1ffa1 ffa1ffa1 ffa1ffa1     ................
   14d10:	ffa1ffa1 ffa1ffa1 ffa1ffa1 ffc1ffa1     ................
   14d20:	18e1f761 00000000 00000000 dee10840     a...........@...
   14d30:	ff81ffe1 ffa1ffa1 ffa1ffa1 ffa1ffa1     ................
   14d40:	ffa1ffa1 ff81ffa1 9481ffe0 00200000     .............. .
	...
   14d74:	f7812101 ffa1ffa1 ffa1ffa1 ffa1ffa1     .!..............
   14d84:	ffa1ffa1 ffa1ffa1 f781ffa1 6322ffe1     .............."c
   14d94:	00200000 00000020 ffe16302 ffa1f781     .. . ....c......
   14da4:	ffa1ffa1 ffa1ffa1 ffa1ffa1 ffa1ffa1     ................
   14db4:	ffa1ffa1 ffa1ffa1 ffa1ffa1 ffa1ffa1     ................
   14dc4:	ffa1ffa1 ffa1ffa1 ffa1ffa1 ffa1ffa1     ................
   14dd4:	ffa1ffa1 ffa1ffa1 ffa1ffa1 ffa1ffa1     ................
   14de4:	ffa1ffa1 ffa1ffa1 ffa1ffa1 ffa1ffa1     ................
   14df4:	ffa1ffa1 ffa1ffa1 ffc0ff81 0840e6a1     ..............@.
   14e04:	00000000 00200000 ffe1de82 ffa1ff81     ...... .........
   14e14:	ffa1ff81 ffa1ffa1 ffa1ffa1 ffa1ffa1     ................
   14e24:	ffa1ffa1 ff81ffa1 ffa1ffa1 ffa1ffa1     ................
   14e34:	ff81ff81 ffa1ffa1 ff81ff81 ff81ff81     ................
   14e44:	ff81ff81 ff81ff81 ff81ff81 ffe1f761     ............a...
   14e54:	00006301 00000020 00000000 00000000     .c.. ...........
	...
   14f3c:	ffe14a21 ffa1ff81 ffa1ffa1 ffa1ffa1     !J..............
   14f4c:	ffa1ffa1 ffa1ffa1 ff81ffa1 39c1ffe2     ...............9
	...
   14f74:	52a10000 f761ffe1 f761f761 ff61f761     ...R..a.a.a.a.a.
   14f84:	ff81ff81 ffa1ffa1 ffa1ffa1 ffa1ffa1     ................
   14f94:	ffa1ffa1 ffa1ffa1 ffc1ffa1 18e1f761     ............a...
	...
   14fac:	dec10840 ff81ffc1 ff81ffa1 ff81ff81     @...............
   14fbc:	ff81ff81 ff81ff81 f761ff81 9482ffe1     ..........a.....
   14fcc:	00200000 00000000 00000000 00000000     .. .............
	...
   14ff4:	f7612101 ff81ffa1 ff81ff81 ff81ff81     .!a.............
   15004:	ff81ff81 ff81ff81 ff61ff81 6322ffe1     ..........a..."c
   15014:	00200000 00000020 ffe16302 ff81f761     .. . ....c..a...
   15024:	ff81ff81 ff81ff81 ff81ff81 ff81ff81     ................
   15034:	ff81ff81 ff61ff81 f761ff61 f761f761     ......a.a.a.a.a.
   15044:	f761f761 ff81ff81 ff81ff81 ff81ff81     a.a.............
   15054:	ff81ff81 ff61ff61 ff61ff61 ff61ff61     ....a.a.a.a.a.a.
   15064:	ff81ff81 ff81ff81 ff81ff81 ff81ff81     ................
   15074:	ff81ff81 ff81ff81 ffc0f781 0840dea1     ..............@.
	...
   1508c:	ffc1de82 ff81ff81 ff81ff81 ff81ff81     ................
   1509c:	ff81ff81 ff81ff81 ff81ff81 ff61ff81     ..............a.
   150ac:	f761ff61 f761f761 f761f761 f761f761     a.a.a.a.a.a.a.a.
   150bc:	f761f761 f761f761 f761f761 f761f761     a.a.a.a.a.a.a.a.
   150cc:	f761f761 ffe1f741 00006301 00000020     a.a.A....c.. ...
	...
   151bc:	ffe14a21 ff81ff61 ff81ff81 ff81ff81     !J..a...........
   151cc:	ff81ff81 ff81ff81 ff81ff81 39c1ffc2     ...............9
	...
   151f0:	00200000 5ac20000 ffc1ffe2 ffe1ffe1     .. ....Z........
   15200:	ffe2ffe1 ff61ffc2 ff81ff81 ff81ff81     ......a.........
   15210:	ff81ff81 ff81ff81 ff81ff81 ffa1ff81     ................
   15220:	18e1f741 00000000 00000000 dec10840     A...........@...
   15230:	ff81ffc1 ff81ff81 ff81ff81 ff81ff81     ................
   15240:	ff81ff81 f761ff81 8c42ffe1 00200000     ......a...B... .
	...
   15274:	f74220e1 ff81ff80 ff81ff81 ff81ff81     . B.............
   15284:	ff61ff61 ff61ff61 f761ff61 6322ffe1     a.a.a.a.a.a..."c
   15294:	00200000 00000020 ffe16302 ff81f761     .. . ....c..a...
   152a4:	ff61ff81 ff61ff61 ff81ff61 ff61ff61     ..a.a.a.a...a.a.
   152b4:	ff61ff61 ffc1ff61 ffe1ffe2 ffe1ffe1     a.a.a...........
   152c4:	ffe1ffe1 ff61ff81 ff61ff61 ff61ff61     ......a.a.a.a.a.
   152d4:	ffc1ff61 ffe1ffe1 ffe1ffe1 ffe1ffe1     a...............
   152e4:	ff80ffc1 ff81ff81 ff61ff81 ff61ff61     ..........a.a.a.
   152f4:	ff81ff81 ff61ff61 ffc0ff61 0840dea1     ....a.a.a.....@.
	...
   1530c:	ffa1d662 ff61ff61 ff61ff61 ff61ff61     b...a.a.a.a.a.a.
   1531c:	ff61ff61 ff61ff61 ff61ff61 ffe1ff81     a.a.a.a.a.a.....
   1532c:	ffe1ffe1 ffe1ffe1 ffe1ffe1 ffe1ffe1     ................
   1533c:	ffe1ffe1 ffe1ffe1 ffe1ffe1 ffe1ffe1     ................
   1534c:	ffe1ffe1 ffe2ffc1 00006301 00000020     .........c.. ...
	...
   1543c:	ffc14a21 ff61ff61 ff61ff61 ff61ff61     !J..a.a.a.a.a.a.
   1544c:	ff61ff61 ff61ff61 ff61ff61 39c1ffc2     a.a.a.a.a.a....9
	...
   15474:	39a10000 9cc2ad22 a4e1a4e1 9cc2a4e1     ...9"...........
   15484:	ff81bda2 ff61ff61 ff61ff61 ff61ff61     ....a.a.a.a.a.a.
   15494:	ff61ff61 ff61ff61 ff80ff61 18e0f741     a.a.a.a.a...A...
	...
   154ac:	dea10840 ff61ffa0 ff61ff61 ff61ff61     @.....a.a.a.a.a.
   154bc:	ff61ff61 ff61ff61 ff61ff61 e6a2ff80     a.a.a.a.a.a.....
   154cc:	c5a3bd83 c5a3c5a3 c5a3c5a3 c5a3c5a3     ................
   154dc:	c5a3c5a3 c5a3c5a3 c5a3c5a3 c5a3c5a3     ................
   154ec:	c5a3c5a3 c5a3c5a3 ff41cde3 ff61ff61     ..........A.a.a.
   154fc:	ff61ff61 ff61ff61 ff61ff61 ff61ff61     a.a.a.a.a.a.a.a.
   1550c:	f741ff61 6302ffe1 00200000 00000020     a.A....c.. . ...
   1551c:	ffe16302 ff61f741 ff61ff61 ff61ff61     .c..A.a.a.a.a.a.
   1552c:	ff61ff61 ff61ff61 ff61ff60 8c21ff81     a.a.a.a.`.a...!.
   1553c:	63025ac1 62e162e1 62e262e1 ff81e6a2     .Z.c.b.b.b.b....
   1554c:	ff61ff61 f741ff61 9cc1ffc1 6b025aa2     a.a.a.A......Z.k
   1555c:	6b026302 5ac26b02 ffa19c62 ff61ff41     .c.k.k.Zb...A.a.
   1556c:	ff61ff61 ff61ff61 ff61ff61 ff61ff61     a.a.a.a.a.a.a.a.
   1557c:	ffc0ff61 0840dea1 00000000 00000000     a.....@.........
   1558c:	ffa1d662 ff61ff41 ff61ff61 ff61ff61     b...A.a.a.a.a.a.
   1559c:	ff61ff61 ff61ff61 ffa1ff41 5aa1cde2     a.a.a.a.A......Z
   155ac:	62e26b02 62e262e2 62e262e2 62e262e2     .k.b.b.b.b.b.b.b
   155bc:	62e262e2 62e262e2 62e262e2 62e262e2     .b.b.b.b.b.b.b.b
   155cc:	62e262e2 6b2262e2 00002921 00000000     .b.b.b"k!)......
	...
   156bc:	ffc14a21 ff61ff41 ff61ff61 ff61ff61     !J..A.a.a.a.a.a.
   156cc:	ff61ff61 ff61ff61 ff61ff61 39c1ffa1     a.a.a.a.a.a....9
	...
   15704:	ffa14201 ff61ff41 ff61ff61 ff61ff61     .B..A.a.a.a.a.a.
   15714:	ff61ff61 ff61ff61 ff81ff61 18c1f722     a.a.a.a.a..."...
	...
   1572c:	de810820 ff41ff80 ff61ff61 ff61ff61      .....A.a.a.a.a.
   1573c:	ff61ff61 ff61ff61 ff61ff61 ff81ff61     a.a.a.a.a.a.a...
   1574c:	ffa1ffc1 ffa1ffa1 ffa1ffa1 ffa1ffa1     ................
   1575c:	ffa1ffa1 ffa1ffa1 ffa1ffa1 ffa1ffa1     ................
   1576c:	ffa1ffa1 ffa1ffa1 ff41ffa1 ff61ff61     ..........A.a.a.
   1577c:	ff41ff61 ff41ff41 ff41ff41 ff41ff41     a.A.A.A.A.A.A.A.
   1578c:	f721ff41 6b02ffe1 00200000 00000020     A.!....k.. . ...
   1579c:	ffe16302 ff61f741 ff61ff61 ff61ff61     .c..A.a.a.a.a.a.
   157ac:	ff61ff61 ff61ff61 ff41ff61 41e1ffa2     a.a.a.a.a.A....A
	...
   157c8:	ffa0d622 ff61ff41 ff41ff61 62c1ffc1     "...A.a.a.A....b
   157d8:	00200000 00000000 00000000 ffa15240     .. .........@R..
   157e8:	ff41ff41 ff41ff41 ff41ff41 ff41ff41     A.A.A.A.A.A.A.A.
   157f8:	ff41ff41 ffa0ff41 0840de81 00000000     A.A.A.....@.....
   15808:	00000000 ff81d642 ff41ff41 ff41ff41     ....B...A.A.A.A.
   15818:	ff41ff41 ff41ff41 ff41ff41 ffc1f741     A.A.A.A.A.A.A...
   15828:	0000ace1 00000000 00000000 00000000     ................
	...
   1593c:	ffa14a20 ff61f741 ff61ff61 ff61ff61      J..A.a.a.a.a.a.
   1594c:	ff41ff61 ff41ff41 ff41ff41 39c1ffa1     a.A.A.A.A.A....9
	...
   15980:	00000020 ffa14a21 ff41ff40 ff61ff41      ...!J..@.A.A.a.
   15990:	ff41ff41 ff41ff41 ff41ff61 ff61ff41     A.A.A.A.a.A.A.a.
   159a0:	18c1f722 00000000 00000000 de810820     "........... ...
   159b0:	ff41ff80 ff41ff41 ff41ff41 ff41ff41     ..A.A.A.A.A.A.A.
   159c0:	ff41ff41 ff41ff41 ff41ff41 f741f741     A.A.A.A.A.A.A.A.
   159d0:	f741f741 f741f741 f741f741 f741f741     A.A.A.A.A.A.A.A.
   159e0:	f741f741 f741f741 f741f741 f741f741     A.A.A.A.A.A.A.A.
   159f0:	f741f741 ff41f741 ff41ff41 ff41ff41     A.A.A.A.A.A.A.A.
   15a00:	ff41ff41 ff41ff41 ff41ff41 f721ff41     A.A.A.A.A.A.A.!.
   15a10:	6301ffc1 00200000 00000020 ffc16302     ...c.. . ....c..
   15a20:	ff41f721 ff41ff41 ff41ff41 ff41ff41     !.A.A.A.A.A.A.A.
   15a30:	ff41ff41 ff41ff41 4201ffa2 00200000     A.A.A.A....B.. .
   15a40:	00200020 00200000 ff80d622 ff41f741      . ... ."...A.A.
   15a50:	ff21ff41 62e1ffa1 00200000 00200020     A.!....b.. . . .
   15a60:	00000020 ffa25260 ff41ff21 ff41ff41      ...`R..!.A.A.A.
   15a70:	ff41ff41 ff41ff41 ff41ff41 ff61ff21     A.A.A.A.A.A.!.a.
   15a80:	0840e661 00000000 00000000 ff81d622     a.@........."...
   15a90:	ff41ff21 ff41ff41 ff41ff41 ff41ff41     !.A.A.A.A.A.A.A.
   15aa0:	ff41ff41 ffa1f721 0000ace1 00000020     A.A.!....... ...
	...
   15ad0:	00200000 00000000 00000000 00000000     .. .............
	...
   15bbc:	ffa14a20 ff41f741 ff41ff41 ff41ff41      J..A.A.A.A.A.A.
   15bcc:	ff41ff41 ff41ff41 ff41ff41 39c1ffa1     A.A.A.A.A.A....9
	...
   15c04:	ffa14a01 ff41ff20 ff41ff41 ff41ff41     .J.. .A.A.A.A.A.
   15c14:	ff41ff41 ff41ff41 ff61ff41 18c1f701     A.A.A.A.A.a.....
	...
   15c2c:	de610820 ff21ff60 ff41ff41 ff41ff41      .a.`.!.A.A.A.A.
   15c3c:	ff41ff41 ff41ff41 ff41ff41 ff41ff41     A.A.A.A.A.A.A.A.
   15c4c:	ff41ff41 ff41ff41 ff41ff41 ff41ff41     A.A.A.A.A.A.A.A.
   15c5c:	ff41ff41 ff41ff41 ff41ff41 ff41ff41     A.A.A.A.A.A.A.A.
   15c6c:	ff41ff41 ff41ff41 ff41ff41 ff41ff41     A.A.A.A.A.A.A.A.
   15c7c:	ff41ff41 ff41ff41 ff41ff41 ff21ff41     A.A.A.A.A.A.A.!.
   15c8c:	f721ff21 6301ffa1 00200000 00000020     !.!....c.. . ...
   15c9c:	ffa162e2 ff41f721 ff21ff21 ff21ff21     .b..!.A.!.!.!.!.
   15cac:	ff21ff21 ff21ff21 f720ff21 41e1ff81     !.!.!.!.!. ....A
	...
   15cc8:	ff80d602 ff21f721 f721ff21 62c1ffa1     ....!.!.!.!....b
   15cd8:	00200000 00000000 00000000 ff825240     .. .........@R..
   15ce8:	ff21f701 ff21ff21 ff21ff21 ff21ff21     ..!.!.!.!.!.!.!.
   15cf8:	ff21ff21 ff81ff21 0840de61 00000000     !.!.!...a.@.....
   15d08:	00000000 ff61d622 ff21f721 ff21ff21     ....".a.!.!.!.!.
   15d18:	ff21ff21 ff21ff21 ff21ff21 ffa1f701     !.!.!.!.!.!.....
   15d28:	0000ace2 00000000 00000000 00000000     ................
	...
   15e3c:	ff814a00 ff21ff21 ff21ff21 ff21ff21     .J..!.!.!.!.!.!.
   15e4c:	ff21ff21 ff21ff21 f721ff21 39c1ff81     !.!.!.!.!.!....9
	...
   15e84:	ff814201 ff21ff00 ff21ff21 ff21ff21     .B....!.!.!.!.!.
   15e94:	ff21ff21 ff21ff21 ff41f721 18c0ef01     !.!.!.!.!.A.....
	...
   15eac:	de610820 f721ff60 ff21ff21 ff21ff21      .a.`.!.!.!.!.!.
   15ebc:	ff21ff21 ff21ff21 ff21ff21 ff21ff21     !.!.!.!.!.!.!.!.
   15ecc:	ff21ff21 ff21ff21 ff21ff21 ff21ff21     !.!.!.!.!.!.!.!.
   15edc:	ff21ff21 ff21ff21 ff21ff21 ff21ff21     !.!.!.!.!.!.!.!.
   15eec:	ff21ff21 ff21ff21 ff21ff21 ff21ff21     !.!.!.!.!.!.!.!.
   15efc:	ff21ff21 ff21ff21 ff21ff21 ff21ff21     !.!.!.!.!.!.!.!.
   15f0c:	f700ff21 6301ffa1 00200000 00000020     !......c.. . ...
   15f1c:	ffa162e2 ff21f701 ff21ff21 ff21ff21     .b....!.!.!.!.!.
   15f2c:	ff20ff21 ff21ff20 f701ff21 41e1ff81     !. . .!.!......A
	...
   15f48:	ff61d5e2 ff01ff01 f701ff01 62c1ff81     ..a............b
   15f58:	00200000 00000000 00000000 ff825241     .. .........AR..
   15f68:	ff01f701 ff01ff01 ff01ff01 ff01ff01     ................
   15f78:	ff01ff01 ff41ff01 0840de42 00000000     ......A.B.@.....
   15f88:	00000000 ff41d602 ff01f701 ff01ff01     ......A.........
   15f98:	ff01ff01 ff01ff01 ff01ff01 ff81f700     ................
   15fa8:	0000ace2 00000000 00000000 00000000     ................
	...
   160bc:	ff614a00 f701f701 f701f701 f701f701     .Ja.............
   160cc:	ff21ff21 ff21ff21 f701ff21 39a1ff61     !.!.!.!.!...a..9
   160dc:	00200000 00000000 00000000 00000000     .. .............
	...
   16104:	ff814201 ff21f700 ff21ff21 ff01ff21     .B....!.!.!.!...
   16114:	ff01ff01 ff01ff01 ff21ff01 18c0f6c1     ..........!.....
	...
   1612c:	de410820 ff01ff60 ff01ff01 ff01ff01      .A.`...........
   1613c:	ff01ff01 ff01ff01 ff01ff01 f701ff01     ................
   1614c:	f6e1f6e1 f6e1f6e1 f6e1f6e1 f6e1f6e1     ................
   1615c:	f6e1f6e1 f6e1f6e1 f6e1f6e1 f6e1f6e1     ................
   1616c:	f6e1f6e1 f6e1f6e1 ff01f6e1 ff01ff01     ................
   1617c:	ff01ff01 ff01ff01 ff01ff01 ff01ff01     ................
   1618c:	f6e1ff01 6301ff81 00200000 00000020     .......c.. . ...
   1619c:	ff8162e2 ff01f6e1 ff01ff01 ff01ff01     .b..............
   161ac:	ff01ff01 ff01ff01 f6e1ff01 41e1ff81     ...............A
	...
   161c8:	ff20cdc2 f6e1f6e1 f6e1f6e1 62c1ff81     .. ............b
	...
   161e4:	ff815241 ff01f6e1 ff01ff01 ff01ff01     AR..............
   161f4:	ff01ff01 ff01ff01 ff21f701 0840de42     ..........!.B.@.
	...
   1620c:	ff21d602 ff01f6e1 ff01ff01 ff01ff01     ..!.............
   1621c:	ff01ff01 ff01ff01 ff61f6e1 0000ace2     ..........a.....
	...
   1633c:	ffc14a20 ff60ff40 ff41ff40 ff41ff61      J..@.`.@.A.a.A.
   1634c:	ff01ff01 ff01ff01 ff01ff01 39a1ff21     ............!..9
	...
   16384:	ff614a01 ff01f6e0 ff01ff01 ff01ff01     .Ja.............
   16394:	ff01ff01 ff01ff01 ff21ff01 18c0f6c1     ..........!.....
	...
   163ac:	de410820 ff01ff41 ff01ff01 ff01ff01      .A.A...........
   163bc:	ff01ff01 ff01ff01 ff01ff01 ff21fee1     ..............!.
   163cc:	ff61ff61 ff61ff61 ff61ff61 ff61ff61     a.a.a.a.a.a.a.a.
   163dc:	ff61ff61 ff61ff61 ff61ff61 ff61ff61     a.a.a.a.a.a.a.a.
   163ec:	ff61ff61 ff61ff61 ff01ff61 fee1fee1     a.a.a.a.a.......
   163fc:	ff01fee1 ff01ff01 ff01ff01 ff01ff01     ................
   1640c:	f6e1ff01 62e1ff81 00200000 00000000     .......b.. .....
   1641c:	ff6162e2 fee1f6e1 fee1ff01 fee1fee1     .ba.............
   1642c:	fee1fee1 fee1fee1 f6e1fee1 41e1ff61     ............a..A
	...
   16448:	ffa1de42 ff61ff61 ff41ff61 62e1ffe2     B...a.a.a.A....b
   16458:	00200000 00000000 00000000 ff615221     .. .........!Ra.
   16468:	fee1f6e1 ff01ff01 ff01ff01 ff01ff01     ................
   16478:	fee1fee1 ff21fee1 0840de21 00000000     ......!.!.@.....
   16488:	00000000 ff21d5e2 fee1f6e1 fee1fee1     ......!.........
   16498:	fee1fee1 fee1fee1 fee1fee1 ff61f6c1     ..............a.
   164a8:	0000acc2 00000000 00000000 00000000     ................
	...
   165bc:	cda23981 c562c562 c562c562 c582c562     .9..b.b.b.b.b...
   165cc:	ff01f6e1 fee1fee1 fee1fee1 c582ff01     ................
   165dc:	b522b502 b502b502 bd43b502 00002921     ..".......C.!)..
	...
   16604:	ff4149e1 fee1f6e1 fee1fee1 fee1fee1     .IA.............
   16614:	fee1fee1 fee1fee1 ff01fee1 18c0f6c1     ................
	...
   1662c:	de210820 fee1ff21 fee1fee1 fee1fee1      .!.!...........
   1663c:	fee1fee1 fee1fee1 fee1fee1 d5c1ff01     ................
   1664c:	9c619421 9c419c41 9c619c61 9c619c61     !.a.A.A.a.a.a.a.
   1665c:	9c619c61 9c619c61 9c619c61 9c619c61     a.a.a.a.a.a.a.a.
   1666c:	9c619c61 9c419c61 fec1aca1 fee1fee1     a.a.a.A.........
   1667c:	fee1fee1 fee1fee1 fee1fee1 fee1fee1     ................
   1668c:	f6c1fee1 62e1ff61 00000000 00000000     ....a..b........
   1669c:	ff6162c2 fee1f6c1 fee1fee1 fee1fee1     .ba.............
   166ac:	fee1fee1 fee1fee1 f6c1fee1 41c1ff22     ............"..A
	...
   166c8:	93c27322 8ba28ba2 83a28ba2 396193e3     "s............a9
	...
   166e4:	ff415221 fee1f6c1 fee0fee1 fee1fee0     !RA.............
   166f4:	fee1fee1 fee1fee1 ff20f6c1 0820de21     .......... .!. .
	...
   1670c:	ff01d5c2 fec1f6c1 fec1fec1 fec1fec1     ................
   1671c:	fec1fec1 fec1fec1 ff41f6c1 0000aca1     ..........A.....
	...
   16848:	10800000 ff00ee82 fee1f6e1 fee1fee1     ................
   16858:	ff21fee1 ff21ff41 ff21ff21 ff62ff20     ..!.A.!.!.!. .b.
   16868:	000039a1 00000000 00000000 00000000     .9..............
	...
   16884:	ff4149e1 fec1fec0 fec1fec1 fec1fec1     .IA.............
   16894:	fec1fec1 fec1fec1 fee0fec1 18c0f6a1     ................
	...
   168ac:	de010820 fec0ff00 fee0fee0 fec1fec1      ...............
   168bc:	fec1fec1 fec1fec1 f6a1fec1 93e1ff41     ............A...
	...
   168f4:	f6a118e1 fec1fec0 fec1fec1 fec1fec1     ................
   16904:	fec1fec1 fec1fec1 f6a1fec1 62e1ff41     ............A..b
	...
   1691c:	ff4162c1 fec1fea1 fec1fec0 fec1fec1     .bA.............
   1692c:	fec1fec1 fec1fec1 f6c0fec1 41c1ff21     ............!..A
	...
   16964:	ff415221 fec1f6a0 fec1fec1 fec1fec1     !RA.............
   16974:	fec0fec0 fec1fec0 ff00f6a0 0840de21     ............!.@.
	...
   1698c:	fee0d5c2 fec1f6a1 fec1fec1 fec1fec1     ................
   1699c:	fec1fec1 fec1fec1 ff21f6a1 0000aca1     ..........!.....
	...
   16ac8:	18a00000 fee1ee62 fec1fec1 fec1fec1     ....b...........
   16ad8:	fea1fec1 f6a1f6a1 f6a1f6a1 fec1f6a1     ................
   16ae8:	00003981 00000000 00000000 00000000     .9..............
	...
   16b04:	ff2149e1 fec1f6a1 fec1fec1 fec1fec1     .I!.............
   16b14:	fec1fec1 fec1fec1 fec0fea1 20c1f681     ............... 
	...
   16b2c:	dde10820 fea1fee0 fec0fec1 fec1fec1      ...............
   16b3c:	fea1fec1 fea1fea1 f6a1fec1 93e1ff21     ............!...
   16b4c:	00200000 00000000 00000000 00000000     .. .............
	...
   16b70:	00000020 f68120e1 fea1fec0 fea1fea1      .... ..........
   16b80:	fea1fea1 fea1fea1 fea1fea1 f680fea1     ................
   16b90:	62c1ff21 00000000 00000000 ff2162c1     !..b.........b!.
   16ba0:	fea1f6a0 fea1fea1 fea1fea1 fea1fea1     ................
   16bb0:	fea1fea1 f6a1fea1 41c1fee1 00000000     ...........A....
	...
   16bc8:	00200000 00000000 00000000 00000020     .. ......... ...
	...
   16be4:	ff215220 fea1f6a1 fea1fea1 fea1fea1      R!.............
   16bf4:	fea1fea1 fea1fea1 fee0f6a1 0820de01     .............. .
	...
   16c0c:	fee0d5c2 fea1f6a1 fea1fea1 fea1fea1     ................
   16c1c:	fea1fea1 fea1fea1 ff01f681 0000ac81     ................
	...
   16d48:	10a00000 fec1ee41 fea1f6a1 fea1fea1     ....A...........
   16d58:	fea1fea1 fea1fea1 fea1fea1 fee1f6a0     ................
   16d68:	00003981 00000000 00000000 00000000     .9..............
	...
   16d84:	ff0249e1 fea1f6a1 fea1fea1 fea1fea1     .I..............
   16d94:	fea1fea1 fea1fea1 fec0f6a1 20c1f681     ............... 
	...
   16dac:	dde10820 fea1fec1 fea1fea1 fea1fea1      ...............
   16dbc:	fea1fea1 fea1fea1 f681fea1 93e1ff01     ................
	...
   16df4:	f66120e1 f6a1fea1 fea1fea1 fea1fea1     . a.............
   16e04:	fea1fea1 fea1fea1 f681fea1 62c1ff01     ...............b
	...
   16e1c:	ff0162c1 fea1f680 fea1fe81 fea1fea1     .b..............
   16e2c:	fea0fea1 fea1fea0 f680fea1 41c1fee1     ...............A
	...
   16e64:	ff015201 f680f681 fe81fe81 fe81fe81     .R..............
   16e74:	fe81fe81 fe81fe81 fec0fe81 0820dde1     .............. .
	...
   16e8c:	fec0d5c1 fe81f681 fe81fe81 fe81fe81     ................
   16e9c:	fe81fe81 fe81fe81 ff01f681 0000ac81     ................
	...
   16fc8:	10a00000 fea1e641 fe81fe81 fe81fe81     ....A...........
   16fd8:	fea1fea1 fea1fea1 fe81fea1 fec1fe80     ................
   16fe8:	00003961 00000000 00000000 00000000     a9..............
	...
   17004:	ff0249e1 f6a1f680 fe81fe81 fe81fe81     .I..............
   17014:	fe81fe81 fe81fe81 fea0fe81 18c1f661     ............a...
	...
   1702c:	ddc10820 fe81fea1 fe81fe81 fe81fe81      ...............
   1703c:	fe81fe81 fe81fe81 f661fe81 93e1ff01     ..........a.....
	...
   17074:	f66120e1 f680fea0 fe81fe81 fe81fe81     . a.............
   17084:	fe81fe81 fe81fe81 f661fe81 62a1fee1     ..........a....b
	...
   1709c:	fee162a1 fe81f660 f680f681 fe81f680     .b..`...........
   170ac:	fe81fe81 fe81fe81 f661fe81 41a0fec1     ..........a....A
	...
   170e4:	fee15201 f681f661 fe61fe81 fe61fe61     .R..a.....a.a.a.
   170f4:	fe61fe61 fe61fe61 fea0fe61 0840ddc1     a.a.a.a.a.....@.
	...
   1710c:	fea0d5a2 fe81f661 fe61fe61 f661f661     ....a...a.a.a.a.
   1711c:	f661f661 fe61f660 fee1f661 0000ac81     a.a.`.a.a.......
	...
   17248:	18800000 fe80ee21 fe61f660 fe61fe61     ....!...`.a.a.a.
   17258:	f661f661 fe81fe61 fe61fe81 fea1fe60     a.a.a.....a.`...
   17268:	00003981 00000020 00000000 00000000     .9.. ...........
	...
   17280:	00000020 fec149e1 fe61f660 fe61fe61      ....I..`.a.a.a.
   17290:	fe61fe61 fe61fe61 fe61fe61 fe81fe61     a.a.a.a.a.a.a...
   172a0:	18c1f641 00000000 00000000 ddc10820     A........... ...
   172b0:	fe61fe80 fe61fe61 f661f661 f661f661     ..a.a.a.a.a.a.a.
   172c0:	f661f661 f661f661 8bc1ff00 00000000     a.a.a.a.........
	...
   172f4:	ee4120c1 f660fe80 fe60f660 fe61fe60     . A...`.`.`.`.a.
   17304:	fe61fe61 fe61fe61 f641fe61 62a2fee1     a.a.a.a.a.A....b
	...
   1731c:	fee162a1 fe61f640 f661f661 f661f661     .b..@.a.a.a.a.a.
   1732c:	f661f661 f661f661 f660f661 41a0fec1     a.a.a.a.a.`....A
	...
   17364:	fec05201 fe61f641 f661fe61 f661f661     .R..A.a.a.a.a.a.
   17374:	fe61fe61 f661f661 fe80f641 0820dda1     a.a.a.a.A..... .
	...
   1738c:	fe81d582 fe61f641 fe60fe60 fe61fe61     ....A.a.`.`.a.a.
   1739c:	fe61fe61 fe61fe61 fec1f641 0000ac81     a.a.a.a.A.......
   173ac:	00000020 00000000 00000000 00000000      ...............
	...
   174c8:	18a00000 fe80ee21 fe60fe60 fe61fe61     ....!...`.`.a.a.
   174d8:	f661fe60 f661f661 fe61f661 fe81fe60     `.a.a.a.a.a.`...
   174e8:	00003141 00000000 00000000 00000000     A1..............
	...
   17504:	fea149c1 fe61f640 fe60fe61 fe61fe61     .I..@.a.a.`.a.a.
   17514:	fe61fe61 f661f661 fe60f661 18c1f641     a.a.a.a.a.`.A...
	...
   1752c:	dda10820 fe61fe81 fe61f661 fe61fe61      .....a.a.a.a.a.
   1753c:	fe61fe61 fe61fe61 f641fe61 8ba1fec0     a.a.a.a.a.A.....
	...
   17574:	f62120c1 f641fe61 fe60fe61 fe41f660     . !.a.A.a.`.`.A.
   17584:	fe61fe41 fe61fe61 f641f661 62a2fec1     A.a.a.a.a.A....b
	...
   1759c:	fec162a2 fe40f620 fe40fe40 fe40fe40     .b.. .@.@.@.@.@.
   175ac:	fe41fe41 fe41fe41 f640fe41 41a0fec1     A.A.A.A.A.@....A
	...
   175e4:	fec05201 fe41f641 fe41fe41 fe41f641     .R..A.A.A.A.A.A.
   175f4:	fe41fe41 fe41fe41 fe80f641 0820dda1     A.A.A.A.A..... .
	...
   1760c:	fe81d582 fe41f641 fe40fe41 fe41fe41     ....A.A.A.@.A.A.
   1761c:	fe41fe41 fe41fe41 fea1f621 0000ac61     A.A.A.A.!...a...
	...
   17748:	10800000 fe41ede2 f641f621 f641f641     ......A.!.A.A.A.
   17758:	fe41f622 fe41fe41 fe41fe41 fe61fe40     ".A.A.A.A.A.@.a.
   17768:	49e07b01 52215221 52205201 52205220     .{.I!R!R.R R R R
   17778:	52205220 52205220 49e05220 fe818341      R R R R R.IA...
   17788:	fe41f641 fe40fe41 fe41fe41 fe41fe41     A.A.A.@.A.A.A.A.
   17798:	fe41fe41 f660f641 18a1ee21 00000000     A.A.A.`.!.......
   177a8:	00000000 dd810820 f641fe61 fe41fe41     .... ...a.A.A.A.
   177b8:	fe41fe41 fe41fe41 fe41fe41 f621fe41     A.A.A.A.A.A.A.!.
   177c8:	8ba1fea1 00000000 00000000 00000000     ................
	...
   177f4:	f62120c1 f641fe40 f641fe41 fe41f641     . !.@.A.A.A.A.A.
   17804:	fe41fe41 fe41fe41 f621fe41 62a1fea1     A.A.A.A.A.!....b
	...
   1781c:	fea162a2 f641f621 f640f640 f640f641     .b..!.A.@.@.A.@.
   1782c:	fe21f641 f641f641 f620f641 41a1fe81     A.!.A.A.A. ....A
	...
   17864:	fe8151e1 fe21f621 f621fe21 f621f621     .Q..!.!.!.!.!.!.
   17874:	f621f621 fe21fe21 fe61fe21 0820dd81     !.!.!.!.!.a... .
	...
   1788c:	fe60d561 fe21f621 fe20fe21 fe21fe21     a.`.!.!.!. .!.!.
   1789c:	fe21fe21 fe21fe21 fe61f621 3961bcc1     !.!.!.!.!.a...a9
   178ac:	418141a1 41814181 41814181 41814181     .A.A.A.A.A.A.A.A
   178bc:	41a141a1 41a141a1 41a141a1 41a141a1     .A.A.A.A.A.A.A.A
   178cc:	41a141a1 41a141a1 41a141a1 41a141a1     .A.A.A.A.A.A.A.A
   178dc:	41a141a1 41a141a1 41a141a1 41a141a1     .A.A.A.A.A.A.A.A
   178ec:	41c141a1 000018a1 00000000 00000000     .A.A............
	...
   179cc:	28e120c1 20e120e1 20e120e1 cd0220c2     . .(. . . . . ..
   179dc:	fe21fe60 fe21fe21 fe21fe21 fea1fe81     `.!.!.!.!.!.....
   179ec:	fe81fe81 fe81fe81 fea1fea1 fe81fe81     ................
   179fc:	fe81fe81 fe81fe81 f621fe61 f621fe21     ........a.!.!.!.
   17a0c:	fe21fe21 fe21fe21 fe21fe21 fe21fe21     !.!.!.!.!.!.!.!.
   17a1c:	fe40fe21 20a1f601 00000000 00000000     !.@.... ........
   17a2c:	dd810820 f621fe60 fe21fe21 f621f621      ...`.!.!.!.!.!.
   17a3c:	fe21f621 f621f621 f621f620 9381fe81     !.!.!.!. .!.....
	...
   17a74:	f60120c1 f621fe20 f621f621 f620f621     . .. .!.!.!.!. .
   17a84:	f621f620 f621f621 f600f621 6a81fe81      .!.!.!.!......j
	...
   17a9c:	fe816281 f601f600 f601f601 f601f601     .b..............
   17aac:	f601f601 f601f601 f600f601 4181fe61     ............a..A
	...
   17ae4:	fe6151e1 f601f600 f601f601 f601fe01     .Qa.............
   17af4:	f600f600 fe00fe00 fe40f600 0820dd61     ..........@.a. .
	...
   17b0c:	fe40d541 fe01f601 f600fe00 f601f601     A.@.............
   17b1c:	f601f601 f601f601 f601f601 fe41fe21     ............!.A.
   17b2c:	fe41fe41 fe41fe41 fe41fe41 fe41fe41     A.A.A.A.A.A.A.A.
   17b3c:	fe41fe41 fe41fe41 fe41fe41 fe41fe41     A.A.A.A.A.A.A.A.
   17b4c:	fe41fe41 fe41fe41 fe41fe41 fe41fe41     A.A.A.A.A.A.A.A.
   17b5c:	fe41fe41 fe41fe41 fe41fe41 fe41fe41     A.A.A.A.A.A.A.A.
   17b6c:	fea2fe21 00006ac2 00000000 00000000     !....j..........
	...
   17c58:	ccc20000 f601fe40 fe21fe21 fe21f601     ....@...!.!...!.
   17c68:	f601f601 f5e0f601 f601f5e0 f601f601     ................
   17c78:	f5e0f5e0 f5e0f5e0 f5e0f5e0 f600f600     ................
   17c88:	f600f600 f601f600 f601f601 f601f601     ................
   17c98:	fe01fe01 f620f600 20a0ede1 00000000     ...... .... ....
   17ca8:	00000000 d5610020 f601fe41 fe01fe01     .... .a.A.......
   17cb8:	f601f601 fe01fe01 fe01f601 f600fe01     ................
   17cc8:	9381fe81 00000000 00000000 00000000     ................
	...
   17cf4:	f5e120c1 f601fe00 f601f601 f601f601     . ..............
   17d04:	f601f601 f601f601 f5e1f601 6a81fe61     ............a..j
	...
   17d1c:	fe616282 fe01f5e1 fde1fde1 fde1fde1     .ba.............
   17d2c:	fe01fe01 fe01fe01 f5e1fde1 41a1fe61     ............a..A
	...
   17d64:	fe4151c1 f5e0f5e0 fde1f5e1 f5e1fde1     .QA.............
   17d74:	f5e1f5e1 fde0fde0 fe21f5e1 0820dd41     ..........!.A. .
	...
   17d8c:	fe20d541 f5e0f5e1 f5e1f5e0 f5e1f5e1     A. .............
   17d9c:	f5e1f5e1 f5e1f5e1 f5e1f5e1 fdc0fde0     ................
   17dac:	f5e0f5e0 f5e0f5e0 f5e0f5e0 f5e0f5e0     ................
   17dbc:	f5e0f5e0 f5e0f5e0 f5e0f5e0 f5e0f5e0     ................
   17dcc:	f5e0f5e0 f5e0f5e0 f5e0f5e0 f5e0f5e0     ................
   17ddc:	f5e0f5e0 f5e0f5e0 f5e0f5e0 f5e0f5e0     ................
   17dec:	fe41f5c0 00006a81 00000000 00000000     ..A..j..........
	...
   17ed8:	cca20000 f5e1fe40 f5e1f5e1 f600fde1     ....@...........
   17ee8:	f601f601 f5e1f5e1 f5e1f5e1 f601f5e1     ................
   17ef8:	f5e1f5e1 f5e1f5e1 f5e1f5e1 f5e1fde1     ................
   17f08:	f5e1f5e1 fde1f5e1 f5e1fde1 f5e1f5e1     ................
   17f18:	fde1f5e1 f620f5e0 20a0ede1 00000000     ...... .... ....
   17f28:	00000000 dd410820 f5e1fe21 fde1fde1     .... .A.!.......
   17f38:	fde1f5e1 f5e1f5e1 f5e1f5e1 f5e1f5e1     ................
   17f48:	8b82fe61 00000000 00000000 00000000     a...............
	...
   17f74:	f5e120c1 f5e1fde0 f5e1f5e1 f5e1f5e1     . ..............
   17f84:	f5e1f5e1 f5e1f5e1 f5c1f5e1 6a81fe41     ............A..j
	...
   17f9c:	fe416281 f5e1f5c1 f5e1f5e1 fde1fde1     .bA.............
   17fac:	fde1fde1 fde1fde1 f5e0fde1 4181fe21     ............!..A
	...
   17fe4:	fe4151c1 f5e1f5c0 fde1fde1 f5e0fde1     .QA.............
   17ff4:	f5e0f5e0 f5e0fde0 fe01f5c1 0820dd41     ............A. .
	...
   1800c:	fe00d502 f5e0f5c0 f5e0f5e0 f5e1f5e1     ................
   1801c:	f5e1f5e1 fdc1f5e1 f5e1fdc1 fde1fde1     ................
   1802c:	fde1fde1 f5c1fde1 f5c1f5c1 f5c0f5c0     ................
   1803c:	f5c0f5c0 f5c0f5c0 f5c0f5c0 f5c0f5c0     ................
   1804c:	f5c0f5c0 f5c0f5c0 f5c0f5c0 f5c0f5c0     ................
   1805c:	f5c0f5c0 f5c0f5c0 f5c0f5c0 f5c0f5c0     ................
   1806c:	fe21f5a1 00006a82 00000000 00000000     ..!..j..........
	...
   18158:	c4a20000 f5c1fe20 fde1fde1 fde0fde1     .... ...........
   18168:	f5e1f5e1 f5e1f5e1 f5e1f5e1 f5e1f5e1     ................
   18178:	fde1fde1 f5e1f5e1 f5e1f5e1 fde1fde1     ................
   18188:	f5e1f5e1 fde1f5e1 f5e1fde1 f5e1f5e1     ................
   18198:	fde1f5e1 f600f5e1 20a0edc1 00000000     ........... ....
   181a8:	00000000 dd210820 f5c0fe00 f5e1f5e1     .... .!.........
   181b8:	f5e0f5e1 f5c1f5c0 f5c1f5c1 f5c1f5c1     ................
   181c8:	8b62fe41 00000000 00000000 00000000     A.b.............
	...
   181f4:	f5c120c1 fdc1fdc0 f5c1fdc0 f5c1f5c1     . ..............
   18204:	f5c1f5c1 f5c1f5c1 f5c1f5c1 6a61fe21     ............!.aj
	...
   1821c:	fe216261 f5c1f5c1 f5c1f5c1 f5c1f5c1     ab!.............
   1822c:	f5c0f5c1 f5c1f5c1 f5c0f5c1 4181fe01     ...............A
	...
   18264:	fe0151c0 f5c1f5a1 f5c0f5c0 f5c0f5c0     .Q..............
   18274:	f5c0f5c0 f5c0f5c0 fde1f5a1 0820dd21     ............!. .
	...
   1828c:	fde0d4e2 f5a1f5a1 f5a1f5a1 f5a1f5a1     ................
   1829c:	f5c0f5a1 f5a1f5c0 f5a1f5a1 f5a1f5a1     ................
   182ac:	f5a1f5a1 f5a1f5a1 f5a1f5a1 f5a0f5a0     ................
   182bc:	f5a0f5a0 f5a0f5a0 f5a0f5a0 f5a0f5a0     ................
   182cc:	f5a0f5a0 f5a0f5a0 f5a0f5a0 f5a0f5a0     ................
   182dc:	f5a0f5a0 f5a0f5a0 f5a0f5a0 f5a0f5a1     ................
   182ec:	fe01f581 00006a61 00000000 00000000     ....aj..........
	...
   183d8:	c4820000 f5a0fe00 f5c0f5c0 f5c0f5c0     ................
   183e8:	f5c0f5c0 f5c0f5c0 f5c0f5c0 f5c0f5c0     ................
   183f8:	f5a0f5a0 f5a0f5a0 f5a0f5a0 f5a0f5a0     ................
   18408:	f5a0f5a0 f5a0f5a0 f5a0f5a0 f5a0f5a0     ................
   18418:	f5a0f5a0 f5c0f5a0 20a0ed81 00000000     ........... ....
   18428:	00000000 dd010820 f5a0fde0 f5a1f5a1     .... ...........
   18438:	f5a0f5a0 f5a1f5a0 f5a1f5a1 f581f5a1     ................
   18448:	8b62fe21 00000000 00000000 00000000     !.b.............
	...
   18474:	f58220c1 f5a0f5a0 f5a0f5a0 f5a0f5a0     . ..............
   18484:	f5a0f5a0 f5a0f5a0 f580f5a0 6a61fe01     ..............aj
	...
   1849c:	fe016261 f5a1f581 f5a1f5a1 f5a1f5a1     ab..............
   184ac:	f581f5a1 f5a1f5a1 f580f581 4161fde1     ..............aA
	...
   184e4:	fde149c0 f580f580 f580f580 f580f580     .I..............
   184f4:	f580f580 f580f580 fdc0f580 0820dd01     .............. .
	...
   1850c:	fdc0d4c2 f580f580 f580f580 f580f580     ................
   1851c:	f580f580 f580f580 f580f580 f581f581     ................
   1852c:	f581f581 f581f581 f580f580 f581f581     ................
   1853c:	f581f581 f581f581 f581f581 f581f581     ................
   1854c:	f581f581 f581f581 f581f581 f581f581     ................
   1855c:	f581f581 f581f581 f581f581 f580f581     ................
   1856c:	fde1f561 00006261 00000000 00000000     a...ab..........
	...
   18658:	cca20000 fdc0fe20 fdc0fdc0 fdc0fdc0     .... ...........
   18668:	fdc0fdc0 fdc0fdc0 fdc0fdc0 fdc0fdc0     ................
   18678:	fdc0fdc0 fdc0fdc0 fdc0fdc0 fdc0fdc0     ................
   18688:	fdc0fdc0 fdc0fdc0 fdc0fdc0 fdc0fdc0     ................
   18698:	fdc0fdc0 fdc0fdc0 18a0f581 00000000     ................
   186a8:	00000000 e5210820 fdc1fde0 fdc1fdc1     .... .!.........
   186b8:	fdc1fdc1 fdc1fdc1 fdc1fdc1 fda0fdc1     ................
   186c8:	9382fe41 00000000 00000000 00000000     A...............
	...
   186f4:	f5a120a1 fdc0fdc0 fdc0fdc0 fdc0fdc0     . ..............
   18704:	fdc0fdc0 fdc0fdc0 fda0fdc0 6a61fe20     ............ .aj
	...
   1871c:	fe016a61 fda1f5a1 fda1fda1 fda1fda1     aj..............
   1872c:	fda1fda1 fda1fda1 fda1fda1 4181fde1     ...............A
	...
   18764:	fe0051e0 fda0fda0 fda0fda0 fda0fda0     .Q..............
   18774:	fda0fda0 fda0fda0 fde0fda0 0820e501     .............. .
	...
   1878c:	fdc0dcc1 fda0fda0 fda0fda0 fda0fda0     ................
   1879c:	fda0fda0 fda0fda0 fda0fda0 fda0fda0     ................
   187ac:	fda0fda0 fda0fda0 fda0fda0 fda0fda0     ................
   187bc:	fda0fda0 fda0fda0 fda0fda0 fda0fda0     ................
   187cc:	fda0fda0 fda0fda0 fda0fda0 fda0fda0     ................
   187dc:	fda0fda0 fda0fda0 fda0fda0 fda0fda0     ................
   187ec:	fe00fd80 00006a81 00000000 00000000     .....j..........
	...
   188d8:	b3a20000 d4c1e4e1 dcc1d4c1 dce1dce1     ................
   188e8:	dce1dce1 dce1dce1 dce1dce1 dce1dce1     ................
   188f8:	dce1dce1 dce1dce1 dce1dce1 dce1dce1     ................
   18908:	dce1dce1 dce1dce1 dce1dce1 dce1dce1     ................
   18918:	dce1dce1 dcc1dcc1 1880d4a1 00000000     ................
   18928:	00000000 bc420820 dcc1dce2 dcc1dcc1     .... .B.........
   18938:	dcc1dcc1 dcc1dcc1 dcc1dcc1 d4c1dcc1     ................
   18948:	7ac2ed02 00000000 00000000 00000000     ...z............
	...
   18974:	d48218a1 d4c1dcc1 dcc1dcc1 dcc1dcc1     ................
   18984:	dcc1dcc1 dcc1dcc1 d4a1dcc1 59e1ed01     ...............Y
	...
   1899c:	ed0259e1 dca2d4a1 dca2dca2 dcc2dcc2     .Y..............
   189ac:	dcc2dcc2 dcc2dcc2 dca2dcc2 3940e4e2     ..............@9
	...
   189e4:	ece24161 dca1d4a1 dca1dca1 dca1dca1     aA..............
   189f4:	dca1dca1 dca1dca1 e4c2dca1 0820c422     ............". .
	...
   18a0c:	e4e1bbe2 dca1dca1 dca1dca1 dca1dca1     ................
   18a1c:	dca1dca1 dca1dca1 dca1dca1 dca1dca1     ................
   18a2c:	dca1dca1 dca1dca1 dca1dca1 dca1dca1     ................
   18a3c:	dca1dca1 dca1dca1 dca1dca1 dca1dca1     ................
   18a4c:	dca1dca1 dca1dca1 dca1dca1 dca1dca1     ................
   18a5c:	dca1dca1 dca1dca1 dca1dca1 dca1dca1     ................
   18a6c:	ece2d481 00005a02 00000000 00000000     .....Z..........
	...
   18b58:	00200000 08200820 08200820 08200820     .. . . . . . . .
   18b68:	08200820 08200820 08200820 08200820      . . . . . . . .
   18b78:	08200820 08200820 08200820 08200820      . . . . . . . .
   18b88:	08200820 08200820 08200820 08200820      . . . . . . . .
   18b98:	08200820 08200820 00000820 00000000      . . . . .......
   18ba8:	00000000 00200000 08200820 08200820     ...... . . . . .
   18bb8:	08200820 08200820 08200820 08200820      . . . . . . . .
   18bc8:	00000820 00000000 00000000 00000000      ...............
	...
   18bf4:	08200000 08200820 08200820 08200820     .. . . . . . . .
   18c04:	08200820 08200820 08200820 00000820      . . . . . . ...
	...
   18c1c:	08200000 08200820 08200820 00200820     .. . . . . . . .
   18c2c:	00200020 00200020 08200020 00000820      . . . . . . ...
	...
   18c64:	08200000 08200820 08200820 08200820     .. . . . . . . .
   18c74:	08200820 08200820 08200820 00000020      . . . . . . ...
	...
   18c8c:	08200820 08200820 08200820 08200820      . . . . . . . .
   18c9c:	08200820 08200820 08200820 08200820      . . . . . . . .
   18cac:	08200820 08200820 08200820 08200820      . . . . . . . .
   18cbc:	08200820 08200820 08200820 08200820      . . . . . . . .
   18ccc:	08200820 08200820 08200820 08200820      . . . . . . . .
   18cdc:	08200820 08200820 08200820 08200820      . . . . . . . .
   18cec:	08200820 00000000 00000000 00000000      . .............
	...
   192cc:	00200020 00200020 00200020 00200020      . . . . . . . .
   192dc:	00200020 00200020 00200020 00200020      . . . . . . . .
   192ec:	00200020 00200020 00200020 00200020      . . . . . . . .
   192fc:	00200020 00200020 00200020 00200020      . . . . . . . .
   1930c:	00200020 00000020 00000000 00000000      . . ...........
	...
   19348:	00000020 00000000 00000000 00000000      ...............
	...
   1937c:	00200000 00200020 00200020 00200020     .. . . . . . . .
   1938c:	00000020 00000020 00000000 00000000      ... ...........
   1939c:	00200000 00000000 00000000 00000000     .. .............
	...
   193fc:	00200000 00000000 00000000 00000000     .. .............
   1940c:	00000020 00000000 00000000 00000000      ...............
	...
   19548:	59a10000 d421e462 d441d441 d441d441     ...Yb.!.A.A.A.A.
   19558:	d441d441 d441d441 d441d441 d441d441     A.A.A.A.A.A.A.A.
   19568:	d441d441 d441d441 d441d441 d441d441     A.A.A.A.A.A.A.A.
   19578:	d441d441 d421d421 d421d421 d421d421     A.A.!.!.!.!.!.!.
   19588:	d421d421 d421d421 b342dc61 00000000     !.!.!.!.a.B.....
	...
   195ac:	bba10820 d421dc42 d421d421 d421d421      ...B.!.!.!.!.!.
   195bc:	d421d421 d421d421 d401d421 4141e442     !.!.!.!.!...B.AA
	...
   195f4:	d3e21880 d401dc01 d421d421 d421d421     ........!.!.!.!.
   19604:	d421d421 d421d421 d401d421 59a1e461     !.!.!.!.!...a..Y
	...
   1961c:	e46259a1 d422d402 d422d422 d401d421     .Yb...".".".!...
   1962c:	d422d421 d421d422 d401d401 d401d401     !.".".!.........
   1963c:	d401d401 d401d401 d401d401 d401d401     ................
   1964c:	d401d401 d421d401 d421d422 d421d421     ......!.".!.!.!.
   1965c:	d421d421 d421d421 d421d421 d421d421     !.!.!.!.!.!.!.!.
   1966c:	d421d421 d421d421 d421d421 d421d422     !.!.!.!.!.!.".!.
   1967c:	dc22d402 0020bb61 00000000 00200000     ..".a. ....... .
   1968c:	dc22b362 d402d402 d401d401 d401d401     b.".............
   1969c:	d401d401 d401d401 d401d401 d401d401     ................
   196ac:	d401d401 d401d401 d401d401 d401d401     ................
   196bc:	d401d401 d401d401 d401d401 d401d401     ................
   196cc:	d401d401 d401d401 d401d401 d401d401     ................
   196dc:	d3e2d401 30e1dc02 00000000 00000000     .......0........
	...
   197c8:	69e10000 fce1fd21 fce1fce1 fce1fce1     ...i!...........
   197d8:	fce1fce1 fce1fce1 fce1fce1 fce1fce1     ................
   197e8:	fce1fce1 fce1fce1 fce1fce1 fce1fce1     ................
   197f8:	fce1fce1 fce1fce1 fce1fce1 fce1fce1     ................
   19808:	fce1fce1 fce1fce1 d3e2fd20 00000000     ........ .......
	...
   1982c:	e4410820 fcc1fce1 fcc0fcc0 fcc0fcc0      .A.............
   1983c:	fcc0fcc0 fcc0fcc0 f4a0fcc0 5181fd01     ...............Q
	...
   19874:	fca220a0 fcc1fcc1 fcc0fcc1 fcc1fcc0     . ..............
   19884:	fce1fce1 fce0fce0 fcc0fce0 6201fd20     ............ ..b
	...
   1989c:	fd016a01 fcc1fca1 fcc0fce0 fcc0fcc0     .j..............
   198ac:	fce1fcc0 fcc0fce1 fcc0fcc0 fcc0fcc0     ................
   198bc:	fcc0fcc0 fcc0fcc0 fcc0fcc0 fcc0fcc0     ................
   198cc:	fcc0fcc0 fcc0fcc0 fcc0fcc0 fcc0fcc0     ................
   198dc:	fcc0fcc0 fcc0fcc0 fcc0fcc0 fcc0fcc0     ................
   198ec:	fcc0fcc0 fcc0fcc0 fcc0fcc0 fcc0fcc0     ................
   198fc:	fcc1fcc1 0820dc21 00000000 00000000     ....!. .........
   1990c:	fce0dc01 fcc1fca1 fcc1fcc1 fcc1fcc1     ................
   1991c:	fcc1fcc1 fcc1fcc1 fcc1fcc1 fcc1fcc1     ................
   1992c:	fcc1fcc1 fcc1fcc1 fcc1fcc1 fcc1fcc1     ................
   1993c:	fcc1fcc1 fcc1fcc1 fcc1fcc1 fcc1fcc1     ................
   1994c:	fcc1fcc1 fcc1fcc1 fcc1fcc1 fcc1fcc1     ................
   1995c:	fc81fca1 3901fcc1 00000000 00000000     .......9........
	...
   19a48:	69c10000 ec80fcc1 f4a0f480 f4a0f4a0     ...i............
   19a58:	f4a0f4a0 f4a0f4a0 f4a0f4a0 f4a0f4a0     ................
   19a68:	f4a0f4a0 f4a0f4a0 f4a0f4a0 f4a0f4a0     ................
   19a78:	f480f480 f480f480 f480f480 f480f480     ................
   19a88:	f480f480 ec80f480 cba2fcc0 00000000     ................
	...
   19aac:	dc010820 f461fc81 f481f480 f480f480      .....a.........
   19abc:	f481f480 f480f481 ec60f480 5161fcc1     ..........`...aQ
	...
   19af4:	f46220a0 f481f481 f481f481 f481f481     . b.............
   19b04:	f481f481 f480f480 f460f480 61e1fcc0     ..........`....a
	...
   19b1c:	fcc161c1 f480ec60 f480f480 f460f460     .a..`.......`.`.
   19b2c:	f480f460 f460f480 f460f460 f460f460     `.....`.`.`.`.`.
   19b3c:	f460f460 f460f460 f460f460 f460f460     `.`.`.`.`.`.`.`.
   19b4c:	f460f460 f460f460 f460f460 f460f460     `.`.`.`.`.`.`.`.
   19b5c:	f460f460 f460f460 f460f460 f460f460     `.`.`.`.`.`.`.`.
   19b6c:	f460f460 f460f460 f460f460 f460f460     `.`.`.`.`.`.`.`.
   19b7c:	fc81f461 0820d3e1 00000000 00000000     a..... .........
   19b8c:	fc80d3c1 f460f460 f460f460 f460f460     ....`.`.`.`.`.`.
   19b9c:	f460f460 f460f460 f460f460 f460f460     `.`.`.`.`.`.`.`.
   19bac:	f460f460 f460f460 f460f460 f460f460     `.`.`.`.`.`.`.`.
   19bbc:	f460f460 f460f460 f460f460 f460f460     `.`.`.`.`.`.`.`.
   19bcc:	f460f460 f460f460 f460f460 f460f460     `.`.`.`.`.`.`.`.
   19bdc:	f441f461 38e1fc61 00000000 00000000     a.A.a..8........
	...
   19cc8:	69e10000 f460fcc1 f480f480 f480f480     ...i..`.........
   19cd8:	f480f480 f480f480 f480f480 f480f480     ................
   19ce8:	f480f480 f480f480 f480f480 f480f480     ................
   19cf8:	f480f480 f480f480 f480f480 f480f480     ................
   19d08:	f480f480 f460f480 cba1fca0 00000000     ......`.........
	...
   19d2c:	dbe10820 f460fc81 f461f460 f460f460      .....`.`.a.`.`.
   19d3c:	f460f460 f460f460 f460f460 4960fcc0     `.`.`.`.`.`...`I
	...
   19d74:	f46120a0 f460f460 f460f460 f460f460     . a.`.`.`.`.`.`.
   19d84:	f460f460 f460f460 f440f460 69e1fca0     `.`.`.`.`.@....i
	...
   19d9c:	fca069c1 f460f460 f460f460 f460f460     .i..`.`.`.`.`.`.
   19dac:	f460f460 f460f460 f460f460 f460f460     `.`.`.`.`.`.`.`.
   19dbc:	f460f460 f460f460 f460f460 f460f460     `.`.`.`.`.`.`.`.
   19dcc:	f460f460 f460f460 f460f460 f460f460     `.`.`.`.`.`.`.`.
   19ddc:	f460f460 f460f460 f460f460 f440f440     `.`.`.`.`.`.@.@.
   19dec:	f460f440 f440f460 f440f440 f460f460     @.`.`.@.@.@.`.`.
   19dfc:	fc60f440 0820d3c1 00000000 00000000     @.`... .........
   19e0c:	fc80d3c1 f440f440 f440f440 f440f440     ....@.@.@.@.@.@.
   19e1c:	f440f440 f440f440 f440f440 f440f440     @.@.@.@.@.@.@.@.
   19e2c:	f440f440 f440f440 f440f440 f440f440     @.@.@.@.@.@.@.@.
   19e3c:	f440f440 f440f440 f440f440 f440f440     @.@.@.@.@.@.@.@.
   19e4c:	f440f440 f440f440 f440f440 f440f440     @.@.@.@.@.@.@.@.
   19e5c:	f440f440 38e1fc61 00000000 00000000     @.@.a..8........
	...
   19f48:	69c10000 f441fca1 f460f461 f460f460     ...i..A.a.`.`.`.
   19f58:	f460f460 f460f460 f460f460 f460f460     `.`.`.`.`.`.`.`.
   19f68:	f460f460 f460f460 f460f460 f460f460     `.`.`.`.`.`.`.`.
   19f78:	f461f461 f460f461 f460f460 f460f460     a.a.a.`.`.`.`.`.
   19f88:	f460f460 f440f460 cb81fc80 00000000     `.`.`.@.........
	...
   19fac:	dbe10820 f440fc60 f440f460 f440f440      ...`.@.`.@.@.@.
   19fbc:	f440f440 f441f440 f440f441 4960fca1     @.@.@.A.A.@...`I
	...
   19ff4:	ec412080 f440f440 f440f440 f440f440     . A.@.@.@.@.@.@.
   1a004:	f440f440 f440f440 f420f440 69c1fc80     @.@.@.@.@. ....i
	...
   1a01c:	fc8161c1 f440f440 f440f440 f440f440     .a..@.@.@.@.@.@.
   1a02c:	f440f440 f440f440 f440f440 f441f441     @.@.@.@.@.@.A.A.
   1a03c:	f421f421 f421f421 f421f421 f421f421     !.!.!.!.!.!.!.!.
   1a04c:	f421f421 f421f421 f421f421 f421f421     !.!.!.!.!.!.!.!.
   1a05c:	f421f421 f421f421 f421f421 f420f420     !.!.!.!.!.!. . .
   1a06c:	f421f420 f420f421 f420f420 f421f421      .!.!. . . .!.!.
   1a07c:	f440f421 0820d3a1 00000000 00000000     !.@... .........
   1a08c:	fc40d3a1 f420f420 f420f420 f420f420     ..@. . . . . . .
   1a09c:	f420f420 f420f420 f420f420 f420f420      . . . . . . . .
   1a0ac:	f420f420 f420f420 f420f420 f420f420      . . . . . . . .
   1a0bc:	f420f420 f420f420 f420f420 f420f420      . . . . . . . .
   1a0cc:	f420f420 f420f420 f420f420 f420f420      . . . . . . . .
   1a0dc:	f400f420 38e1fc41 00000000 00000000      ...A..8........
	...
   1a1c4:	00200000 69c10000 f420fc81 f440f440     .. ....i.. .@.@.
   1a1d4:	f440f440 f420f440 ec20ec20 ec20ec20     @.@.@. . . . . .
   1a1e4:	f420f420 ec20ec20 f420ec20 ec20f420      . . . . . . . .
   1a1f4:	ec20ec20 f420f420 f420f420 ec20f420      . . . . . . . .
   1a204:	f420f420 f420f420 f420f420 cb61fc60      . . . . . .`.a.
	...
   1a22c:	dbc10820 f420fc40 f420f420 f420f420      ...@. . . . . .
   1a23c:	f420f420 f420f420 f420f420 5141fc61      . . . . . .a.AQ
	...
   1a274:	ec212080 f420f420 f420f420 f420f420     . !. . . . . . .
   1a284:	f420f420 f420f420 ec00f420 69c1fc60      . . . . ...`..i
	...
   1a29c:	fc6161a1 f420f400 f420f420 f420f420     .aa... . . . . .
   1a2ac:	f420f420 f420f420 f400f400 f421f401      . . . .......!.
   1a2bc:	f420f420 f420f420 f420f420 f420f420      . . . . . . . .
   1a2cc:	f420f420 f420f420 f420f420 f420f420      . . . . . . . .
   1a2dc:	f420f420 f420f420 f420f420 f420f420      . . . . . . . .
   1a2ec:	f420f420 f420f420 f420f420 f420f420      . . . . . . . .
   1a2fc:	fc40f421 0820db81 00000000 00000000     !.@... .........
   1a30c:	fc20d361 f400f400 f400f400 f400f400     a. .............
   1a31c:	f400f400 f400f400 f400f400 f3e0f400     ................
   1a32c:	f400f400 f400f400 f400f400 f3e0ebe0     ................
   1a33c:	f400f3e0 f3e0f400 f3e0f3e0 f3e0f3e0     ................
   1a34c:	ebe0ebe0 ebe0ebe0 f400f400 f400f400     ................
   1a35c:	f3e0f400 38e1fc01 00000000 00000000     .......8........
	...
   1a448:	61a00000 ec00fc60 f420f420 f420f420     ...a`... . . . .
   1a458:	fc40f420 fc60fc60 fc60fc60 fc60fc60      .@.`.`.`.`.`.`.
   1a468:	fc60fc60 fc60fc60 fc60fc60 fc60fc60     `.`.`.`.`.`.`.`.
   1a478:	fc41fc41 fc41fc41 fc41fc41 f400fc20     A.A.A.A.A.A. ...
   1a488:	f400f400 f400f400 cb41fc40 10401040     ........@.A.@.@.
   1a498:	10201040 10401020 00001040 00000000     @. . .@.@.......
   1a4a8:	00000000 dba10820 f400fc20 f400f400     .... ... .......
   1a4b8:	f400f400 f400f400 f400f400 f400f400     ................
   1a4c8:	5140fc41 00000000 00000000 00000000     A.@Q............
	...
   1a4f4:	ec012080 f400f400 f400f400 f400f400     . ..............
   1a504:	f400f400 f400f400 ebe0f400 69a1fc40     ............@..i
	...
   1a51c:	fc4061a1 f400ebe0 f400f400 f400f400     .a@.............
   1a52c:	f400f400 f400f400 f400f400 ebc1f3e0     ................
   1a53c:	e3a1e3a1 e3a1e3a1 e3a1e3a1 e3a1e3a1     ................
   1a54c:	e3a1e3a1 e3a1e3a1 e3a1e3a1 e3a1e3a1     ................
   1a55c:	e3a1e3a1 e3a1e3a1 e3a1e3a1 e3a1e3a1     ................
   1a56c:	e3a1e3a1 e3a1e3a1 e3a1e3a1 e3a1e3a1     ................
   1a57c:	ebc1e3a1 0820cb21 00000000 00000000     ....!. .........
   1a58c:	fc00d361 f3e0f3e0 f3e0f3e0 f3e0f3e0     a...............
   1a59c:	f3e0f3e0 f3e0f3e0 f3e0f3e0 fc20fc00     .............. .
   1a5ac:	fc20fc20 fc20fc20 fc20fc20 fc20fc20      . . . . . . . .
   1a5bc:	fc20fc20 fc20fc20 fc20fc20 fc20fc20      . . . . . . . .
   1a5cc:	fc20fc20 fc00fc20 f3e0f3e0 f3e0f3e0      . . ...........
   1a5dc:	f3c0f3e0 4101fbe1 10400800 10201020     .......A..@. . .
   1a5ec:	10201020 00000800 00000000 00000000      . .............
	...
   1a6bc:	aac128c0 a2a19a81 a2a1a2a1 c3219a81     .(............!.
   1a6cc:	ec00f400 f400f400 f400f400 8221fc01     ..............!.
   1a6dc:	59805160 59805980 59805980 59815981     `Q.Y.Y.Y.Y.Y.Y.Y
   1a6ec:	59805980 59805980 59805980 59805980     .Y.Y.Y.Y.Y.Y.Y.Y
   1a6fc:	59805980 51406180 fc21a281 f401f3e1     .Y.Y.a@Q..!.....
   1a70c:	f3e0f3e1 f3e0f400 e3a1e381 e3a0e3a1     ................
   1a71c:	e3a1e3a1 1860db61 00000000 00000000     ....a.`.........
   1a72c:	db610820 f3e0fc00 f3e0f3e0 f3e0f3e0      .a.............
   1a73c:	f3e0f3e0 f3e0f3e0 f3e0f3e0 5120fc21     ............!. Q
	...
   1a774:	ebe12081 f3e0f3e0 f3e0f3e0 f3e0f3e0     . ..............
   1a784:	f3e0f3e0 f3e0f3e0 ebc0f3e0 61a1fc21     ............!..a
	...
   1a79c:	fc2061a1 f3e0ebc0 f3e0f3e0 f3e0f3e0     .a .............
   1a7ac:	f3e0f3e0 f3e0f3e0 f3c0f3e0 4101f3c1     ...............A
   1a7bc:	10400820 10401040 10401040 10401040      .@.@.@.@.@.@.@.
   1a7cc:	10401040 10401040 10401040 10401040     @.@.@.@.@.@.@.@.
   1a7dc:	10401040 10401040 10401040 10401040     @.@.@.@.@.@.@.@.
   1a7ec:	10401040 10401040 10401040 10401040     @.@.@.@.@.@.@.@.
   1a7fc:	10401040 00001040 00000000 00000000     @.@.@...........
   1a80c:	fbe0d341 f3c0f3c0 f3c0f3c0 f3c0f3c0     A...............
   1a81c:	f3c0f3c0 f3c0f3c0 fbe0f3a0 5140bac1     ..............@Q
   1a82c:	59605960 59605960 59605960 59605960     `Y`Y`Y`Y`Y`Y`Y`Y
   1a83c:	59605960 59605960 59605960 59605960     `Y`Y`Y`Y`Y`Y`Y`Y
   1a84c:	59605960 69a15160 f3c0f3a1 f3a0f3a0     `Y`Y`Q.i........
   1a85c:	f3a0f3a0 e361f3a0 e341e341 e341e341     ......a.A.A.A.A.
   1a86c:	f382db41 00006161 00000000 00000000     A...aa..........
	...
   1a93c:	fc414940 fc21fc00 fc21fc21 fc00fc20     @IA...!.!.!. ...
   1a94c:	f3e0f3e0 f3c0f3e0 f3c0f3c0 38e1fbe1     ...............8
	...
   1a984:	fc0069a1 f3c0ebc0 f3c0f3c0 f3c0f3c0     .i..............
   1a994:	f3e0f3e0 f3e0f3e0 fbe0f3e0 1860eba0     ..............`.
	...
   1a9ac:	db410820 f3c0fbe0 f3c0f3c0 f3c0f3c0      .A.............
   1a9bc:	f3c0f3c0 f3c0f3c0 f3a0f3c0 5120fc00     .............. Q
	...
   1a9f4:	ebc12080 f3c0f3c0 f3a0f3c0 f3c0f3a0     . ..............
   1aa04:	f3c0f3c0 f3c0f3c0 eba0f3c0 6181fc01     ...............a
	...
   1aa1c:	fc006181 f3a0eba0 f3a0f3a0 f3a0f3a0     .a..............
   1aa2c:	f3a0f3a0 f3a0f3a0 f3a0f3a0 30a1fba1     ...............0
	...
   1aa8c:	fbc0d321 f380eba0 f380f380 f380f380     !...............
   1aa9c:	f380f380 f380f380 fbc0eb80 00009201     ................
	...
   1aad0:	18600000 f380eb61 f380f380 f380f380     ..`.a...........
   1aae0:	f380f380 f3a0f3a0 f3a0f3a0 fbc0f380     ................
   1aaf0:	00006981 00000000 00000000 00000000     .i..............
	...
   1abbc:	fbe04100 eba0eba0 ebc0ebc0 f3a0eba0     .A..............
   1abcc:	f3c0f3c0 f3c0f3c0 f3a0f3c0 38e1fbc1     ...............8
	...
   1ac00:	00000020 fbe069a1 f3a0eba0 f3a0f3a0      ....i..........
   1ac10:	f3a0f3a0 f3a0f3a0 f3a0f3a0 f3a0f3a0     ................
   1ac20:	1860eb81 00000000 00000000 db410820     ..`......... .A.
   1ac30:	f3a0fbc0 f3a0f3a0 f3a0f3a0 f3a0f3a0     ................
   1ac40:	f3a0f3a0 eb80f3a0 4920fbe0 00000000     .......... I....
	...
   1ac74:	eba12080 f380f380 f380f380 f380f380     . ..............
   1ac84:	f380f380 f380f380 eb80f380 6181fbc0     ...............a
	...
   1ac9c:	fbc06181 f380eb80 f380f380 f380f380     .a..............
   1acac:	f380f380 f380f380 f380f380 30a1fb81     ...............0
	...
   1ad0c:	fb80d300 f360eb60 f360f360 f360f360     ....`.`.`.`.`.`.
   1ad1c:	f360f360 f360f360 fba0eb60 00009a01     `.`.`.`.`.......
	...
   1ad50:	20800000 f360eb41 f360f360 f360f360     ... A.`.`.`.`.`.
   1ad60:	f360f360 f360f360 f360f360 fb80eb60     `.`.`.`.`.`.`...
   1ad70:	00006961 00000000 00000000 00000000     ai..............
	...
   1ae3c:	fbc04100 f380eb80 f380f380 f3a0f3a0     .A..............
   1ae4c:	f380f380 f380f380 f380f380 38e1fba1     ...............8
	...
   1ae84:	fbc06981 f380eb60 f380f380 f380f380     .i..`...........
   1ae94:	f380f380 f380f380 f380f380 1860eb61     ............a.`.
	...
   1aeac:	db210820 f380fba0 f380f380 f380f380      .!.............
   1aebc:	f380f380 f360f380 eb60f360 4900fba0     ......`.`.`....I
	...
   1aef4:	eb612081 f360f360 f360f360 f360f360     . a.`.`.`.`.`.`.
   1af04:	f360f360 f360f360 eb60f360 6181fba0     `.`.`.`.`.`....a
	...
   1af1c:	fba06161 f360eb60 f360f360 f360f360     aa..`.`.`.`.`.`.
   1af2c:	f360f360 f360f360 f360f360 30a1fb61     `.`.`.`.`.`.a..0
	...
   1af8c:	fb60d2c0 f360eb40 f340f360 f360f360     ..`.@.`.`.@.`.`.
   1af9c:	f340f340 f340f340 fb80eb40 000091e0     @.@.@.@.@.......
	...
   1afd0:	18600000 f340eb20 f340eb40 f340f340     ..`. .@.@.@.@.@.
   1afe0:	f340f340 f340f340 f340f340 fb60eb20     @.@.@.@.@.@. .`.
   1aff0:	00006961 00000000 00000000 00000000     ai..............
	...
   1b0bc:	fba04100 f360f360 f360f360 f360f360     .A..`.`.`.`.`.`.
   1b0cc:	f360f360 f360f360 f360f360 38c1fb81     `.`.`.`.`.`....8
	...
   1b104:	fba06981 f360eb40 f360f360 f360f360     .i..@.`.`.`.`.`.
   1b114:	f360f360 f360f360 f360f360 1860eb41     `.`.`.`.`.`.A.`.
	...
   1b12c:	dae10820 f360fb60 f360f360 f360f360      ...`.`.`.`.`.`.
   1b13c:	f360f360 f360f360 eb40f340 4901fb80     `.`.`.`.@.@....I
	...
   1b174:	eb412080 f360f360 f340f340 f340f340     . A.`.`.@.@.@.@.
   1b184:	f340f340 f340f340 eb40f340 6161fb80     @.@.@.@.@.@...aa
	...
   1b19c:	fb806161 f340eb20 f340f340 f340f340     aa.. .@.@.@.@.@.
   1b1ac:	f340f340 f340f340 f340f340 3081fb40     @.@.@.@.@.@.@..0
	...
   1b20c:	fb40caa0 f320eb20 eb20f320 f320f320     ..@. . . . . . .
   1b21c:	eb20f320 f320eb20 fb60eb00 000091e0      . . . ...`.....
	...
   1b250:	18600000 f300eb00 f320eb00 f300f300     ..`....... .....
   1b260:	f300f300 f300f300 f300f300 fb40eb00     ..............@.
   1b270:	00006961 00000000 00000000 00000000     ai..............
	...
   1b33c:	fb604100 f340f340 f340f340 f340f340     .A`.@.@.@.@.@.@.
   1b34c:	f340f340 f340f340 eb40f340 38c1fb60     @.@.@.@.@.@.`..8
	...
   1b384:	fb806961 f340eb20 f340f340 f340f340     ai.. .@.@.@.@.@.
   1b394:	f340f340 f340f340 f340f340 1860eb21     @.@.@.@.@.@.!.`.
	...
   1b3ac:	d2c10800 f320fb40 f340f340 f340f340     ....@. .@.@.@.@.
   1b3bc:	f320f340 f320f320 eb20f321 50e1fb60     @. . . .!. .`..P
	...
   1b3f4:	eb212080 eb20f320 f320f320 f320f320     . !. . . . . . .
   1b404:	f320f320 f320f320 eb00f320 6161fb60      . . . . ...`.aa
	...
   1b41c:	fb406141 f300eb00 f300f300 f300f300     Aa@.............
   1b42c:	f300f300 f300f300 f300f300 3081fb20     ............ ..0
	...
   1b48c:	fb20ca80 f300eae0 f300f300 f300f300     .. .............
   1b49c:	f300f300 f300f300 fb20eae0 000091c1     .......... .....
	...
   1b4d0:	20400000 f2e0eac0 f300f2e0 f2e0f2e0     ..@ ............
   1b4e0:	f2e0f2e0 f2e0f2e0 f2e0f2e0 fb20eae0     .............. .
   1b4f0:	00006161 00000000 00000000 00000000     aa..............
	...
   1b5bc:	fb4040e0 f320eb20 f320f320 f320f320     .@@. . . . . . .
   1b5cc:	f320f320 f320f320 eb20f320 38c1fb41      . . . . . .A..8
	...
   1b604:	fb406961 f300eb00 f300f300 f300f300     ai@.............
   1b614:	f300f320 f300f300 f320f300 1860eb01      ......... ...`.
	...
   1b62c:	d2a10800 eb00fb20 f300f300 f300f300     .... ...........
   1b63c:	f300f300 f300f300 eb00f300 50e1fb20     ............ ..P
	...
   1b674:	eb002060 f300f300 f300f300 f300f300     ` ..............
   1b684:	f300f300 f300f300 eae0f300 6141fb20     ............ .Aa
	...
   1b69c:	fb206141 f2e0eae0 f2e0f2e0 f2e0f2e0     Aa .............
   1b6ac:	f2e0f2e0 f2e0f2e0 f2e0f2e0 3081f2e0     ...............0
	...
   1b70c:	f2e0ca60 f2c0eac0 f2c0f2c0 f2e0f2e0     `...............
   1b71c:	f2e0f2e0 f2c0f2e0 fb00eac0 00009181     ................
	...
   1b750:	18400000 f2c0eaa1 eac0eac0 f2c0eac0     ..@.............
   1b760:	f2c0f2c0 f2c0f2c0 f2c0f2c0 fb00eac0     ................
   1b770:	00006941 00000000 00000000 00000000     Ai..............
	...
   1b83c:	fb2040e0 f300eae0 f300f300 f300f300     .@ .............
   1b84c:	f300f300 f300f300 f300f300 38a1fb00     ...............8
	...
   1b884:	fb206941 f2e0eae0 f2e0f2e0 f2e0f2e0     Ai .............
   1b894:	f2e0f2e0 f2e0f2e0 f2e0f2e0 1840e2c0     ..............@.
	...
   1b8ac:	d2a10800 eae0f300 f2e0f2e0 f2e0f2e0     ................
   1b8bc:	f2e0f2e0 f2e0f2e0 eae0f2e0 50e1fb00     ...............P
	...
   1b8f4:	eae02061 eae0f2e0 eae0f2e0 eae0eae0     a ..............
   1b904:	eae0eae0 f2c0f2c0 eac0f2c0 6121fb00     ..............!a
	...
   1b91c:	fb006141 f2c0eac0 f2c0f2c0 f2c0f2c0     Aa..............
   1b92c:	f2c0f2c0 f2c0f2c0 f2c0eac0 3081f2c0     ...............0
	...
   1b98c:	fac0ca40 f2a0eaa0 f2a0f2a0 eaa0eaa0     @...............
   1b99c:	eaa0eaa0 f2a0eaa0 fac0eaa0 00009161     ............a...
	...
   1b9d0:	18400000 eaa0ea80 f2a0eaa0 f2a0eaa0     ..@.............
   1b9e0:	f2a0f2a0 f2a0f2a0 eaa0eaa0 fac0ea80     ................
   1b9f0:	00006921 00000000 00000000 00000000     !i..............
	...
   1babc:	fb0048e0 f2e0eae0 f2e0eae0 f2c0f2e0     .H..............
   1bacc:	f2c0f2c0 f2e0f2c0 eac0f2e0 38a1fae0     ...............8
	...
   1bb04:	fae06941 eac0eac0 eac0eac0 f2c0eac0     Ai..............
   1bb14:	f2c0f2c0 eac0f2c0 f2c0f2a0 1840eaa0     ..............@.
	...
   1bb2c:	d2810800 eac0f2c0 f2a0f2c0 f2c0f2c0     ................
   1bb3c:	f2c0f2c0 f2c0f2c0 eaa0f2c0 50c1fae0     ...............P
	...
   1bb74:	eac02061 eaa0f2a0 eaa0eaa0 eaa0eaa0     a ..............
   1bb84:	eaa0eaa0 f2a0f2a0 eaa0f2a0 6121fac0     ..............!a
	...
   1bb9c:	fae06121 f2a0eaa0 f2a0f2a0 f2a0f2a0     !a..............
   1bbac:	f2a0f2a0 f2a0f2a0 f2a0eaa0 3081f2a0     ...............0
	...
   1bc0c:	f2a0d221 ea80ea80 ea80ea80 f280f280     !...............
   1bc1c:	f280f280 f280f280 faa0ea80 00009181     ................
	...
   1bc50:	18400000 f280ea60 f260ea60 f260f260     ..@.`...`.`.`.`.
   1bc60:	ea60f260 ea60ea60 ea60ea60 fa80ea60     `.`.`.`.`.`.`...
   1bc70:	00006921 00000000 00000000 00000000     !i..............
	...
   1bd3c:	fac048c0 f2a1eaa0 eaa1eaa1 f2a0f2a0     .H..............
   1bd4c:	f2a0f2a0 f2a0f2a0 eaa0eaa0 38a1f2c0     ...............8
	...
   1bd84:	fae06921 eaa0eaa0 eaa0eaa0 f2a0eaa0     !i..............
   1bd94:	f2a0f2a0 f2a0f2a0 f280f2a0 1840ea80     ..............@.
	...
   1bdac:	d2410800 ea80f2a1 f280f280 f280f280     ..A.............
   1bdbc:	f280f280 f280f280 ea80f280 50c1faa0     ...............P
	...
   1bdf4:	ea802060 ea80f280 f280f280 ea80f280     ` ..............
   1be04:	ea80ea80 ea80ea80 ea80ea80 6121faa0     ..............!a
	...
   1be1c:	faa06101 f260ea60 f280f260 ea80ea80     .a..`.`.`.......
   1be2c:	f260ea80 f260f260 f260ea60 3080f280     ..`.`.`.`.`....0
	...
   1be8c:	f260d201 ea40ea40 ea60ea60 ea60ea60     ..`.@.@.`.`.`.`.
   1be9c:	ea60ea60 ea40ea60 fa80ea40 00009160     `.`.`.@.@...`...
	...
   1bed0:	18400000 f240ea40 f240f240 f240f240     ..@.@.@.@.@.@.@.
   1bee0:	ea40f240 ea40ea40 f240f240 fa60ea20     @.@.@.@.@.@. .`.
   1bef0:	00006901 00000000 00000000 00000000     .i..............
	...
   1bfbc:	faa040c0 ea80ea80 ea80ea80 f280f280     .@..............
   1bfcc:	f280f280 f280f280 ea80f280 3881f2a0     ...............8
	...
   1c004:	faa06921 ea80ea60 f280ea80 f260ea80     !i..`.........`.
   1c014:	f260f260 f260f260 f280f260 1840e261     `.`.`.`.`...a.@.
	...
   1c02c:	d2210800 ea60f280 ea60ea60 ea60ea60     ..!...`.`.`.`.`.
   1c03c:	ea60ea60 f260f260 ea60f260 50a1fa81     `.`.`.`.`.`....P
	...
   1c074:	ea412060 ea40f240 ea40ea40 ea40f240     ` A.@.@.@.@.@.@.
   1c084:	ea60ea60 ea40ea40 ea40ea40 6101fa80     `.`.@.@.@.@....a
	...
   1c09c:	fa606101 ea40ea40 ea40ea40 ea40ea40     .a`.@.@.@.@.@.@.
   1c0ac:	ea40ea40 ea40ea40 ea40ea40 3061f240     @.@.@.@.@.@.@.a0
	...
   1c10c:	f240d1e1 ea20ea20 ea20ea20 ea20ea20     ..@. . . . . . .
   1c11c:	ea20ea20 ea20ea20 fa40ea20 00009141      . . . . .@.A...
	...
   1c150:	18400000 f200e200 ea00ea00 ea00ea00     ..@.............
   1c160:	ea20ea00 ea20ea20 ea00ea00 fa40ea00     .. . . .......@.
   1c170:	00006901 00000000 00000000 00000000     .i..............
	...
   1c23c:	fa8040a0 ea60ea60 ea60ea60 ea60ea60     .@..`.`.`.`.`.`.
   1c24c:	f240ea60 ea60ea60 ea60ea60 3881f261     `.@.`.`.`.`.a..8
	...
   1c284:	fa806921 ea40ea40 ea40ea40 f240ea40     !i..@.@.@.@.@.@.
   1c294:	f240f240 ea40ea40 f240f240 1840e221     @.@.@.@.@.@.!.@.
	...
   1c2ac:	d2010800 ea40f240 f240f240 ea40f240     ....@.@.@.@.@.@.
   1c2bc:	f240ea40 ea40f240 ea20ea40 50a1fa61     @.@.@.@.@. .a..P
	...
   1c2f4:	ea212060 ea20f220 f220ea20 f220f220     ` !. . . . . . .
   1c304:	ea20ea20 f220f220 ea00f220 60e1fa40      . . . . ...@..`
	...
   1c31c:	fa4060e1 ea20ea00 ea20ea20 ea20ea20     .`@... . . . . .
   1c32c:	ea20ea20 ea20ea20 ea00ea20 3061f200      . . . . .....a0
	...
   1c38c:	f200c9a1 ea00ea00 ea00ea00 ea00ea00     ................
   1c39c:	ea00ea00 ea00ea00 fa20e9e0 00009121     .......... .!...
	...
   1c3d0:	18400000 f1e0e1e0 e9e0e9e0 e9e0e9e0     ..@.............
   1c3e0:	e9e0e9e0 e9e0e9e0 e9e0e9e0 fa00e9e0     ................
   1c3f0:	000068e1 00000000 00000000 00000000     .h..............
	...
   1c4bc:	fa6040a0 ea20ea20 ea40ea40 ea20ea20     .@`. . .@.@. . .
   1c4cc:	f220ea20 ea20ea40 ea20ea20 3861f221      . .@. . . .!.a8
	...
   1c504:	fa406901 ea00ea00 ea20ea20 ea20ea20     .i@..... . . . .
   1c514:	f200f200 ea20ea20 f200ea00 1840e200     .... . .......@.
	...
   1c52c:	d1c10800 ea00f220 ea00ea00 ea00ea00     .... ...........
   1c53c:	ea00ea00 ea00ea00 ea00ea00 50a1f220     ............ ..P
	...
   1c574:	e9e12040 ea00f1e0 ea00ea00 ea00ea00     @ ..............
   1c584:	ea00ea00 ea00ea00 e9e0e9e0 60e1fa00     ...............`
	...
   1c59c:	fa0060e1 ea00e9e0 e9e0ea00 e9e0e9e0     .`..............
   1c5ac:	e9e0e9e0 e9e0e9e0 e9e0e9e0 3061f201     ..............a0
	...
   1c60c:	f1e0c9a1 e9c0e9c0 e9c0e9c0 e9c0e9c0     ................
   1c61c:	e9c0e9c0 e9c0e9c0 f9e0e9c0 00008901     ................
	...
   1c650:	20400000 f1c0e1c0 e9a0e9a0 e9a0e9a0     ..@ ............
   1c660:	e9a0e9a0 e9a0e9a0 e9a0e9a0 f9c0e9a0     ................
   1c670:	000068c1 00000000 00000000 00000000     .h..............
	...
   1c73c:	fa2040a0 ea00ea00 ea00ea00 ea00ea00     .@ .............
   1c74c:	ea00ea00 ea00ea00 ea00ea00 3861f200     ..............a8
	...
   1c784:	fa0068e1 ea00e9e0 e9e0e9e0 e9e0e9e0     .h..............
   1c794:	e9e0e9e0 e9e0e9e0 f1e0e9e0 1840e1e0     ..............@.
	...
   1c7ac:	d1a00800 e9e0f9e0 e9e0e9e0 e9e0e9e0     ................
   1c7bc:	e9e0f1e0 e9e0e9e0 e9e0e9e0 4881fa00     ...............H
	...
   1c7f4:	e9c12040 e9c0f1c0 e9c0e9c0 e9c0e9c0     @ ..............
   1c804:	e9c0e9c0 e9c0e9c0 e9a0e9c0 60c1f9e0     ...............`
	...
   1c81c:	f9e060c1 e9c0e9a0 e9c0e9c0 e9c0e9c0     .`..............
   1c82c:	e9c0e9c0 e9a0e9c0 e9a0e9a0 3061f1c1     ..............a0
	...
   1c88c:	f1a0c961 e980e980 e980e980 e980e980     a...............
   1c89c:	e980e980 e980e980 f9a0e980 000090e1     ................
	...
   1c8d0:	18200000 f180e180 e980e980 e980e980     .. .............
   1c8e0:	e980e980 e980e980 e960e960 f980e960     ........`.`.`...
   1c8f0:	000068a1 00000000 00000000 00000000     .h..............
	...
   1c9bc:	f9e04880 e9c0e9c0 f1c0e9c0 e9c0e9e0     .H..............
   1c9cc:	e9c0e9c0 e9c0e9c0 e9c0e9c0 3861f1e0     ..............a8
	...
   1ca04:	f9c068c1 e9c0e9c0 e9c0e9a0 f1c0e9a0     .h..............
   1ca14:	f1c0f1c0 e9a0e9a0 f1c0e9a0 1840e9a0     ..............@.
	...
   1ca2c:	d1800800 e9a0f1c0 e9a0e9a0 e9a0e9a0     ................
   1ca3c:	e9a0e9a0 e9a0e9a0 e9a0e9a0 b941f1c0     ..............A.
   1ca4c:	a1009901 a100a100 a920a100 00006880     .......... ..h..
	...
   1ca64:	18200000 30403860 30603040 30403060     .. .`8@0@0`0`0@0
   1ca74:	e9815081 e9a0e9a0 e9a0e9a0 e9a0e9a0     .P..............
   1ca84:	e9a0e9a0 e980e980 e980e980 60a1f9a0     ...............`
	...
   1ca9c:	f9a060c1 e980e980 e980e980 e980e980     .`..............
   1caac:	e980e980 e980e980 e980e980 a101f180     ................
   1cabc:	90e188e1 90e190e1 90e190e1 90e190e1     ................
   1cacc:	90e190e1 90e190e1 90e190e1 90e190e1     ................
   1cadc:	90e190e1 90e190e1 000078a1 00000000     .........x......
	...
   1cb0c:	f160c920 e960e960 e960e960 e960e960      .`.`.`.`.`.`.`.
   1cb1c:	e960e960 e960e960 f980e960 000090e1     `.`.`.`.`.......
	...
   1cb44:	60810000 68a168a1 68a168a1 78a16081     ...`.h.h.h.h.`.x
   1cb54:	f140e941 e940e940 e940e940 e940e940     A.@.@.@.@.@.@.@.
   1cb64:	e940e940 e940e940 f940e940 00006881     @.@.@.@.@.@..h..
	...
   1cc3c:	f9c04080 e9a0e9a0 f1a0e9a0 e9a0e9a0     .@..............
   1cc4c:	e9a0e9a0 e9a0e9a0 e9a0e9a0 3861f1a0     ..............a8
	...
   1cc84:	f9a068c1 e980e980 e980e980 e980e980     .h..............
   1cc94:	e980e980 e980e980 f180e980 1820e180     .............. .
	...
   1ccac:	d1600800 e980f180 e980e980 e980e980     ..`.............
   1ccbc:	e980e980 e980e980 e980e980 f981e980     ................
   1cccc:	f980f981 f980f980 f9a0f980 0000a0c1     ................
	...
   1cce4:	60a10000 f140f980 e960f160 f160f180     ...`..@.`.`...`.
   1ccf4:	e940f140 e960e960 e960e960 e960e960     @.@.`.`.`.`.`.`.
   1cd04:	e960e960 e960e960 e960e960 60a1f980     `.`.`.`.`.`....`
	...
   1cd1c:	f96060a1 e960e940 e960e960 e960e960     .``.@.`.`.`.`.`.
   1cd2c:	e940e940 e940e940 e940e940 f941e940     @.@.@.@.@.@.@.A.
   1cd3c:	f960f940 f960f960 f960f960 f960f960     @.`.`.`.`.`.`.`.
   1cd4c:	f960f960 f960f960 f960f960 f960f960     `.`.`.`.`.`.`.`.
   1cd5c:	f941f960 f940f941 0000d901 00000000     `.A.A.@.........
	...
   1cd8c:	f140d101 e920e920 e920e920 e920e920     ..@. . . . . . .
   1cd9c:	e920e920 e920e920 f940e920 000088c1      . . . . .@.....
	...
   1cdc4:	e0e10800 f920f920 f920f920 f900f920     .... . . . . ...
   1cdd4:	e920e900 e900e900 e900e900 e900e900     .. .............
   1cde4:	e900e900 e900e900 f900e900 00006881     .............h..
	...
   1cebc:	f1a04060 e980e980 e980e980 e980e980     `@..............
   1cecc:	e980e980 e980e980 e960e960 3841f181     ........`.`...A8
	...
   1cf04:	f96068a1 e960e940 e960e960 e960e960     .h`.@.`.`.`.`.`.
   1cf14:	e960e960 e960e960 f160e960 1820e140     `.`.`.`.`.`.@. .
	...
   1cf2c:	d1200800 e940f140 e940e940 e940e940     .. .@.@.@.@.@.@.
   1cf3c:	e940e940 e940e940 e940e940 e920e940     @.@.@.@.@.@.@. .
   1cf4c:	e940e920 e940e940 f940e120 000098a0      .@.@.@. .@.....
	...
   1cf64:	60810000 e920f940 e920e920 e920e920     ...`@. . . . . .
   1cf74:	e920e920 e920e920 e920e920 e920e920      . . . . . . . .
   1cf84:	e920e920 e920e920 e920e920 6081f940      . . . . . .@..`
	...
   1cf9c:	f9206080 e920e920 e920e920 e920e920     .` . . . . . . .
   1cfac:	e920e920 e920e920 e920e920 e900e900      . . . . . .....
   1cfbc:	e900e900 e900e900 e900e900 e900e900     ................
   1cfcc:	e900e900 e900e900 e900e900 e900e900     ................
   1cfdc:	e8e0e900 f0e0e100 0000c8c0 00000000     ................
	...
   1d00c:	f0e0c8c1 e8e0e8e0 e8e0e8e0 e8e0e8e0     ................
   1d01c:	e8e0e8e0 e8e0e8e0 f900e8e0 000088a0     ................
	...
   1d044:	d0a10800 e8c0f0c0 e8c0e8c0 e8c0e8c0     ................
   1d054:	e8c0e8c0 e8c0e8c0 e8c0e8c0 e8c0e8c0     ................
   1d064:	e8c0e8c0 e8c0e8c0 f8a0e8a0 00006861     ............ah..
	...
   1d13c:	f1604860 e920e940 e940e940 e940e940     `H`.@. .@.@.@.@.
   1d14c:	e940e940 e940e940 e920e940 3840f140     @.@.@.@.@. .@.@8
	...
   1d184:	f9206880 e920e900 e920e920 e920e920     .h ... . . . . .
   1d194:	e920e920 e920e920 e920e920 1820e100      . . . . . ... .
	...
   1d1ac:	d1000800 e900e900 e900e900 e900e900     ................
   1d1bc:	e900e900 e900e900 e900e900 e900e900     ................
   1d1cc:	e900e900 e900e900 f900e900 00009880     ................
	...
   1d1e4:	60810000 e8e0f900 e8e0e8e0 e8e0e8e0     ...`............
   1d1f4:	e900e8e0 e8e0e8e0 e8e0e8e0 e8e0e8e0     ................
   1d204:	e8e0e8e0 e8e0e8e0 e0e0e8e0 6060f900     ..............``
	...
   1d21c:	f8e06060 e8e0e8e0 e8e0e8e0 e8e0e8c0     ``..............
   1d22c:	e8e0e8e0 e8e0e8e0 e8e0e8e0 e8e0e8e0     ................
   1d23c:	e8e0e8e0 e8e0e8e0 e8c0e8c0 e8c0e8c0     ................
   1d24c:	e8c0e8c0 e8c0e8c0 e8c0e8c0 e8c0e8c0     ................
   1d25c:	e8c0e8c0 f0c0e8c0 0000c8a0 00000000     ................
	...
   1d28c:	f0a0c880 e8a0e8a0 e8a0e8a0 e8a0e8a0     ................
   1d29c:	e8a0e8a0 e880e8a0 f8a0e880 00008860     ............`...
	...
   1d2c4:	d8600800 e880f080 e880e880 e880e880     ..`.............
   1d2d4:	e880e880 e880e880 e860e880 e880e860     ..........`.`...
   1d2e4:	e880e880 e860e860 f860e860 00006841     ....`.`.`.`.Ah..
	...
   1d3bc:	f1204040 e900e8e0 e900e900 e900e900     @@ .............
   1d3cc:	e900e900 e900e900 e900e900 3840f100     ..............@8
	...
   1d404:	f8e06860 e8e0e8e0 e8e0e8e0 e8e0e8e0     `h..............
   1d414:	e8e0e8e0 e8e0e8e0 e8e0e8e0 1820e0e0     .............. .
	...
   1d42c:	d0c00800 e8c0e8e0 e8c0e8c0 e8e0e8c0     ................
   1d43c:	e8c0e8c0 e8c0e8c0 e8c0e8c0 e8c0e8c0     ................
   1d44c:	e8c0e8c0 e8c0e8c0 f8c0e8c0 00009080     ................
	...
   1d464:	60610000 e8a0f8c0 e8a0e8a0 e8a0e8a0     ..a`............
   1d474:	e8a0e8a0 e8a0e8a0 e8a0e8a0 e8a0e8a0     ................
   1d484:	e8a0e8a0 e8a0e8a0 e8a0e8a0 6060f8c0     ..............``
	...
   1d49c:	f8a06040 e880e0a0 e8a0e880 e880e880     @`..............
   1d4ac:	e880e880 e880e880 e880e880 e880e880     ................
   1d4bc:	e880e880 e880e880 e880e880 e880e880     ................
   1d4cc:	e880e880 e880e880 e880e880 e880e880     ................
   1d4dc:	e880e880 f060e880 0000c860 00000000     ......`.`.......
	...
   1d50c:	f040c860 e860e860 e860e860 e840e840     `.@.`.`.`.`.@.@.
   1d51c:	e840e840 e840e840 f860e040 00008840     @.@.@.@.@.`.@...
	...
   1d544:	d0200800 e820f020 e820e820 e820e820     .. . . . . . . .
   1d554:	e820e820 e820e820 e820e820 e820e820      . . . . . . . .
   1d564:	e820e820 e820e820 f820e000 00006020      . . . ... . `..
	...
   1d63c:	f0e04040 e8c0e8c0 e8c0e8c0 e8c0e8c0     @@..............
   1d64c:	e8c0e8c0 e8c0e8c0 e8a0e8c0 3820f0a1     .............. 8
	...
   1d684:	f8a06860 e8a0e8a0 e8a0e8a0 e8a0e8a0     `h..............
   1d694:	e8a0e8a0 e8a0e8a0 e880e8a0 1820e0a0     .............. .
	...
   1d6ac:	d0800800 e880f080 e880e880 e880e880     ................
   1d6bc:	e880e880 e880e880 e880e860 e880e880     ........`.......
   1d6cc:	e860e880 e860e860 f880e060 00009840     ..`.`.`.`...@...
	...
   1d6e4:	60400000 e860f860 e860e860 e860e860     ..@``.`.`.`.`.`.
   1d6f4:	e860e860 e860e860 e860e860 e860e840     `.`.`.`.`.`.@.`.
   1d704:	e860e860 e840e840 e040e840 6020f860     `.`.@.@.@.@.`. `
	...
   1d71c:	f8606020 e840e040 e840e840 e840e840      ``.@.@.@.@.@.@.
   1d72c:	e840e840 e840e840 e840e840 e820e820     @.@.@.@.@.@. . .
   1d73c:	e820e840 e820e820 e820e840 e820e820     @. . . .@. . . .
   1d74c:	e820e820 e820e820 e820e820 e820e820      . . . . . . . .
   1d75c:	e820e820 f000e020 0000c820 00000000      . . ... .......
	...
   1d78c:	f000c820 e800e800 e800e800 e800e800      ...............
   1d79c:	e800e800 e800e800 f800e000 00008800     ................
	...
   1d7c4:	d0000800 e800e800 e800e800 e800e800     ................
   1d7d4:	e000e000 e800e800 e800e800 e000e000     ................
   1d7e4:	e000e000 e000e000 f800e000 00006000     .............`..
	...
   1d8bc:	f0804020 e880e880 e880e880 e880e880      @..............
   1d8cc:	e880e880 e880e880 e860e880 3820f080     ..........`... 8
	...
   1d904:	f8406840 e840e040 e840e840 e840e840     @h@.@.@.@.@.@.@.
   1d914:	e840e840 e840e840 e840e840 1800e040     @.@.@.@.@.@.@...
	...
   1d92c:	c8400800 e820f020 e820e820 e820e820     ..@. . . . . . .
   1d93c:	e820e820 e820e820 e820e820 e820e820      . . . . . . . .
   1d94c:	e820e820 e820e820 f820e020 00009020      . . . . . . ...
	...
   1d964:	58000000 e000f800 e800e800 e800e800     ...X............
   1d974:	e800e800 e800e800 e800e800 e800e800     ................
   1d984:	f000f000 f000f000 f000f000 6820f800     .............. h
	...
   1d99c:	f8006020 e800e000 e800e800 e800e800      `..............
   1d9ac:	e800e800 e800e800 e800e800 f000e800     ................
   1d9bc:	f000f000 f000f000 f000f000 f000f000     ................
   1d9cc:	f000f000 f000f000 f000f000 f000f000     ................
   1d9dc:	f000f000 f800e800 0000c800 00000000     ................
	...
   1da0c:	f000c000 e800e000 e800e800 e800e800     ................
   1da1c:	e800e800 e800e800 f800e000 00008000     ................
	...
   1da44:	d0000800 e800e800 e800e800 e800e800     ................
   1da54:	f000f000 f000f000 f000f000 f000f000     ................
   1da64:	f000f000 f000f000 f800f000 00006800     .............h..
	...
   1db3c:	f0404000 e820e820 e820e820 e820e820     .@@. . . . . . .
   1db4c:	e820e820 e820e820 e820e820 3820f020      . . . . . . . 8
	...
   1db84:	f8006820 e800e000 e800e800 e800e800      h..............
   1db94:	e800e800 e800e800 e800e800 1800e000     ................
	...
   1dbac:	c0210800 d800e000 e000e000 e000e000     ..!.............
   1dbbc:	e800e000 e800e800 e800e800 e800e800     ................
   1dbcc:	e800e800 e800e800 f000e000 2800a000     ...............(
   1dbdc:	38003800 38003800 80002800 e000f000     .8.8.8.8.(......
   1dbec:	e800e800 e800e800 e800e800 e800e800     ................
   1dbfc:	e800e800 e800e800 b000c801 b820b820     ............ . .
   1dc0c:	b000b800 4800c000 00000000 00000000     .......H........
   1dc1c:	f8006000 e800e000 e800e800 e800e800     .`..............
   1dc2c:	e800e800 e800e800 e800e800 c800e800     ................
   1dc3c:	c000c000 c000c000 c000c000 c000c000     ................
   1dc4c:	c000c000 c000c000 c000c000 c000c000     ................
   1dc5c:	c000c000 c800c000 0000a800 00000000     ................
	...
   1dc8c:	f000c000 e800e000 e800e800 e800e800     ................
   1dc9c:	e800e800 e800e800 f000e000 3800a000     ...............8
   1dcac:	48004800 48004800 48004800 48004800     .H.H.H.H.H.H.H.H
   1dcbc:	48004800 40004800 d0004800 e000e800     .H.H.H.@.H......
   1dccc:	e800e000 e000e800 a800a800 a800a800     ................
   1dcdc:	a800a800 a800a800 a800a800 a800a800     ................
   1dcec:	b000a000 00004800 00000000 00000000     .....H..........
	...
   1ddbc:	f0004000 e800e000 e800e800 e800e800     .@..............
   1ddcc:	e800e800 e800e800 e800e800 3800f000     ...............8
	...
   1de04:	f0006800 e800e000 e800e800 e800e800     .h..............
   1de14:	e800e800 e800e800 e800e000 1800e000     ................
	...
   1de2c:	18000000 18001800 18001800 18001800     ................
   1de3c:	f000c000 e800e000 e800e800 e800e800     ................
   1de4c:	e800e800 e800e800 e800e800 f000e800     ................
   1de5c:	f000f000 e800f000 e800e800 e800e800     ................
   1de6c:	e800e800 e800e000 e800e800 e800e800     ................
   1de7c:	e000e800 f000e000 00005000 00000000     .........P......
	...
   1de9c:	f8006000 e800e000 e800e800 e800e800     .`..............
   1deac:	e800e800 e800e800 e000e800 3000e800     ...............0
	...
   1df0c:	e800c800 e800e000 e800e800 e800e800     ................
   1df1c:	e800e800 e800e800 e000e800 f000e800     ................
   1df2c:	f000f000 f000f000 f000f000 f000f000     ................
   1df3c:	f000f000 f000f000 e800f000 e800e800     ................
   1df4c:	e000e800 d000e800 00000800 00000000     ................
	...
   1e03c:	f0004000 e800e000 e800e800 e800e800     .@..............
   1e04c:	e000e800 e800e000 e800e800 3800f000     ...............8
	...
   1e084:	f0006801 e800e000 e800e800 e800e800     .h..............
   1e094:	e800e800 e000e000 e800e000 1800e000     ................
	...
   1e0bc:	f000b800 e800e000 e800e800 e800e800     ................
   1e0cc:	e000e800 e800e000 e800e800 e000e800     ................
   1e0dc:	e000e000 e000e000 e000e000 e800e800     ................
   1e0ec:	e800e800 e800e800 e800e800 e800e800     ................
   1e0fc:	e000e800 f000e000 00005000 00000000     .........P......
	...
   1e11c:	f0006000 e800e000 e000e800 e800e800     .`..............
   1e12c:	e800e800 e800e800 e000e000 3000e800     ...............0
	...
   1e18c:	e800c800 e800e000 e800e800 e800e800     ................
   1e19c:	e800e800 e800e800 e800e800 e000e800     ................
   1e1ac:	e000e000 e000e000 e000e000 e000e000     ................
   1e1bc:	e000e000 e000e000 e800e000 e800e800     ................
   1e1cc:	e000e800 d000e800 00001000 00000000     ................
	...
   1e2bc:	f0004000 e800e000 e800e800 e800e800     .@..............
   1e2cc:	e800e800 e800e800 e000e800 3800e800     ...............8
	...
   1e304:	f0006800 e800e000 e800e800 e800e800     .h..............
   1e314:	e800e800 e000e000 e800e000 1800e000     ................
	...
   1e33c:	f000c000 e800e000 e800e800 e800e800     ................
   1e34c:	e800e800 e800e800 e800e800 e800e800     ................
   1e35c:	e800e800 e800e800 e800e800 e800e800     ................
   1e36c:	e800e800 e800e800 e800e800 e800e800     ................
   1e37c:	e000e800 f000e000 00005000 00000000     .........P......
	...
   1e39c:	f0006000 e800e000 e800e800 e800e800     .`..............
   1e3ac:	e000e800 e000e000 e000e000 3000e800     ...............0
	...
   1e40c:	e800c800 e800e000 e800e800 e800e800     ................
   1e41c:	e800e800 e800e800 e800e800 e800e800     ................
   1e42c:	e800e800 e800e800 e800e800 e000e000     ................
   1e43c:	e800e000 e800e800 e800e800 e800e800     ................
   1e44c:	e000e800 d000e800 00001000 00000000     ................
	...
   1e53c:	f0004000 e800e000 e800e800 e800e800     .@..............
   1e54c:	e800e800 e800e800 e000e800 3800e800     ...............8
	...
   1e584:	f0006800 e800e000 e800e800 e800e800     .h..............
   1e594:	e800e800 e800e800 e800e000 1800e000     ................
	...
   1e5bc:	f000c000 e800e000 e800e800 e800e800     ................
   1e5cc:	e800e800 e800e800 e800e800 e800e800     ................
   1e5dc:	e800e800 e800e800 e800e800 e800e800     ................
   1e5ec:	e800e800 e800e800 e800e800 e800e800     ................
   1e5fc:	e800e800 f000e000 00005000 00000000     .........P......
	...
   1e61c:	f0006000 e800e000 e800e800 e800e800     .`..............
   1e62c:	e800e800 e800e800 e000e800 3000e800     ...............0
	...
   1e68c:	e800c800 e800e000 e800e800 e800e800     ................
   1e69c:	e800e800 e800e800 e800e800 e800e800     ................
   1e6ac:	e800e800 e800e800 e800e800 e800e800     ................
   1e6bc:	e800e800 e800e800 e800e800 e800e800     ................
   1e6cc:	e000e800 d000e800 00001000 00000000     ................
	...
   1e7bc:	f0004000 e800e000 e800e800 e800e800     .@..............
   1e7cc:	e800e800 e000e800 e000e000 3800e800     ...............8
	...
   1e804:	f0006800 e800e000 e800e800 e000e800     .h..............
   1e814:	e000e000 e000e000 e800e000 1800e000     ................
	...
   1e83c:	f000c000 e800e000 e800e800 e800e800     ................
   1e84c:	e000e800 e800e000 e800e800 e800e800     ................
   1e85c:	e800e800 e800e800 e800e800 e800e800     ................
   1e86c:	e800e800 e800e800 e000e800 e000e000     ................
   1e87c:	e000e000 f000e000 00005000 00000000     .........P......
	...
   1e89c:	f0006000 e000e000 e000e000 e000e000     .`..............
   1e8ac:	e000e000 e000e000 e000e000 3000e800     ...............0
	...
   1e90c:	e800c800 e800e000 e800e800 e800e800     ................
   1e91c:	e800e800 e800e800 e800e800 e800e800     ................
   1e92c:	e800e800 e000e800 e800e000 e000e000     ................
   1e93c:	e800e000 e800e800 e800e800 e800e800     ................
   1e94c:	e000e800 d001e800 00001000 00000000     ................
	...
   1ea3c:	f0004000 e800e000 e800e800 e800e800     .@..............
   1ea4c:	e800e800 e800e800 e000e800 3800e800     ...............8
	...
   1ea84:	f0006800 e800e000 e800e800 e800e800     .h..............
   1ea94:	e800e800 e800e800 e800e000 1800e000     ................
	...
   1eabc:	e800b800 e000e000 e000e000 e000e000     ................
   1eacc:	e800e800 e800e800 e800e800 e800e800     ................
   1eadc:	e800e800 e800e800 e800e800 e800e800     ................
   1eaec:	e800e800 e800e800 e800e800 e800e800     ................
   1eafc:	e800e800 f800e800 00005000 00000000     .........P......
	...
   1eb1c:	f0006000 e800e000 e800e800 e800e800     .`..............
   1eb2c:	e800e800 e800e800 e000e800 3000e800     ...............0
	...
   1eb8c:	e800c800 e800e000 e800e800 e800e800     ................
   1eb9c:	e800e800 e800e800 e800e800 e800e800     ................
   1ebac:	e800e800 e800e800 e000e000 e800e800     ................
   1ebbc:	e800e800 e800e800 e800e800 e800e800     ................
   1ebcc:	e000e800 d000e800 00000800 00000000     ................
	...
   1ecbc:	f0004000 e800e000 e800e800 e800e800     .@..............
   1eccc:	e800e800 e800e800 e000e000 3800e800     ...............8
	...
   1ed04:	f0006800 e800e000 e800e800 e800e800     .h..............
   1ed14:	e800e800 e800e800 e800e000 1800e000     ................
	...
   1ed3c:	f800c800 f000f000 f000f000 e000f000     ................
   1ed4c:	e800e000 e800e800 e800e800 e800e800     ................
   1ed5c:	e800e800 e800e800 e800e800 e800e800     ................
   1ed6c:	e800e800 e800e800 d800e000 d000d000     ................
   1ed7c:	d000d000 e000d000 00005000 00000000     .........P......
	...
   1ed9c:	f0006000 e800e000 e800e800 e800e800     .`..............
   1edac:	e800e800 e800e800 e000e000 3000e800     ...............0
	...
   1ee0c:	e800c800 e800e000 e800e800 e800e800     ................
   1ee1c:	e800e800 e800e800 e800e800 e800e800     ................
   1ee2c:	e800e800 e800e800 e000e000 e000e000     ................
   1ee3c:	e800e800 e800e800 e800e800 e800e800     ................
   1ee4c:	e000e800 d800e800 38004000 38013801     .........@.8.8.8
   1ee5c:	38003800 08003801 00000000 00000000     .8.8.8..........
	...
   1ef3c:	f0004000 e000e000 e800e800 e800e800     .@..............
   1ef4c:	e800e800 e800e800 e000e000 3800e800     ...............8
	...
   1ef84:	f0006800 e800e000 e800e800 e800e800     .h..............
   1ef94:	e800e800 e800e800 e800e000 1800e000     ................
	...
   1efbc:	48003800 48004800 48004800 b8004001     .8.H.H.H.H.H.@..
   1efcc:	e000f000 e800e800 e800e800 e800e800     ................
   1efdc:	e800e800 e800e800 e800e800 e800e800     ................
   1efec:	e800e800 e800e000 3800e000 10000800     ...........8....
   1effc:	10001000 10001000 00000800 00000000     ................
	...
   1f01c:	f0006000 e800e000 e800e800 e800e800     .`..............
   1f02c:	e800e800 e800e800 e000e000 3000e800     ...............0
	...
   1f08c:	e800c800 e800e000 e800e800 e800e800     ................
   1f09c:	e800e800 e800e800 f000e000 20009800     ............... 
   1f0ac:	28002800 28002800 58012001 e000e800     .(.(.(.(. .X....
   1f0bc:	e800e800 e800e800 e800e800 e800e800     ................
   1f0cc:	e800e800 e800e800 e800e800 e800e800     ................
   1f0dc:	e800e800 3800f000 00000000 00000000     .......8........
	...
   1f1bc:	f0004000 e000e000 e800e800 e800e800     .@..............
   1f1cc:	e800e800 e800e800 e000e800 3800e800     ...............8
	...
   1f204:	f0006800 e800e000 e800e800 e800e800     .h..............
   1f214:	e800e800 e800e800 e800e000 1800e000     ................
	...
   1f248:	a0000000 e000f000 e800e800 e800e800     ................
   1f258:	e800e800 e800e800 e800e800 e800e800     ................
   1f268:	e800e800 e800e800 e000e800 2820e000     .............. (
	...
   1f29c:	f0006000 e800e000 e800e800 e800e800     .`..............
   1f2ac:	e800e800 e800e800 e000e800 3000e800     ...............0
	...
   1f30c:	e800c800 e800e000 e800e800 e800e800     ................
   1f31c:	e800e800 e800e800 f000e000 00008000     ................
	...
   1f334:	30000000 e000e800 e800e800 e800e800     ...0............
   1f344:	e800e800 e800e800 e800e800 e800e800     ................
   1f354:	e000e000 e000e000 e000e000 3800e800     ...............8
	...
   1f43c:	f0004000 e000e000 e800e800 e000e800     .@..............
   1f44c:	e800e000 e800e000 e000e000 3800e800     ...............8
	...
   1f484:	f0006800 e800e000 e800e800 e800e800     .h..............
   1f494:	e800e800 e800e800 e800e000 1800e000     ................
	...
   1f4c8:	a8000000 e000f000 e800e800 e800e800     ................
   1f4d8:	e800e800 e800e800 e800e800 e800e800     ................
   1f4e8:	e800e800 e800e800 e000e000 2820e000     .............. (
	...
   1f51c:	f0006000 e000e000 e800e800 e800e800     .`..............
   1f52c:	e800e800 e800e800 e000e000 3000e800     ...............0
	...
   1f58c:	e800c800 e800e000 e800e800 e800e800     ................
   1f59c:	e800e800 e800e800 f000e000 00008800     ................
	...
   1f5b4:	38000000 e000e800 e800e000 e800e800     ...8............
   1f5c4:	e800e800 e800e800 e800e800 e800e800     ................
   1f5d4:	e000e000 e000e000 e800e000 3800e800     ...............8
	...
   1f6bc:	f0004000 e000e000 e800e800 e800e800     .@..............
   1f6cc:	e800e800 e800e800 e000e800 3800e800     ...............8
	...
   1f704:	f0006800 e800e000 e800e800 e800e800     .h..............
   1f714:	e800e800 e800e800 e800e000 1800e000     ................
	...
   1f748:	a0000000 e000f000 e800e800 e800e800     ................
   1f758:	e800e800 e800e800 e800e800 e800e800     ................
   1f768:	e800e800 e800e800 e800e800 2800e000     ...............(
	...
   1f79c:	f0006000 e800e000 e800e800 e800e800     .`..............
   1f7ac:	e800e800 e800e800 e000e800 3000e800     ...............0
	...
   1f80c:	e800c800 e800e000 e800e800 e800e800     ................
   1f81c:	e800e800 e800e800 f000e000 00008800     ................
	...
   1f834:	30000000 e000e800 e800e800 e800e800     ...0............
   1f844:	e800e800 e800e800 e800e800 e800e800     ................
   1f854:	e800e800 e800e800 e800e800 3800e800     ...............8
	...
   1f93c:	f0004000 e000e000 e800e800 e800e800     .@..............
   1f94c:	e800e800 e800e800 e000e000 3800e800     ...............8
	...
   1f984:	f0006800 e800e000 e800e800 e800e800     .h..............
   1f994:	e000e000 e000e800 e800e000 1800e000     ................
	...
   1f9c8:	a0000000 e000f000 e800e800 e800e800     ................
   1f9d8:	e800e800 e800e800 e800e800 e800e800     ................
   1f9e8:	e000e000 e800e000 e800e000 2800e000     ...............(
	...
   1fa1c:	f0006000 e800e000 e800e800 e800e800     .`..............
   1fa2c:	e800e800 e800e800 e000e000 3000e800     ...............0
	...
   1fa88:	08000000 e800c801 e800e000 e800e800     ................
   1fa98:	e800e800 e800e800 e800e800 f000e000     ................
   1faa8:	00008800 00000000 00000000 30000000     ...............0
   1fab8:	e000e800 e800e000 e800e800 e800e800     ................
   1fac8:	e800e800 e800e800 e800e800 e800e800     ................
   1fad8:	e800e800 e800e800 3800e800 00000000     ...........8....
	...
   1fbbc:	e8004000 e000e000 e000e000 e000e000     .@..............
   1fbcc:	e800e000 e800e800 e000e000 3800e800     ...............8
	...
   1fc04:	f0006800 e000e000 e000e000 e000e000     .h..............
   1fc14:	e000e000 e000e000 e800e000 1800e000     ................
	...
   1fc48:	a0000000 e000f000 e000e000 e000e000     ................
   1fc58:	e000e000 e000e000 e000e000 e000e000     ................
   1fc68:	e000e000 e000e000 e000e000 2800e000     ...............(
	...
   1fc9c:	f0006000 e800e000 e800e800 e800e800     .`..............
   1fcac:	e800e800 e800e800 e000e000 3000e800     ...............0
	...
   1fd08:	08000000 e800c801 e000e000 e000e800     ................
   1fd18:	e000e000 e000e000 e000e000 f000e000     ................
   1fd28:	00008800 00000000 00000000 30000000     ...............0
   1fd38:	e000e800 e000e000 e000e000 e800e000     ................
   1fd48:	e000e000 e000e000 e000e000 e000e000     ................
   1fd58:	e000e000 e800e000 3000e800 00000000     ...........0....
	...
   1fe3c:	f8004800 f800f800 f000f000 f800f800     .H..............
   1fe4c:	e800e800 e800e800 e000e800 3801e800     ...............8
	...
   1fe84:	f8006800 e800e000 e800e800 e800e800     .h..............
   1fe94:	f000e800 f000f000 f000e800 1800e000     ................
	...
   1fec8:	b0000000 f000f800 f000f000 f800f000     ................
   1fed8:	e800f000 e800e800 e800e800 e800e800     ................
   1fee8:	e800e800 e800e800 e800e800 2801e800     ...............(
	...
   1ff1c:	f0006000 e800e000 e800e800 e800e800     .`..............
   1ff2c:	e800e800 e800e800 e800e800 3000e800     ...............0
	...
   1ff88:	08000000 e800c800 e800e000 e800e800     ................
   1ff98:	e800e800 e800e800 e800e800 f000e000     ................
   1ffa8:	00008800 00000000 00000000 38000000     ...............8
   1ffb8:	f800f800 f800f800 f000f800 e800f800     ................
   1ffc8:	e800e800 e800e800 e800e800 e800e800     ................
   1ffd8:	e800e800 e800e800 4000f000 10000000     ...........@....
   1ffe8:	10001000 10001000 00000800 00000000     ................
	...
   200bc:	88002800 88008800 80008000 88008000     .(..............
   200cc:	e800e000 e000e000 e000e000 c000e800     ................
   200dc:	b800b000 b800b800 b800b800 b000b800     ................
   200ec:	b800b800 b800b000 b800b800 b000b800     ................
   200fc:	b800b800 b000b800 e800c800 e000e000     ................
   2010c:	e000e000 e000e800 28015001 30003000     .........P.(.0.0
   2011c:	30003000 00003000 00000000 00000000     .0.0.0..........
	...
   20148:	58000000 78018000 78017801 70017801     ...X...x.x.x.x.p
   20158:	f000a800 e000e000 e000e000 c800e800     ................
   20168:	30003000 30003000 30003000 08003000     .0.0.0.0.0.0.0..
	...
   2019c:	f0006000 e000e000 e000e000 e000e000     .`..............
   201ac:	e000e000 e000e000 e000e000 b000e000     ................
   201bc:	a800a000 a800a000 a800a800 a800a800     ................
   201cc:	a800a800 a800a800 a800a800 a800a800     ................
   201dc:	a800a800 a800a800 a800a800 a800a800     ................
   201ec:	a800a800 a800a800 a800a800 a000a800     ................
   201fc:	a800a000 08009000 00000000 08000000     ................
   2020c:	e800c800 e000e000 e000e000 e000e000     ................
   2021c:	e000e000 e000e000 f000e000 00008800     ................
	...
   20234:	18000000 80008000 80008000 78008000     ...............x
   20244:	e0008001 e000e800 e000e000 e000e000     ................
   20254:	e000e000 e000e000 e800e800 d800e800     ................
   20264:	d000d000 d000d000 e000d000 00005800     .............X..
	...
   20348:	10000000 e800d000 e800e000 e800e800     ................
   20358:	f000e800 f000f000 f000f000 f000f000     ................
   20368:	f000f000 f000f000 f000f000 f000f000     ................
   20378:	f000f000 f000f000 f000f000 e000e800     ................
   20388:	e800e800 e000e800 e000e800 00002801     .............(..
	...
   203d8:	f8005800 e800e000 e000e800 c000e800     .X..............
	...
   2041c:	f0006000 e800e000 e800e800 e800e800     .`..............
   2042c:	e800e800 e800e800 e800e800 f000e000     ................
   2043c:	f000f000 f000f000 f000f000 f000f000     ................
   2044c:	f000f000 f000f000 f000f000 f000f000     ................
   2045c:	f000f000 f000f000 f000f000 f000f000     ................
   2046c:	f000f000 f000f000 f000f000 f000f000     ................
   2047c:	f800f000 0800d000 00000000 08000000     ................
   2048c:	e800c800 e800e000 e800e800 e800e800     ................
   2049c:	e800e800 e800e800 f000e000 00008800     ................
	...
   204c4:	d0000800 e000e800 e800e800 e800e800     ................
   204d4:	e800e800 e800e800 e800e800 e800e800     ................
   204e4:	e800e800 e800e800 f800e800 00006800     .............h..
	...
   205c8:	18000000 e800d800 e800e000 e800e800     ................
   205d8:	e000e800 e000e000 e000e000 e000e000     ................
   205e8:	e000e000 e000e000 e000e000 e000e000     ................
   205f8:	e000e000 e000e000 e000e000 e800e000     ................
   20608:	e000e000 e000e000 e800e800 00002800     .............(..
	...
   20658:	f0006000 e800e000 e000e800 c000e800     .`..............
	...
   2069c:	f0006000 e000e000 e000e000 e000e000     .`..............
   206ac:	e000e000 e000e000 e000e000 e000e000     ................
   206bc:	e000e000 e000e000 e000e000 e000e000     ................
   206cc:	e000e000 e000e000 e000e000 e000e000     ................
   206dc:	e000e000 e000e000 e000e000 e000e000     ................
   206ec:	e000e000 e000e000 e000e000 e000e000     ................
   206fc:	e800e000 0800c800 00000000 08000000     ................
   2070c:	e800c800 e800e000 e800e800 e800e800     ................
   2071c:	e800e800 e800e800 f000e000 00008800     ................
	...
   20744:	d0001000 e000e800 e800e800 e800e800     ................
   20754:	e800e800 e800e800 e800e800 e000e800     ................
   20764:	e000e000 e000e000 f800e000 00006800     .............h..
	...
   20848:	18000000 e800d800 e800e000 e800e800     ................
   20858:	e800e800 e000e800 e000e000 e000e000     ................
   20868:	e000e000 e000e000 e000e000 e000e000     ................
   20878:	e000e000 e000e000 e000e000 e000e000     ................
   20888:	e000e000 e000e000 e800e800 00002800     .............(..
	...
   208d8:	f0006000 e800e000 e000e800 c000e800     .`..............
	...
   2091c:	f0006000 e000e000 e000e000 e000e000     .`..............
   2092c:	e000e000 e000e000 e000e000 e000e000     ................
   2093c:	e000e000 e000e000 e000e000 e000e000     ................
   2094c:	e000e000 e000e000 e000e000 e000e000     ................
   2095c:	e000e000 e000e000 e000e000 e000e000     ................
   2096c:	e000e000 e000e000 e000e000 e800e000     ................
   2097c:	e800e000 0800c800 00000000 08000000     ................
   2098c:	e800c800 e800e000 e800e800 e800e800     ................
   2099c:	e000e800 e000e800 f000e000 00008800     ................
	...
   209c4:	d0000800 e000e800 e000e800 e000e000     ................
   209d4:	e000e000 e000e000 e000e000 e000e000     ................
   209e4:	e000e000 e800e000 f800e000 00006800     .............h..
	...
   20ac8:	10000000 e800d800 e800e000 e800e800     ................
   20ad8:	e800e800 e800e800 e800e800 e800e800     ................
   20ae8:	e800e800 e800e800 e800e800 e800e800     ................
   20af8:	e800e800 e800e800 e800e800 e800e800     ................
   20b08:	e800e800 e800e800 e800e800 00002800     .............(..
	...
   20b58:	f8006000 e800e000 e000e800 c000e800     .`..............
	...
   20b9c:	f0006000 e800e000 e800e800 e800e800     .`..............
   20bac:	e800e800 e800e800 e800e800 e800e800     ................
   20bbc:	e800e800 e800e800 e800e800 e800e800     ................
   20bcc:	e800e800 e800e800 e800e800 e800e800     ................
   20bdc:	e800e800 e800e800 e800e800 e800e800     ................
   20bec:	e800e800 e800e800 e800e800 e800e800     ................
   20bfc:	e800e000 0800c800 00000000 08000000     ................
   20c0c:	e800c800 e800e000 e800e800 e800e800     ................
   20c1c:	e800e800 e800e800 f000e000 00008800     ................
	...
   20c44:	d0000800 e000e800 e800e800 e800e800     ................
   20c54:	e800e800 e800e800 e800e800 e800e800     ................
   20c64:	e800e800 e800e800 f800e000 00006800     .............h..
	...
   20d48:	10000000 e800d000 e000e000 e000e000     ................
   20d58:	e000e000 e000e000 e000e000 e000e000     ................
   20d68:	e000e000 e000e000 e000e000 e000e000     ................
   20d78:	e000e000 e000e000 e000e000 e000e000     ................
   20d88:	e000e000 e000e000 e000e000 00002800     .............(..
	...
   20dd8:	f0005800 e000e000 e000e000 c000e800     .X..............
	...
   20e1c:	f0006000 e000e000 e000e000 e000e000     .`..............
   20e2c:	e000e000 e000e000 e000e000 e000e000     ................
   20e3c:	e000e000 e000e000 e000e000 e000e000     ................
   20e4c:	e000e000 e000e000 e000e000 e000e000     ................
   20e5c:	e000e000 e000e000 e000e000 e000e000     ................
   20e6c:	e000e000 e000e000 e000e000 e000e000     ................
   20e7c:	e800e000 0800c800 00000000 08000000     ................
   20e8c:	e800c800 e000e000 e000e000 e000e000     ................
   20e9c:	e000e000 e000e000 f000e000 00008800     ................
	...
   20ec4:	d0000800 e000e800 e000e000 e000e000     ................
   20ed4:	e000e000 e000e000 e000e000 e000e000     ................
   20ee4:	e000e000 e000e000 f000e000 00006000     .............`..
	...
   20fc8:	10000000 f800e800 f000f000 f000f000     ................
   20fd8:	f000f000 f000f000 f000f000 f000f000     ................
   20fe8:	f000f000 f000f000 f000f000 f000f000     ................
   20ff8:	f000f000 f000f000 f000f000 f000f000     ................
   21008:	f000f000 f000f000 f800f800 00003000     .............0..
	...
   21058:	f8006000 f000f000 f000f000 d000f800     .`..............
	...
   2109c:	f8006800 f000f000 f000f000 f000f000     .h..............
   210ac:	f000f000 f000f000 f000f000 f000f000     ................
   210bc:	f000f000 f800f800 f000f000 f000f000     ................
   210cc:	f000f000 f000f000 f000f000 f000f000     ................
   210dc:	f000f000 f000f000 f000f000 f000f000     ................
   210ec:	f000f000 f000f000 f000f000 f800f000     ................
   210fc:	f800f000 0800d800 00000000 08000000     ................
   2110c:	f800d000 f800f000 f800f800 f800f800     ................
   2111c:	f800f800 f800f800 f800f000 00009000     ................
	...
   21144:	e0000800 f000f800 f800f800 f800f800     ................
   21154:	f800f800 f800f800 f800f800 f800f800     ................
   21164:	f800f800 f800f800 f800f000 00006800     .............h..
	...
   21248:	08000000 68006000 68006000 68006800     .....`.h.`.h.h.h
   21258:	68006800 68006800 68006800 68006800     .h.h.h.h.h.h.h.h
   21268:	68006800 68006800 68006800 68006800     .h.h.h.h.h.h.h.h
   21278:	68006800 68006800 68006800 68006800     .h.h.h.h.h.h.h.h
   21288:	68006800 68006800 68006800 00001000     .h.h.h.h.h.h....
	...
   212d8:	70002800 68006800 68006800 58206800     .(.p.h.h.h.h.h X
	...
   2131c:	70002800 68006800 68006800 68006800     .(.p.h.h.h.h.h.h
   2132c:	68006800 68006800 68006800 68006800     .h.h.h.h.h.h.h.h
   2133c:	68006800 68006800 68006800 68006800     .h.h.h.h.h.h.h.h
   2134c:	68006800 68006800 68006800 68006800     .h.h.h.h.h.h.h.h
   2135c:	68006800 68006800 68006800 68006800     .h.h.h.h.h.h.h.h
   2136c:	68006800 68006800 68006800 68006800     .h.h.h.h.h.h.h.h
   2137c:	68016800 00005800 00000000 00000000     .h.h.X..........
   2138c:	68005800 68006800 68006800 68006800     .X.h.h.h.h.h.h.h
   2139c:	68006800 68006800 70006800 00003800     .h.h.h.h.h.p.8..
	...
   213c4:	60000000 68006800 68006800 68006800     ...`.h.h.h.h.h.h
   213d4:	68006800 68006800 68006800 68006800     .h.h.h.h.h.h.h.h
   213e4:	68006800 68006800 70006800 00003000     .h.h.h.h.h.p.0..
	...

0002b6d8 <_global_impure_ptr>:
   2b6d8:	0002b748 00000043                       H...C...

0002b6e0 <_init>:
   2b6e0:	e1a0c00d 	mov	r12, sp
   2b6e4:	e92ddff8 	push	{r3, r4, r5, r6, r7, r8, r9, r10, r11, r12, lr, pc}
   2b6e8:	e24cb004 	sub	r11, r12, #4
   2b6ec:	e24bd028 	sub	sp, r11, #40	; 0x28
   2b6f0:	e89d6ff0 	ldm	sp, {r4, r5, r6, r7, r8, r9, r10, r11, sp, lr}
   2b6f4:	e12fff1e 	bx	lr

0002b6f8 <__init_array_start>:
   2b6f8:	0000100c 	.word	0x0000100c

0002b6fc <__frame_dummy_init_array_entry>:
   2b6fc:	00000208                                ....

0002b700 <__libc_fini>:
   2b700:	e1a0c00d 	mov	r12, sp
   2b704:	e92ddff8 	push	{r3, r4, r5, r6, r7, r8, r9, r10, r11, r12, lr, pc}
   2b708:	e24cb004 	sub	r11, r12, #4
   2b70c:	e24bd028 	sub	sp, r11, #40	; 0x28
   2b710:	e89d6ff0 	ldm	sp, {r4, r5, r6, r7, r8, r9, r10, r11, sp, lr}
   2b714:	e12fff1e 	bx	lr

0002b718 <__fini_array_start>:
   2b718:	000001c4 	.word	0x000001c4

0002b71c <__cs3_regions>:
	...
   2b728:	0002bb78 	.word	0x0002bb78
   2b72c:	000002e8 	.word	0x000002e8
